hh:_glClearStencil
kYn:_Decimal_System_IConvertible_ToInt16_m1A2AA283AE6A90670AFCB76746BF147B2C5A75E9_AdjustorThunk
gjf:__ZN5physx2Sc27ConstraintProjectionManager29removeFromPendingGroupUpdatesERNS0_13ConstraintSimE
pLm:_NumberFormatter_Multiply10_m446FDCEB27D033D23D63B4A1CF8FF7428987737F
O3o:_EqualityComparer_1__cctor_mFB340602441F3B76FB7ACA2694ACF4E62A4298C6_gshared
p2l:__Z348RuntimeInvoker_FalseVoid_tDB81A15FA2AB53E2401A76B745D215397B29F783_RuntimeObject_Int32_tC16F64335CE8B56D99229DE94BB3A876ED55FE87_Int32_tC16F64335CE8B56D99229DE94BB3A876ED55FE87_RuntimeObject_Int32_tC16F64335CE8B56D99229DE94BB3A876ED55FE87_Int32_tC16F64335CE8B56D99229DE94BB3A876ED55FE87_RuntimeObject_Int32_tC16F64335CE8B56D99229DE94BB3A876ED55FE87PFvvEPK10MethodInfoPvPS4_
HPe:__ZN5physx2Gu14gjkPenetrationINS0_14RelativeConvexINS0_17ShrunkConvexHullVEEENS0_11LocalConvexIS3_EEEENS0_9GjkStatusERKT_RKT0_RKNS_6shdfnd3aos5Vec3VERKNSF_6FloatVERSG_SM_SM_RSJ_PhSO_Rhb
ZQj:_ConstructionCallDictionary_SetMethodProperty_mBD47C17DC0CE8BF6BD4875247DD2C5FC57ECACD8
cxm:_PlayableHandle_IsPlayableOfType_TisAnimationMixerPlayable_tA71C834654979CF92B034B537EE5A3DA9713030A_m172B8D6DA48AD49F0740833F7D18CD468B072E5E_AdjustorThunk
aah:__ZN15DownloadHandler7OnAbortEv
PQi:_CanvasScaler_HandleConstantPhysicalSize_mB0173D2440F14B901B4FFAF419BDCDA2EB43A94B
XRa:__ZN9Scripting11UnityEngine38ExcludeFromObjectFactoryAttributeProxy12CleanupProxyEv
FFa:__ZN9Scripting11UnityEngine12Experimental10PlayerLoop11FixedUpdateL57__ManagedRegistrationHelperFunction_AudioFixedUpdateProxyEPv
Thb:__Z30GetIntermediateRendererManagerv
QKa:__ZN9Scripting11UnityEngine9Profiling13RecorderProxy9InitProxyEv
qBb:__Z21SourceMipLevelForBlitiiii
pub:__Z23SetSpriteMeshIndexCountP14SharedMeshDataj
qDg:_UNITY_FT_Done_Face
ynn:__Z61UnityEvent_1_Invoke_mBFB4F398CE59C2A3F6ABD6E20AD79FBEA674ED28P54UnityEvent_1_t6FE5C79FD433599728A9AA732E588823AB88FDB5bPK10MethodInfo
x1c:__ZN9ShaderLab9SubShader15FindNamedPassesERKN4core12basic_stringIcNS1_20StringStorageDefaultIcEEEER13dynamic_arrayIPNS_4PassELj0EE
n3m:_AppDomain_get_CurrentDomain_m8C460395B996DCB7C5745FCDA975442C13EDB47D
q3i:_InternalEnumerator_1_get_Current_m066959B26B6FCEE62C9F427A73DCBD2A60076E02_AdjustorThunk
Y0q:_List_1_GetEnumerator_mA48818E73565386560A7B0A6C9EADA8F4BA83327_gshared
Wgg:__ZN12PhysicsScene14ProcessReportsEv
EHp:_PlayableOutput__ctor_m881EC9E4BAD358971373EE1D6BF9C37DDB7A4943_AdjustorThunk
U2g:__ZN17DispatcherService31OnDataDispatcherPostRequestDoneERKN4core12basic_stringIcNS0_20StringStorageDefaultIcEEEES6_jj
$Yn:_Decimal_Equals_mDF32C1E2BF89C54454A779254A5BFE6D00DDC53A
iPs:__ZN6il2cpp5utils11collections13ArrayValueMapIPK10Il2CppType17Il2CppInteropData26InteropDataToTypeConverterNS_8metadata14Il2CppTypeLessENS8_26Il2CppTypeEqualityComparerEED2Ev
M3q:_List_1_System_Collections_IList_Add_m377A3976EB98E906BE8CCA44437D0AE097ED7D21_gshared
fEd:__Z59Register_UnityEngine_PlayerConnectionInternal_DisconnectAllv
P1r:_GUIStyle_GetRectOffsetPtr_m780608811770308EFDE095993756D8AA0BD37BF8
R3j:_Hashtable_CopyTo_m225133039BD08D5790244F597692B4CF0A2A0B64
Bag:__ZN5local8MemBlockINS_13QuickHullFaceELb1EE4initEj
KYh:__ZL106AnimatorTransitionInfo_t66D37578B8898C817BD5A5781B420BF92F60AA6B_CustomAttributesCacheGenerator_m_FullPathP21CustomAttributesCache
YHf:__ZNK5physx2Sc5Scene24getContactModifyCallbackEv
xB:__ZN11UnityEngine9Animation28GenericAnimationBindingCacheD2Ev
wvn:__ZNK52ScrollRect_tAD21D8FB1D33789C39BF4E4CD5CD012D9BD7DD5125get_m_HasRebuiltLayout_30Ev
Bhm:__Z239RuntimeInvoker_FalseInt32_tC16F64335CE8B56D99229DE94BB3A876ED55FE87_Vector2_tA85D2DD88578276CA8A8796756458277E72D073D_Vector2_tA85D2DD88578276CA8A8796756458277E72D073D_ContactFilter2D_t1BEAE75CCD5614B40E8AD9031BBD72543E2C37B4_RuntimeObjectPFvvEPK10MethodInfoPvPS4_
JZ:__ZN15AnimationBinder13SetFloatValueERK20BoundCurveDeprecatedf
jwt:__ZN6il2cpp2vm5Image20EmbeddedResourceDataC2ENS0_22EmbeddedResourceRecordEPv
w6t:b117
A8j:_Convert_ToBoolean_mA20F3610211EC3D1A9C5FB2BD77990B63E031227
Oc:invoke_viiiifiiiiif
Nfd:__Z18RestoreRenderStateR20CameraRenderOldStateR17ShaderPassContext
KNm:_RankException__ctor_m79E39B831797660461236B4B54BE8CFD196EDA69
WVe:__ZL32GeomOverlapCallback_ConvexConvexRKN5physx10PxGeometryERKNS_11PxTransformES2_S5_PNS_2Gu12TriggerCacheE
b6b:__Z18Transfer_BlittableI24GenerateTypeTreeTransferLb0E11ColorRGBA32EvRK29SerializationCommandArgumentsR31RuntimeSerializationCommandInfo
tKa:__ZN9Scripting11UnityEngine9Rendering23GraphicsDeviceTypeProxy12CleanupProxyEv
MSo:_ObjectManager_RegisterObjectInternal_mA180CFF9A4182096402B0B3480CEA9FCA1BDD0FB
lcc:__Z25scripting_class_from_name17ScriptingImagePtrPKcS1_
tE:__ZN7mecanim9animation12GetLeafCountERKNS0_17BlendTreeConstantERKNS0_21BlendTreeNodeConstantE
_zm:_Array_IndexOf_TisCustomAttributeTypedArgument_t6BFE31718393511FACDC7899E1E6586C47110B01_m55FE5254B3EF0270E992982188CFAD8C276CB642_gshared
feh:__ZN9Scripting11UnityEngine12Experimental2XRL69__ManagedRegistrationHelperFunction_XRDisplaySubsystemDescriptorProxyEPv
Yft:__ZN14dense_hash_mapI10KeyWrapperINSt3__24pairIPK12PropertyInfoP11Il2CppClassEEEj17ReflectionMapHashIS8_ENS9_14EqualsComparerINS1_8equal_toIS8_EEEENS1_9allocatorINS2_IKS9_jEEEEE15set_deleted_keyERSH_
Nec:__Z29scripting_class_enum_basetype17ScriptingClassPtr
kpt:__ZN6il2cpp2vm22EmbeddedResourceRecordC2EOS1_
$eg:__Z20GetPhysicsModuleSpecv
cNd:__ZN6IDList10BeginOnGUIEv
kcd:__Z18RegisterUnityClassI11TimeManagerEvPKc
_Kt:__ZN6il2cpp8metadata26Il2CppTypeEqualityComparer8AreEqualEPK10Il2CppTypeS4_
yad:__ZN13TrailRenderer21PrepareDispatchUpdateER13RendererScene10MemLabelId
B0t:dynCall_fiiiiiifiifif
auo:_StringBuilder_Remove_m60C76E2E0262A8A844A62D61D46CACE240E6E6CB
iPh:__ZL145Material_tF7DB3BF0C24DEC2FE0CB51E5DF5053D5223C8598_CustomAttributesCacheGenerator_Material_GetColorImpl_m46381ED49C354AEB9FEFCE5BF410A1909E867E76P21CustomAttributesCache
sqg:__ZN9Heightmap13FlipHeightmapEv
Rjj:_InternalEnumerator_1_get_Current_m97192F8756C63CABEC8E63528CB901F1CF06C170_gshared
UVa:__ZNK20LocalFileSystemPosix6ParentERK13FileEntryDataRN4core12basic_stringIcNS3_20StringStorageDefaultIcEEEE
mnq:_Enumerator__ctor_mAC9C580BD6A3CBAE52A3A55E331FB11138FD614B_AdjustorThunk
iIl:_Playable_get_Null_m1641F4B851ACAA6CBCC9BB400EC783EDEAF1A48D
KKk:_GraphicRaycaster_get_eventCamera_mC92A047B1C0ECD373E1531BB04472EA6B9C4EF1A
rCb:__ZN9Texture2D22UploadImageToGfxDeviceERK14ImageReference18TextureUploadFlags
jgm:__Z966RuntimeInvoker_TrueSByte_t50B643C59EE66E3364AED19D82E06B27BDE75268_RuntimeObject_RuntimeObject_Color_t119BCA590009762C7223FDD3AF9706653AC84ED2_Int32_tC16F64335CE8B56D99229DE94BB3A876ED55FE87_Single_tF2613CF3F3AF0E8BEBC3CE8AD41479C44E6075DB_Single_tF2613CF3F3AF0E8BEBC3CE8AD41479C44E6075DB_Int32_tC16F64335CE8B56D99229DE94BB3A876ED55FE87_SByte_t50B643C59EE66E3364AED19D82E06B27BDE75268_SByte_t50B643C59EE66E3364AED19D82E06B27BDE75268_Int32_tC16F64335CE8B56D99229DE94BB3A876ED55FE87_Int32_tC16F64335CE8B56D99229DE94BB3A876ED55FE87_Int32_tC16F64335CE8B56D99229DE94BB3A876ED55FE87_Int32_tC16F64335CE8B56D99229DE94BB3A876ED55FE87_SByte_t50B643C59EE66E3364AED19D82E06B27BDE75268_Int32_tC16F64335CE8B56D99229DE94BB3A876ED55FE87_Vector2_tA85D2DD88578276CA8A8796756458277E72D073D_Vector2_tA85D2DD88578276CA8A8796756458277E72D073D_SByte_t50B643C59EE66E3364AED19D82E06B27BDE75268_SByte_t50B643C59EE66E3364AED19D82E06B27BDE75268_VoidU2A_t8A995245462F8BDC7319CC68F09ACF295FDD2879PFvvEPK10MethodInfoPvPS4_
Xcr:_Collection_1_IsSynchronized_m57626CD782A577FEFD9E5EFAEC2E7BEF836CBD79_gshared
Faf:__ZN5physx9NpFactory21releaseConnectorArrayEPNS_16NpConnectorArrayE
Q3s:__ZN6il2cpp6icalls8mscorlib6SystemL8IsStaticEPK12PropertyInfo
ojm:__Z173RuntimeInvoker_FalseSByte_t50B643C59EE66E3364AED19D82E06B27BDE75268_ColorBlock_t93B54DF6E8D65D24CEA9726CA745E48C53E3B1EA_ColorBlock_t93B54DF6E8D65D24CEA9726CA745E48C53E3B1EAPFvvEPK10MethodInfoPvPS4_
qDb:__ZN9Texture2D25CreateScaledAndPaddedDataEPP17SharedTextureDataS2_
pTs:__ZN13Il2CppHashSetIPK19Il2CppGenericMethodN6il2cpp8metadata23Il2CppGenericMethodHashENS4_26Il2CppGenericMethodCompareENSt3__29allocatorI10KeyWrapperIS2_EEEEC2EjRKS5_RKS6_
eCr:__ZN56GameController_t8BB0D3CE8992C95BED5FB508588730F0A74009A321set_displayCueTime_61Ef
kpc:__ZN7ApiGLES17CopyBufferSubDataEjjlll
x6g:__ZN11UnityEngine15PlatformWrapper17GetCloudProjectIdEv
T0f:__ZN5physx2Cm12DelegateTaskINS_2Sc5SceneEXadL_ZNS3_15destroyManagersEPNS_10PxBaseTaskEEEE11runInternalEv
E9d:__ZN14SafeBinaryRead22TransferWithTypeStringIN11ShapeModule18MultiModeParameterIN25IParticleSystemProperties8PropertyIfNS3_22ClampEpsilonToInfinityEEEEEEEvRT_PKcSB_17TransferMetaFlags
lpk:_CrossPlatformInputManager_SetAxisZero_m228A4801801A6214F9ABB9ED83A5E97949078EB6
CXd:__ZN5Unity9rapidjson15GenericDocumentINS0_4UTF8IcEE13JSONAllocatorS4_E11ParseStreamILj1ES3_NS0_25GenericInsituStringStreamIS3_EEEERS5_RT1_
HOs:__ZNSt3__26vectorIPK10Il2CppTypeNS_9allocatorIS3_EEE7reserveEj
Xwp:_FileStreamAsyncResult__ctor_mCF972918EA4FC75E84040753B68F8865BFF3AD7D
bOq:_U3CReloadLevelU3Ec__Iterator2_Reset_m2943EF2D204F4B2ED67465D35641CFA3578A60E3
cVj:_Boolean_System_IConvertible_ToDecimal_mCF0C1A8134130E7815B5A3373787D978882A35ED
NHl:_Object_DontDestroyOnLoad_m4DC90770AD6084E4B1B8489C6B41205DC020C207
j2i:__Z68InternalEnumerator_1__ctor_m712AC01680AE1474D401E17B36086388682C36C5P62InternalEnumerator_1_t8E5EC4323F9224B32E1371C8733729A65523DFBFP11Il2CppArrayPK10MethodInfo
Slp:_Enumerator__ctor_mF91D9893CCAE279FAAD0D79E25C9EEA1B84A75BE_gshared
EMd:__ZN9Scripting11UnityEngine15GUIUtilityProxy8BeginGUIEiiiP21ScriptingExceptionPtr
Sgp:_Enumerator_VerifyState_m43A2E3DC051A6CBC486DE6868E03B2B8662E2347_AdjustorThunk
mHd:__Z40SystemInfo_CUSTOM_HasRenderTextureNative19RenderTextureFormat
Ekd:__ZN17MaterialScripting7SetPassEP8Materiali
kjd:__Z17GLLoadOrthoScriptv
gin:_PKCS12_MAC_mC418E6F1E13A657E427551E1DD35D89575A5DE94
yUb:__ZN20ComputeShaderVariant8TransferI24GenerateTypeTreeTransferEEvRT_
$As:_RaycastHit_get_normal_mF736A6D09D98D63AB7E5BF10F38AEBFC177A1D94_AdjustorThunk
FIk:__Z58IndexedSet_1_Add_m9AA492F235B4480EB05A5F1DA58FD06C1BF46AB4P54IndexedSet_1_tF9ACBD262A6D94131548F1759C8580E12B8AD07AP49Graphic_tBA2C3EF11D3DAEBB57F6879AB0BB4F8BD40D00D8PK10MethodInfo
zIi:_PointerEventData_set_delta_mC465A762DB5BBA323969FCCADAC62CE470D67F56
Hyj:__Z58Enumerator_Reset_m2E47CCCD2E02D06FC7E25B693787C2C1D925925DP52Enumerator_t5DE3D636A6596D8B2CAB473CE8F848FC269A03A3PK10MethodInfo
VEq:_TiltShift__ctor_mD7A3219D3C542C0F21B2A02443557AE71884208D
aIt:__ZN6il2cpp8metadata13GenericMethod9GetMethodEPK19Il2CppGenericMethod
Bt:__ZNSt3__26vectorIN4core12basic_stringIcNS1_20StringStorageDefaultIcEEEENS_9allocatorIS5_EEE7reserveEj
sqr:_ReadOnlyCollection_1__ctor_m25E8572BF0216C9C7012D7A5942A243E9F615429_gshared
ffs:_UnityWebRequest_InternalSetUrl_m2E2C837A6F32065CAAAF6EFA7D0237C9E206689A
$Ft:__ZN6il2cpp2vm13ComObjectBase16MarshalInterfaceEP13Il2CppIStreamRK10Il2CppGuidPvjS7_j
cMj:_SynchronizationAttribute_ExitContext_mBABD17D0472DCF2801432CA7A2704C1CADE395B0
Ykc:__ZN13GfxDeviceGLES11SetViewportERK5RectTIiE
Nvr:_Func_2_Invoke_mC085D88039B698D8980E1490CA9C90FF9C85E36B_gshared
soq:_ValueCollection_System_Collections_Generic_ICollectionU3CTValueU3E_Add_mDB15217297F193C59DD1000F3CC2512B6BD546C1_gshared
J2q:_List_1_System_Collections_IList_Insert_mA4A038C327CD5451F77EDEE729D5ED7ABB0907B0_gshared
uZs:__ZN6il2cpp2vm13MetadataCache34GetThreadLocalStaticOffsetForFieldEP9FieldInfo
Ayd:__Z24Time_Get_Custom_PropTimev
PEh:__ZL97FailedToLoadScriptObject_tB9D2DBB36BA1E86F2A7392AF112B455206E8E83B_CustomAttributesCacheGeneratorP21CustomAttributesCache
otn:_ScrollRect_set_vertical_m88623F933530D68DB98B487663E5125619D15A03
tag:__ZN5physx28computeVolumeIntegralsEberlyERKNS_16PxConvexMeshDescEfRNS_11PxIntegralsERKNS_6PxVec3E
SWm:_Array_GetRank_m80F06408A51AB2456045A5E9016D26F8F0B2862E
Lyo:_Thread_GetSerializedCurrentUICulture_mF19F123133F9C0E639C6F35CF7365F798A00ABFE
a_c:__Z14resize_trimmedINSt3__26vectorIN9ShaderLab20SerializedSubProgram12UAVParameterENS0_9allocatorIS4_EEEEEvRT_j
VXd:__ZN5Unity9rapidjson13GenericReaderINS0_4UTF8IcEES3_13JSONAllocatorE11ParseObjectILj1ENS0_25GenericInsituStringStreamIS3_EENS0_15GenericDocumentIS3_S4_S4_EEEEvRT0_RT1_
Zkd:__Z10DestripifyPKjjRNSt3__26vectorIj13stl_allocatorIjL18MemLabelIdentifier1ELi16EEEE
bFa:__ZN9Scripting11UnityEngine12Experimental10PlayerLoop11EarlyUpdateL59__ManagedRegistrationHelperFunction_DirectorSampleTimeProxyEPv
jLp:_Rect_get_min_m17345668569CF57C5F1D2B2DADD05DD4220A5950
Wlg:__Z59Register_UnityEngine_Rigidbody_set_angularVelocity_Injectedv
Nva:__ZNSt3__218__insertion_sort_3IRNS_6__lessI14ObjectLoadDataS2_EEPS2_EEvT0_S6_T_
G4q:_List_1_get_Item_m8BA0B92A220CF9DE7230C71B12A020BD983EF43D_gshared
dGp:_Int64_System_IConvertible_ToUInt32_m13477A6AAB2D38DB60E70292FC18389CFFED1E30_AdjustorThunk
nAs:_Physics_SphereCast_m2D57A1F4DA048B95DC33939367F2556CEA22B8BD
NAb:__ZN4crndL20crnd_default_reallocEPvjPjbS0_
a5n:_NumberFormatInfo__ctor_m9A89AFD5EE0DA4D3B8B2C52CF8ED29CC59D842B2
Tyr:_LayoutGroup_SetProperty_TisBoolean_t92E4792324DA9B716F339A3B965A14965E99A4EF_m417A8B845C1ACCD98C79C5F4ED76E33F06CB4826_gshared
Wet:__ZN15dense_hashtableINSt3__24pairIK10KeyWrapperIPK22Il2CppGenericParameterEPK24MonoGenericParameterInfoEES6_N6il2cpp5utils11PointerHashIS4_EEN14dense_hash_mapIS6_SA_SF_NS6_14EqualsComparerINS0_8equal_toIS5_EEEENS0_9allocatorISB_EEE9SelectKeyESK_SM_E13set_empty_keyERKSB_
Gvb:__ZN18SpriteAtlasManager19AddRequestingSpriteE4PPtrI6SpriteE
tld:__ZN16PackedQuatVector9PackQuatsEP11Quaternionfi
gzk:_ColorCorrectionLookup_ValidDimensions_m6D11BE4BDEF4A94740C9DEB30B819E5017796A60
O9f:__ZN5physx17ConvexHullBuilder23calculateVertexMapTableEjb
wfd:__Z20IsValidRealtimeLightRK15SharedLightData9LightTypej
OB:__ZN9Scripting11UnityEngine10AnimationsL62__ManagedRegistrationHelperFunction_AnimationPosePlayableProxyEPv
DSc:__ZN23ScriptableRenderContextC2Ev
PR:__ZN7mecanim9animation18ClipMuscleConstant8TransferI24GenerateTypeTreeTransferEEvRT_
Hns:_DelegatePInvokeWrapper_ConsumeSampleFramesNativeFunction_tC1E0B1BFCF2C3D7F87D66FCFA2022369327D931D
zVq:_List_1__ctor_m78BFE687DC07F40A1453AA13C9AC240F92FE29EB_gshared
XLg:_UNITY_FT_Stream_GetChar
sdn:_SslStreamBase_get_MightNeedHandshake_mA98BF7271F564852129D28C348FA850ADEE6D16A
uo:__ZN15NavMeshSettings17MainThreadCleanupEv
V8s:__ZNK15dense_hashtableINSt3__24pairIK10KeyWrapperINS1_IPK10MethodInfoP11Il2CppClassEEEjEES9_17ReflectionMapHashIS8_EN14dense_hash_mapIS9_jSD_NS9_14EqualsComparerINS0_8equal_toIS8_EEEENS0_9allocatorISB_EEE9SelectKeyESI_SK_E23find_position_with_hashERSA_j
TJn:_MD5SHA1_Initialize_m6B04B964F6E2F05D879B8ED862353CFB164E25B2
EWq:_List_1_set_Item_m4837A8EC277FBB6E1AE146C9DE8550924A07DB20_gshared
Tec:__Z26BuildSerializationCacheFor17ScriptingClassPtrRb
Hdp:_KeyValuePair_2_ToString_mFEA9BDA1CC30EB3D58F36BB8EF5CD03EA1C711D1_gshared
arq:_Dictionary_2_ToTKey_m2435A2978284DD03940D1F864BC644217BE7C8D5_gshared
Lrc:__ZN7ApiGLES15BlitFramebufferEN2gl6HandleILNS0_10ObjectTypeE9EEENS0_15FramebufferReadES3_S3_iiiiiiiiNS0_15FramebufferTypeE
l5f:__ZN5physx13GuMeshFactory16createConvexMeshERNS_13PxInputStreamE
_dm:__Z117RuntimeInvoker_TrueVector3_tDCF05E21F632FE2BA260C06E0D10CA81513E6720_Single_tF2613CF3F3AF0E8BEBC3CE8AD41479C44E6075DBPFvvEPK10MethodInfoPvPS4_
CUk:_InputField_Rebuild_m0522884BE20E845749E5AD7D7FF5F439E5D7505A
G2l:__Z157RuntimeInvoker_FalseRuntimeObject_RuntimeObject_SByte_t50B643C59EE66E3364AED19D82E06B27BDE75268_RuntimeObject_SByte_t50B643C59EE66E3364AED19D82E06B27BDE75268PFvvEPK10MethodInfoPvPS4_
ERi:_CanvasUpdateRegistry_TryRegisterCanvasElementForLayoutRebuild_m1F0BF3A80FBED68DFD573AE8D5605FBD0CA19F91
Xin:_X509Certificate_get_DSA_m60D7C020BF9AEC9F779495B5498A12BFEBE04B83
Rbe:__ZN11ForceModule8TransferI19StreamedBinaryWriteEEvRT_
Zvm:_Array_InternalArray__ICollection_Remove_TisLabelFixup_t7AEAF33F4F33BA4B9AB82312D476BBEB4F308EC0_mEE183680E1E9FD1B2D912AB0109644B7ADEA04AE_gshared
YHg:_otv_PairPos_validate
vH:__ZN7mecanim9animation14CopyHumanPosesEPKNS0_18AnimationNodeStateEPS1_RKNS_6bitsetILj83EEE
NIm:_MulticastDelegate_GetHashCode_m678D0D9337791C8F8B0FAC5A78C45B9DBCDA1CBD
HEl:_Mesh_SetTrianglesImpl_m8EDF09F91CF1F2FE8B6095E7C73685FA36ABCECD
Phc:__Z9InitInputv
Nld:__Z23ClearVertexDataChannelsjj17ShaderChannelMaskR10VertexData
oTm:_DerivedType_GetPropertyImpl_m05516C5FDEAAE5CC1F8F11551B7B6545FC7696C1
iKh:__ZL100RuntimePlatform_tD5F5737C1BBBCBB115EB104DF2B7876387E80132_CustomAttributesCacheGenerator_FlashPlayerP21CustomAttributesCache
qMk:__ZNK73HorizontalOrVerticalLayoutGroup_tFE5C3DB19C2CC4906B3E5D5F4E1966CB585174AB26get_m_ChildControlWidth_15Ev
fvm:_Array_InternalArray__ICollection_Contains_TisColor32_t23ABC4AE0E0BDFD2E22EE1FA0DA3904FFE5F6E23_m6CA37DE08DBDF9BE5B53AD01B8DE6A3CA89EC02B_gshared
c_b:__ZN16MemoryFileSystem6DeleteER13FileEntryDatab
okj:_InternalEnumerator_1_System_Collections_IEnumerator_get_Current_m5E9526A7B98E00E08DB774C352A8E5F0E65957FF_AdjustorThunk
Q1m:_SmallXmlParserException__ctor_m4663ADDD7028FCAEF8162BBCA6B0C09A899345F6
qYg:__ZN18AnalyticsCoreStatsD0Ev
jlf:__ZN5physx10NpMaterial17setStaticFrictionEf
SHs:__ZL6sub192yyyyyyPyS_S_
H2d:__Z9UpdateTplIL27ParticleSystemCurveEvalMode0EEvRK11MinMaxCurveS3_S3_R23ParticleSystemParticlesjjRKN4math8float3x3ERKNS6_7_float4E
XCf:__ZNK5physx7NpScene18getStaticStructureEv
sCf:__ZNK5physx7NpScene19getFilterShaderDataEv
H1b:__Z29Transfer_Blittable_ArrayFieldI14SafeBinaryReadyEvRT_R9ArrayInfoRK23StaticTransferFieldInfo
Ftp:_MonoIO_GetFileStat_m2CE22EF0A753D4F3D2E8CB808DAAC86A1F155A8B
V8:__ZN20SoundChannelInstance15setChannelGroupEPN4FMOD12ChannelGroupE
Kzg:__ZN9Scripting11UnityEngine18CharacterInfoProxy9InitProxyEv
NTo:_SerializationInfo_AddValue_m5AABBD341C86E74174984842FA7F3FEEB35FA953
Tce:__ZN12LightsModule13AwakeFromLoadEP14ParticleSystemRK27ParticleSystemReadOnlyState
gSi:_ColorBlock_get_normalColor_m56E5827F34618598261AFDD0A3EBA5FF98F8D907_AdjustorThunk
cc:invoke_vifffii
Mcq:_Uri_IsDomainAddress_m488D5642C2C83385D8536AEFBE1431010B59E463
uZb:__ZN20ArchiveStorageReader17MakeStorageUnusedEv
u7l:__Z116RuntimeInvoker_FalseInt16_tBFC41132AB8E6B4E1F9D4A1E3CC46422BF453F3C_Single_tF2613CF3F3AF0E8BEBC3CE8AD41479C44E6075DBPFvvEPK10MethodInfoPvPS4_
xKe:__ZNK5physx3Cct17CapsuleController21getHalfHeightInternalEv
ijd:__ZN11MatrixStack3PopEv
vzq:_Array_InternalArray__set_Item_TisCustomAttributeTypedArgument_t6BFE31718393511FACDC7899E1E6586C47110B01_m2F569148DF5BF9DE816B54D19C1F5005FF29B75C_gshared
ktp:_BinaryWriter_Write_m90F34C5A1ABD316DD63C4F8987AC2331CA0EBC00
yxp:_MonoIO_Close_mF493E4F07931C91CAAB53D5766D71CD457863281
Fdm:__Z165RuntimeInvoker_FalseSByte_t50B643C59EE66E3364AED19D82E06B27BDE75268_Single_tF2613CF3F3AF0E8BEBC3CE8AD41479C44E6075DB_Single_tF2613CF3F3AF0E8BEBC3CE8AD41479C44E6075DBPFvvEPK10MethodInfoPvPS4_
S7t:_glInvalidateFramebuffer__wrapper
ksc:__Z12IsHalfFormat14GraphicsFormat
Q4s:__GLOBAL__sub_I_Reflection_cpp
QVe:__ZL30GeomOverlapCallback_CapsuleBoxRKN5physx10PxGeometryERKNS_11PxTransformES2_S5_PNS_2Gu12TriggerCacheE
bYe:__ZNK5physx2Gu11LocalConvexINS0_24ShrunkConvexHullNoScaleVEE7supportERKNS_6shdfnd3aos5Vec3VE
uMj:_SynchronizedServerContextSink_SyncProcessMessage_mC770AC44C8F7586217A416A6D4A7C70D658593D6
iXe:__ZN5physx24PxcPCMContactPlaneConvexERKNS_2Gu13GeometryUnionES3_RKNS_11PxTransformES6_RKNS0_17NarrowPhaseParamsERNS0_5CacheERNS0_13ContactBufferEPNS_2Cm12RenderOutputE
SLd:__ZN9Scripting11UnityEngineL49__ManagedRegistrationHelperFunction_GUIStyleProxyEPv
hbm:__Z120RuntimeInvoker_TrueMatrix4x4_t6BF60F70C9169DF14C9D2577672A44224B236ECA_Vector4_tD148D6428C3F8FF6CD998F82090113C2B490B76EPFvvEPK10MethodInfoPvPS4_
JCa:__ZN24StaticInitializeInternal13ConstructTypeI15ApplicationInfoLb0EEEPvS2_10MemLabelId
wVb:__ZL26KeywordSetToStringDontSortRKNSt3__26vectorIN4core12basic_stringIcNS1_20StringStorageDefaultIcEEEENS_9allocatorIS5_EEEERS5_
I_o:_HMACSHA512__cctor_mCFBE0783E62E62C3829345567673A4910A5B1AA2
dzb:__ZN6prcoreL17RemapGenericFloatI16TexFormatRGFloat17TexFormatRGBAHalfEEvPKNS_9InnerInfoE
Paa:__ZN12AudioManager22CreateFMODSoundFromWWWEP10IWWWStream15FMOD_SOUND_TYPE17FMOD_SOUND_FORMATjjbbP10SampleClip
I9c:__ZNK32RendererMaterialAnimationBinding15GenerateBindingERKN4core12basic_stringIcNS0_20StringStorageDefaultIcEEEEbRN11UnityEngine9Animation14GenericBindingE
imq:__Z60Transform_1_Invoke_mE4204E3FA693660DD3FEA42B3D267355904A91AEP53Transform_1_t53C8DB33C23C0ACF35922C5CD62086514BE7704C51TileCoord_t51EDF1EA1A3A7F9C1D85C186E7A7954535C225BAP12Il2CppObjectPK10MethodInfo
qXg:__ZN9Scripting11UnityEngineL61__ManagedRegistrationHelperFunction_RemoteConfigSettingsProxyEPv
hQg:__GLOBAL__sub_I_TilemapScriptingClasses_cpp
j6d:__Z25UpdateOrbitalAndRadialTplIL27ParticleSystemCurveEvalMode0ELS0_2ELS0_0EEvRK11MinMaxCurveS3_S3_S3_S3_S3_S3_R23ParticleSystemParticlesjjRKN4math8float3x3ERKNS6_7affineXERKNS6_7_float4E
lRq:_PlanarReflection_SaneCameraSettings_m485521E2D48ED0E34DCE2A1D2BC95B8AEF88852C
kMa:__ZN9Scripting11UnityEngine21GradientAlphaKeyProxy9InitProxyEv
JZi:__Z14MethodIsStaticPK10MethodInfo
Kta:__ZN8Remapper23GetOrGenerateInstanceIDERK26SerializedObjectIdentifier
sN:__ZN17AnimationCurveTplI8Vector3fEC2ERKS1_
iLo:_BigInteger_op_Modulus_mF7415133D8370FF1537331C4EFC32968031997D2
RAs:_PhysicsScene_Raycast_mA90972A8E828722A26EBC754EABB3086BE6E2336_AdjustorThunk
vOm:_Assembly_GetModule_m636C7961E007511E1BD09C455B06FBE78DF64BF0
M6n:_CultureInfo_Equals_m0E5EA9532CD572E47CFA8225C549FF3AF9CD82D3
kGs:_Physics2D_GetRayIntersectionAll_Internal_m4E68866CF4A79A58DBF4B8A355D3EEE62BEF6612
uXg:__ZN9Scripting11UnityEngine25RemoteConfigSettingsProxy9InitProxyEv
YXq:_List_1_System_Collections_IList_Remove_m13CCE16DE80FEC8E14B4ABFF2C44F1EA3A958B0A_gshared
xxq:_Array_InternalArray__ICollection_CopyTo_TisPlayerLoopSystem_t89BC6208BDD3B7C57FED7B0201341A7D4E846A6D_m96366060E542A402948A7CCAA9C146238EC5443C_gshared
buq:_Dictionary_2_get_Item_m188A7B7EFE13242F00DF12D9072780C1582FC5F5_gshared
Nub:__ZN6Sprite8TransferI24GenerateTypeTreeTransferEEvRT_
QVh:__ZL175RenderSettings_tE29C3977EF70E0CFFA0351D5B55ED191E3811195_CustomAttributesCacheGenerator_RenderSettings_tE29C3977EF70E0CFFA0351D5B55ED191E3811195____fogEndDistance_PropertyInfoP21CustomAttributesCache
A0k:_MethodBuilder_GetToken_m2917CA9574B0EB8FE5AF5EEEA00A7AD88D852A17
UFd:__Z48Register_UnityEngine_Transform_SetAsFirstSiblingv
Rub:__ZN7SubMesh8TransferI24GenerateTypeTreeTransferEEvRT_
JC:__ZN9Scripting11UnityEngine31AnimatorOverrideControllerProxy12CleanupProxyEv
Vff:__ZNK5physx19NpArticulationJoint28getTwistLimitContactDistanceEv
cHt:__ZN14Il2CppIMarshalC2Ev
Zyd:__Z48Register_UnityEngine_Application_get_absoluteURLv
NKe:__ZN5physx3Cct10Controller6setPosERKNS_14PxExtendedVec3E
CMe:__ZN5physx2GuL14testFaceNormalERKNS0_13PolygonalDataES3_PNS0_12SupportLocalES5_RKNS_6shdfnd3aos15PsMatTransformVESA_RKNS7_6FloatVERSB_RjRNS7_5Vec3VENS0_13FeatureStatusERSI_
Kzd:__Z43Register_UnityEngine_Vector3_Slerp_Injectedv
a4l:__Z169RuntimeInvoker_TrueVoid_tDB81A15FA2AB53E2401A76B745D215397B29F783_RuntimeObject_RuntimeObject_Int32_tC16F64335CE8B56D99229DE94BB3A876ED55FE87_RuntimeObject_RuntimeObjectPFvvEPK10MethodInfoPvPS4_
obs:_ValueType_ToString_m9E0CE6CAA3E602708A61386A0414B39B10AEE7AE
_Qp:_Screen_get_fullScreen_m7C0CE5B87209523630EE751F54E3180AADD02E71
NDg:__ZNK20TextRenderingPrivate7GUIText22GetTypeVirtualInternalEv
vFd:__ZN9Transform23SetSiblingIndexInternalEib
Lcr:_Collection_1_InsertItem_mF3FCA4D8F54F419362DD34BC09B238965D693BC8_gshared
VSd:__ZN9JSONWrite8TransferI13dynamic_arrayIaLj0EEEEvRT_PKc17TransferMetaFlags
gns:_AudioSource_PlayOneShotHelper_m984380B06707633611ACDDCF4AFC91B659EEF8AE
FF:__ZN7mecanim5human12HumanPoseSubERNS0_9HumanPoseERKS1_S4_
rAr:_Component_GetComponentInParent_TisRuntimeObject_m36052D294AB8C1574678FEF9A9749145A073E8E3_gshared
CJa:__ZN9Scripting11UnityEngine30UnhandledExceptionHandlerProxy9InitProxyEv
i0b:__Z18Transfer_BlittableI14SafeBinaryReadLb0E10Matrix4x4fEvRK29SerializationCommandArgumentsR31RuntimeSerializationCommandInfo
jec:__Z24GetFixedBehaviourManagerv
ZSl:_OidEnumerator_System_Collections_IEnumerator_get_Current_m4238961F615A5A6DC23B07CBF0EFEC7E58D8516C
rxm:_PlayableHandle_IsPlayableOfType_TisAnimatorControllerPlayable_t352C2C3D059CFC0404FF4FBBA302F16C5966F44B_mC6A8CB67F39B0B39BF77ED6177B3C2DF1BC91533_AdjustorThunk
W0s:__ZN6il2cpp2vm10ThreadPool4WaitEP17Il2CppAsyncResultPPv
IQe:__ZN5physx2Gu23sweepBox_MeshGeom_RTREEEPKNS0_12TriangleMeshERKNS_22PxTriangleMeshGeometryERKNS_11PxTransformERKNS0_3BoxERKNS_6PxVec3EfRNS_10PxSweepHitENS_7PxFlagsINS_9PxHitFlag4EnumEtEEf
nWt:_vfprintf
lOd:__ZN10GUIManager12AddGUIScriptER8ListNodeI13MonoBehaviourE
Rle:__Z17UpdateSprites2TplILN8UVModule8TimeModeE0EL27ParticleSystemCurveEvalMode3ELS2_3EEvRKfRK11MinMaxCurveS7_RKN4math7_float2ERK23ParticleSystemParticlesPf
JRp:_Vector3_op_Subtraction_mF9846B723A5034F8B9F5F5DCB78E3D67649143D3
PVt:___stdio_seek
tIf:__ZN5physx7NpScene19removeActorInternalERNS_7PxActorEbb
JEg:_cf2_getVStore
dBc:__ZN20DynamicPropertySheetD0Ev
Gbe:__ZN27ParticleSystemReadOnlyState8TransferI19StreamedBinaryWriteEEvRT_
NIt:__ZN6il2cpp5utils11StringUtils6PrintfEPKcz
xxd:__Z28Shader_CUSTOM_DisableKeywordP12Il2CppString
I1i:_InternalEnumerator_1_MoveNext_m10F125E27C31DE45E00415DD50B5C98849FC4BCB_AdjustorThunk
fqc:__ZN7ApiGLES20DrawElementsIndirectE16GfxPrimitiveTypejjj
pQ:__ZN7mecanim6memory16ChainedAllocator7ReserveEj
K0g:__ZN11UnityEngine9Analytics15DeviceInfoEvent16CollectExtraInfoEv
Kol:_Camera_get_pixelHeight_m38879ACBA6B21C25E83AB07FA37A8E5EB7A51B05
O0s:__ZNSt3__210__list_impIP17Il2CppAsyncResultN6il2cpp2gc9AllocatorIS2_EEE5clearEv
Zvr:__ZN28GenericInterfaceFuncInvoker0IfE6InvokeEPK10MethodInfoP12Il2CppObject
Bmo:_String_CopyTo_m6C8AB6CED98AC3C877DA4421D43E7CA21EB0EAFB
xPt:__ZN6il2cpp6icalls8mscorlib6System10Reflection4Emit13ModuleBuilder20create_modified_typeEP27Il2CppReflectionTypeBuilderP12Il2CppString
yHd:__Z21Object_CUSTOM_DestroyP12Il2CppObjectf
tDm:_Array_InternalArray__ICollection_Add_TisContactPoint_tE0D3A30ED34A1FC8CA3F7391348429F3232CA515_mA83E56C6D0B531627719D9DEA84737F1821DE958_gshared
Huq:_Dictionary_2_Remove_m4F98E4CA60D859B7446697320F5896A9853B2B36_gshared
Nwc:__ZN8Material26ResetAllCachedMaterialDataEP6Shader
ZMg:_UNITY_TT_Get_MM_Var
EJa:__ZN9Scripting11UnityEngine3U2D23SpriteAtlasManagerProxy9InitProxyEv
KHs:__ZN6il2cpp6icalls8mscorlib6System7Decimal13decimal2Int64EP19il2cpp_decimal_reprPx
qV:__ZN7mecanim4hand17Hand2SkeletonPoseEPKNS0_4HandEPKNS_8skeleton8SkeletonEPKNS0_8HandPoseEPNS4_13SkeletonPoseTIN4math4trsXEEE
FMr:__ZNK63RewardAnimationScript_t717A0F7853B6B5A365017DDA4CCD70E9A6E8D86315get_isScaling_7Ev
SYt:_unlink
u$b:__Z18Transfer_BlittableI14SafeBinaryReadLb0EiEvRK29SerializationCommandArgumentsR31RuntimeSerializationCommandInfo
aZs:__ZN6il2cpp2vm13MetadataCache30GetPropertyDefinitionFromIndexEi
R8j:_Convert_ToByte_mB7B91B31B490A79D5C6EB906C410D75D1DE52AC6
Avf:__ZN5physx14NpRigidDynamic7releaseEv
y0n:_Double_System_IConvertible_ToSByte_m3DDC7E8FAE510B8BEFC146914E17FA911E5AEB09
qLc:__ZN15JobDataGuardian11DecreaseRefI18ShadowMapJobHeaderEEvPT_
jUk:_InputField_MoveUp_m897F9B5C57B75AC0AD1F8A87B6E4E26E24EBC0F4
_xq:_Array_InternalArray__Insert_TisSlot_t119E10B59127CCBEB2A2B8A81C92F03083B7F53D_m4D0FBE8CC72C4B6B7F946A111D4DFD8FC6259454_gshared
CLp:_Rect_set_xMin_mD8F9BF59F4F33F9C3AB2FEFF32D8C16756B51E34
Xu:__ZNK14NavMeshManager23GetNavMeshBuildSettingsEi
Jul:__Z69CachedInvokableCall_1__ctor_mA3C18A22B57202EE83921ED0909FCB6CD4154409P63CachedInvokableCall_1_tD9D6B42DED8777941C4EE375EDB67DF2B8F445D7P48Object_tAE11E5E46CD5C37C9F3E8950C00CD8B45666A2D0P12MethodInfo_tbPK10MethodInfo
etd:__ZN13MonoBehaviour34StopCoroutineFromEnumeratorManagedE18ScriptingObjectPtr
pD:__ZN9Scripting11UnityEngine10Animations36AnimationMotionXToDeltaPlayableProxy12CleanupProxyEv
YIs:__ZNK52EmitParams_t03557E552852EC6B71876CD05C4098733702A21929get_m_ApplyShapeToPosition_10Ev
LKl:_KeysCollection_get_Count_mF4E38E64C0D1C298AFFB4ED67E54062AC9D2A358
eTf:__ZN5physx2Dy16writeBackContactERKNS_22PxSolverConstraintDescERNS0_13SolverContextERNS_16PxSolverBodyDataES7_
m2g:__ZN17DispatcherServiceD2Ev
Wtp:_Path_WindowsDriveAdjustment_m26BE7BCFF0C5B8A204C27198A9EEFBFAE739C989
Gae:__ZN21InheritVelocityModule8TransferI17RemapPPtrTransferEEvRT_
gOp:_RenderTexture_get_descriptor_m67E7BCFA6A50634F6E3863E2F5BA1D4923E4DD00
sJg:_UNITY_tt_face_load_pclt
C3f:__ZN5physx2Sc14ConstraintCore10breakApartEv
wse:__ZN10ClipperLib7Clipper24InsertLocalMinimaIntoAELEx
O0p:_Interpreter_Eval_mA1AE4F0824B4EB8D0607C7C62A9640240BC8D2EC
vEp:_Int16_TryParse_mE781C6DAAE2701704CD3CE62D2B6BD1C6ECE5CA8
Izs:_Joint_get_connectedBody_m6CAB9002D1AAC30C6D5A7B88660C7713D8C34A73
xun:_ScrollRect_Rebuild_m21262D3A766822F8074A127B9FE1D878C49730CB
ixq:_Array_InternalArray__ICollection_CopyTo_TisTypeTag_t627F1F47026B116EDA89872C1D940B005B9CAAB2_m4225B33FC26E2C5FA2F27FAAB277901816D67CDD_gshared
uaq:_CharacterClass__cctor_m8A739B91E732CBA08928A70A9920F8BE0D026F83
VXl:_X509CertificateCollection_get_Item_m63EA4B3C74ED31D299338B2AFC66B86A670661E6
iZs:__ZN15dense_hashtableINSt3__24pairIK10KeyWrapperIP9FieldInfoEiEES5_N6il2cpp5utils11PointerHashIS3_EEN14dense_hash_mapIS5_iSB_NS5_14EqualsComparerINS0_8equal_toIS4_EEEENS0_9allocatorIS7_EEE9SelectKeyESG_SI_E12resize_deltaEjj
uwd:__Z46QualitySettings_Set_Custom_PropPixelLightCounti
Fip:_Enumerator_Dispose_mB001D46AE8F39885944BFFB478C4C8BDA307B506_AdjustorThunk
wLh:__ZL100PersistentCall_t31B1F798FEAFA4E42A665E2FFEB9A391FB086C41_CustomAttributesCacheGenerator_m_MethodNameP21CustomAttributesCache
K9p:_AnchorInfo_get_IsComplete_m3C5CF0F18AC947B27290BD6359DAE705A01367A2
$wp:_MemoryStream__ctor_m8A42A02BD85F3928E415E022073FC3FB24167001
c6q:_Enumerator_get_Current_m333B273D70C64C33A1E0621E745355C156EE8159_gshared
Z3g:__ZN14UnityAnalyticsD0Ev
Tls:_AudioExtensionManager_AddSpatializerExtension_m7CB5E033FF869B212B56D9180B460764BECBA3F4
aGs:_Physics2D_Raycast_mBEB66E9AA034BD0AE1B1C99DF872247B0131CBDD
tpl:_Camera_RenderWithShader_mBBC2FB93364A9FB8F24811EE13B0CFF6437EE37D
axn:_Scrollbar_get_stepSize_mE2C8B2DC9DA6C4102861FA6034D4C4A8FE5E84B8
weh:__ZN9Scripting11UnityEngine2XRL54__ManagedRegistrationHelperFunction_InputTrackingProxyEPv
Ls:__ZN14NavMeshManager11RestoreTileEii
kGf:__ZN5physx3Scb5Scene18processUserUpdatesINS0_10ConstraintEEEvRNS0_13ObjectTrackerE
H9n:_SortKey_GetHashCode_mD384B7E090C2DFB925B33385A3CBC6F1E33BE818
EJq:_U3CFOVKickUpU3Ec__Iterator0_MoveNext_mB86071AA0E429ADD064E97BF1DEF8726C102C9CB
Ydb:__ZNK17InstancingBatcher15RenderInstancesERK15RenderNodeQueuePK17BatchInstanceDataj16VertexInputMasksPFbPvS6_iR11MeshBuffersR16DrawBuffersRangeRiE
vC:__ZN9Scripting11UnityEngine12Experimental10Animations20AnimationStreamProxy12CleanupProxyEv
BC:__ZN9Scripting11UnityEngine15AvatarMaskProxy12CleanupProxyEv
y5m:_Array_BinarySearch_m8082FD036F52CE081F079EEC20765E2995E01FF1
Nhj:_InternalEnumerator_1_System_Collections_IEnumerator_get_Current_m630EFE68373999EE39E39410E5AFFB4DA04725FC_gshared
uEa:__ZN9Scripting11UnityEngineL52__ManagedRegistrationHelperFunction_ContextMenuProxyEPv
Y2m:_ActivationContext_Dispose_m81F87CCEA52AD6418D8F6A11D2907C86E375BA93
o1i:_InternalEnumerator_1_get_Current_m6A0D56EB4D4F0D70082AB9064CAEEFF9D1FC151D_AdjustorThunk
pAt:__ZN14dense_hash_mapI10KeyWrapperIP12Il2CppObjectEN6il2cpp2gc9CachedCCWENS4_5utils11PointerHashIS1_EENS3_14EqualsComparerINSt3__28equal_toIS2_EEEENSB_9allocatorINSB_4pairIKS3_S6_EEEEE6insertERKSI_
pNl:_HttpWebRequest_get_ServicePoint_m5F470E9FFB56C04E2001E4663E7F905E7C18E809
rYk:_LayoutRebuilder_Equals_m76052424C7D897C350B6682F7886365EBF22FD19
N3c:__ZZN9Transform15InitializeClassEvEN31FunctorImpl_133kDidAddComponent4CallEPviR11MessageData
dtf:__ZN5physx6shdfnd5ArrayINS_18PxClothFabricPhaseENS0_19ReflectionAllocatorIS2_EEE8recreateEj
VGb:__ZN26EnlightenSystemInformation8TransferI14SafeBinaryReadEEvRT_
yds:_AesTransform_SubByte_mC299A430DB005CB52705220176DBBB2A4214B408
mce:__ZN13InitialModule5ResetEv
EAm:_Array_InternalArray__IndexOf_TisClientCertificateType_t68CE7721CE0A63169F0EDD1920F72F5446A9A6A0_m08311F436D6471E541978332D49A9ADDD20F26EA_gshared
Qjc:__ZN22VertexDeclarationCacheC2Ev
wKa:__ZN9Scripting11UnityEngine9Rendering18CommandBufferProxy9InitProxyEv
LDf:__ZN5physx2Sq17SceneQueryManager11shiftOriginERKNS_6PxVec3E
vca:__ZN12AudioManager35GetCurrentSpatializerDefinitionNameEv
L6o:_EqualityComparer_1_System_Collections_IEqualityComparer_Equals_mA567EA0D3BB2711FDE3F6BEFC1F9E808AAB5F0A3_gshared
Dk:_utime
f2s:__ZN6il2cpp6icalls8mscorlib6System8MonoType18IsGenericParameterEPK10Il2CppType
qjt:__ZNSt3__26vectorIN6il2cpp2vm17TypeNameParseInfoENS_9allocatorIS3_EEE8allocateEj
Oyf:__ZN5physx3Scb5Scene11removeActorERNS0_11RigidStaticEbb
SAj:_ResourceSet_GetObject_m1DA3220218E50EB4B614476189617BFE5700A531
ALm:_NumberFormatter_ZeroTrimEnd_mCB582F935939ED22490D15A187560D355D03DC0D
Jn:FUNCTION_TABLE_viiiiif
DZf:__ZNK5physx2Bp30AggregateBoundsComputationTask7getNameEv
Xvq:_Dictionary_2_Remove_m4BC82BC7ED7578F6ED0EE0FCD3656AABD1830FEF_gshared
Nn:FUNCTION_TABLE_viiiiii
QKs:_NativeTypeAttribute__ctor_mF0E347C64A5AAF78A6FDB8EF2FDC39C0753B0211
OAl:_Logger_Log_mE06FF98F674C73E4BB67302E1EEDEA72F7655FF0
cjt:__ZNSt3__214__split_bufferIN6il2cpp2vm17TypeNameParseInfoERNS_9allocatorIS3_EEEC2EjjS6_
pp:__ZN12NavMeshAgent12AddToManagerEv
SJr:_GameController_Start_mAA45CBDCD61B1A09B070982E46089251BE984A0E
vEn:_ToggleGroup__ctor_m4191FA153CF9F46EC5CAE2332DD772C084430AB0
kq:__ZN12NavMeshAgent8TransferI19StreamedBinaryWriteEEvRT_
Oeg:__ZN5physx6shdfnd10FoundationD2Ev
KJb:__ZN14PlayableOutput17SetSourcePlayableEP8Playable
EPb:__ZNSt3__26vectorIN4core12basic_stringIcNS1_20StringStorageDefaultIcEEEE13stl_allocatorIS5_L18MemLabelIdentifier13ELi16EEE8__appendEj
_ba:__Z18RegisterUnityClassI9AudioClipEvPKc
r9l:__Z167RuntimeInvoker_FalseTimeSpan_t26DE4373EA745C072A5FBDEAD8373348955FC374_Double_t2011D65DAF7D1FCBE71DD4CBDFA69A8F24643159_Int64_tF61270729FC90F8A705A5FA6FE222C9644374ADFPFvvEPK10MethodInfoPvPS4_
WTb:__ZNK22MemoryCacherReadBlocks11GetPathNameEv
kW:__ZN7mecanim9animation29MotionOutputGetDeltaTransformEPKNS0_12MotionOutputE
Thm:__Z311RuntimeInvoker_TrueSByte_t50B643C59EE66E3364AED19D82E06B27BDE75268_Vector3_tDCF05E21F632FE2BA260C06E0D10CA81513E6720_Vector3_tDCF05E21F632FE2BA260C06E0D10CA81513E6720_Single_tF2613CF3F3AF0E8BEBC3CE8AD41479C44E6075DB_Int32_tC16F64335CE8B56D99229DE94BB3A876ED55FE87_Int32_tC16F64335CE8B56D99229DE94BB3A876ED55FE87PFvvEPK10MethodInfoPvPS4_
N$h:__ZL81Particle_t64AF74F5D9C7EE7018AD98F29E4FF653558A581E_CustomAttributesCacheGeneratorP21CustomAttributesCache
uqe:__ZN24b2ChainAndCapsuleContact8EvaluateEP10b2ManifoldRK11b2TransformS4_
Y9f:__ZN5physx2Gu15EdgeListBuilder4initERKNS0_14EDGELISTCREATEE
D6r:_GUIUtility_IsExitGUIException_mBCCE6118666769B8B767D74496E44D2ECC7AFDD2
ENo:_DSAManaged_Generate_m52C0BAA404328276C592C89B964BC69C3A8EF81D
iKf:__ZN5physx2Sc10NPhaseCoreD2Ev
kjf:__ZN5physx2Sc7BodySim18onConstraintDetachEv
COj:_AsyncResult_get_AsyncWaitHandle_m88D52944E84CDB464CD48F69C95C5FF73BA50EB3
Qzs:_Physics_Raycast_m511ECD9EF3223645EF104DDA50BB81C07F29717C
LSp:_Sprite_get_uv_mBD484CDCD2DF54AAE452ADBA927806193CB0FE84
L4s:__ZN6il2cpp2os4File9SetLengthEPNS0_10FileHandleExPi
vcp:_KeyValuePair_2__ctor_m3D26498C215BFEAED1D576FFB5BD048666A07789_AdjustorThunk
gvd:__Z37RenderTexture_CUSTOM_SetSRGBReadWriteP12Il2CppObjecth
q8t:_glGetShaderInfoLog__wrapper
yCf:__ZN5physx7NpScene8simulateEfPNS_10PxBaseTaskEPvjb
Llq:__Z60Transform_1_Invoke_m35A1B91285C5BB291C11F852C2AC85BF89C6E73DP53Transform_1_tF09EC178B44470AB7EE67C20747111E9C7A91D78P12Il2CppObjectS2_PK10MethodInfo
JLe:__ZN5physx2Gu13GeometryUnion3setERKNS_10PxGeometryE
IKc:__ZNK12ObjectHandleI17RenderSurface_TagP17RenderSurfaceBaseE7IsValidEv
oXq:_List_1_GetIndex_m4400826B8742714912C6519E905B667722FB4A6B_gshared
dDj:_SafeHandle_DangerousRelease_mEF3688C947BC4C02D5DB0BFAB8F3FC001CE3D78D
iVt:__ZN6il2cpp8metadata21Il2CppGenericInstHash4HashEPK17Il2CppGenericInst
x_c:__ZN9ShaderLab20SerializedSubProgram14ConstantBufferaSERKS1_
i6d:__Z25UpdateOrbitalAndRadialTplIL27ParticleSystemCurveEvalMode0ELS0_1ELS0_4EEvRK11MinMaxCurveS3_S3_S3_S3_S3_S3_R23ParticleSystemParticlesjjRKN4math8float3x3ERKNS6_7affineXERKNS6_7_float4E
UEl:_MonoBehaviour_Internal_IsInvokingAll_m44707A3C084E2CABC98FBCAF3531E547C6D59644
uqb:__ZN8PlayableD0Ev
yUs:__ZNK26InteropDataToTypeConverterclERK17Il2CppInteropData
Njg:__ZN9Rigidbody5SleepEv
aWq:_List_1_AddEnumerable_mC3D5AADFEA9E0E4DE22E5D435BE57C9BBBEA6051_gshared
KAr:_CustomAttributeData_UnboxValues_TisCustomAttributeNamedArgument_t98CF5ADD605D0BD45BB33196EF5C2FEE889B1328_m1E1B0981AF19441B173BDC112C6211C04278FC45_gshared
MLf:__ZNK5physx2Sq20ExtendedBucketPruner5sweepERKNS_2Gu9ShapeDataERKNS_6PxVec3ERfRNS0_14PrunerCallbackE
Cbq:_Uri_ParseUri_m16EDB1C6625420DDDFC2C9B92EB4ED009363DBE9
jQ:__ZNSt3__26vectorI14AnimationEvent13stl_allocatorIS1_L18MemLabelIdentifier27ELi16EEE10deallocateEv
cGn:_Kernel_DwordDivMod_m54FBBE53FC7C497171A5BB92777B6C2841791EAE
yQt:__ZN6il2cpp5utils16MemoryMappedFile5UnmapEPvx
QTa:__ZN9Scripting5Unity11Collections49NativeDisableParallelForRestrictionAttributeProxy9InitProxyEv
Z8j:_Convert_ToByte_m81EEFCEBFF563C8663689223ED8B400C0DB49B23
lcs:_KeyBuilder_get_Rng_mDA3E94354EF57BB2E89AAA6650063A98C654C36C
ghf:__ZN5physx18NpArticulationLink10clearForceENS_11PxForceMode4EnumE
A9k:_PropertyBuilder_GetGetMethod_m3049F1D65C52C65F52577E56D304D8F2DAA77145
jNe:__ZN5physx2Gu30distanceSegmentTriangleSquaredERKNS_6PxVec3ES3_S3_S3_S3_PfS4_S4_
X7k:__ZN62OpCodes_t68E6B52B0B80EC63090337A0C70E8CD9CC57F560_StaticFields19set_Conv_Ovf_U1_164E48OpCode_tFBF4FC2990E657EA00DA0BB36BE0CC73515E6511
D0h:__ZL97ContactFilter2D_t1BEAE75CCD5614B40E8AD9031BBD72543E2C37B4_CustomAttributesCacheGenerator_minDepthP21CustomAttributesCache
CUa:__ZN22LocalFileSystemHandler9MakeLocalER13FileEntryDatab
cmg:__Z52Register_UnityEngine_Rigidbody_get_position_Injectedv
Lzs:_Joint_set_anchor_Injected_mCDEEE334517B97D137C1AE4ADAAFAD9CD85399EB
sdp:__Z64KeyValuePair_2_set_Key_mB6F97822553C16A816A2D66A5E15F7E85D54900EP56KeyValuePair_2_t484F6F63FB83FDEB87DD414D94C67300D48FA9F1P12Il2CppObjectPK10MethodInfo
Zcr:_Collection_1__ctor_mAADA5B70897ADF785A8AB1CABF22FA06FBDB7FD8_gshared
VCa:__Z13FormatOrderedPKcz
qbo:_Guid_ToString_m1AC15C35E4AA491B74CC6BBFC77C13991CE0ED56
wqd:__Z14replace_stringIN4core12basic_stringIcNS0_20StringStorageDefaultIcEEEEEvRT_PKcS8_j
_zg:__ZN14SafeBinaryRead21TransferSTLStyleArrayI10vector_mapINSt3__24pairIttEEfN20TextRenderingPrivate8FontImpl14KerningCompareENS2_9allocatorINS3_IS4_fEEEEEEEvRT_17TransferMetaFlags
Ebf:__ZN5physx6shdfnd5ArrayIPNS_13PartitionEdgeENS0_19ReflectionAllocatorIS3_EEE8recreateEj
yoi:_ObjRef_set_EnvoyInfo_m94297F152CF3FC8F07E1E4C36C0FD0DAAFAAED2B
HMb:__ZN14CompressedMesh10GetQualityE15MeshCompression
SOc:__ZN25DeferredRenderLoopScratchD0Ev
xI:__ZN27AnimationLayerMixerPlayable14SetInputWeightEif
hXi:__ZN50Dropdown_tF6331401084B1213CAB10587A6EC81461501930F14set_m_Value_23Ei
mmp:_Enumerator_VerifyState_m6796AEFEFB51818A55DEEAE5BF68C77CA1A9BAB1_AdjustorThunk
mla:__ZN14PlayableOutput26ClearInvalidSourcePlayableEv
D4s:__ZN6il2cpp2osL14FindFileHandleERK4stat
zYp:_Vector3_Equals_m1F74B1FB7EE51589FFFA61D894F616B8F258C056_AdjustorThunk
pzl:_Graphics_SetRandomWriteTarget_mF9285868441414D453D3BA13FF6A933574A64F66
b7k:__ZN62OpCodes_t68E6B52B0B80EC63090337A0C70E8CD9CC57F560_StaticFields14set_Isinst_116E48OpCode_tFBF4FC2990E657EA00DA0BB36BE0CC73515E6511
T9g:__ZN21DownloadHandlerBufferD0Ev
LZc:__ZN15dense_hashtableINSt3__24pairIKiN4core17string_with_labelILi1EEEEEi18SInt32HashFunctionN14dense_hash_mapIiS5_S7_NS0_8equal_toIiEE13stl_allocatorIS6_L18MemLabelIdentifier1ELi16EEE9SelectKeyESA_SD_E9copy_fromERKSG_j
joa:__Z34UnregisterCreateThreadCallbackImplPFvPK23UnityProfilerThreadDescPvES2_
Yhb:__ZN6Camera11ResetAspectEv
XPb:__ZN15ResourceManagerD0Ev
zTt:__ZN6il2cpp6icalls8mscorlib6System10Reflection4Emit15AssemblyBuilder10basic_initEP47mscorlib_System_Reflection_Emit_AssemblyBuilder
_cb:__ZN22CreateGpuProgramOutputD2Ev
VPn:_ClientRecordProtocol_ProcessHandshakeMessage_m5477F03448B0AA8FBCF4AEE44C3BF9ADA6404EBE
tIe:__ZNK5physx3Cct15ObstacleContext14getNbObstaclesEv
xne:__ZN11ShapeModuleC2E10MemLabelId
UBk:__ZN64DepthOfFieldDeprecated_tAC860B00818E4166EF21705E026F45912F9DCF3319set_bokehSupport_35Eb
EKq:_U3CDoBobCycleU3Ec__Iterator0_Reset_m4E0F8EAB7E65C648A9EB40BC216C606FC4C70E71
n6c:__ZN11HaloManagerC2Ev
b8f:__ZN5physx6shdfnd8PoolBaseINS_11NpAggregateENS0_19ReflectionAllocatorIS2_EEE12allocateSlabEv
mCc:__ZN13dynamic_arrayI11ActiveLightLj0EE21resize_buffer_nocheckEj12ResizePolicy
GKq:_ObjectResetter_Start_mA5FBDB8DA3E650BE1923871AE0270B2E7114367F
nKi:_PointerInputModule_RemovePointerData_mD2FB032581DABA6134423CD21C23CD8A4F63E1B8
x5d:__Z25UpdateOrbitalAndRadialTplIL27ParticleSystemCurveEvalMode3ELS0_4ELS0_0EEvRK11MinMaxCurveS3_S3_S3_S3_S3_S3_R23ParticleSystemParticlesjjRKN4math8float3x3ERKNS6_7affineXERKNS6_7_float4E
mGn:_ModulusRing_BarrettReduction_m142CE69A27D5057340B5CC2FB0F866B1263F9EDC
c$g:__ZN11UnityEngine9Analytics18ConnectSessionInfo8TransferER9JSONWrite
R0c:__ZN9ShaderLab14SerializedPass8TransferI19StreamedBinaryWriteEEvRT_
Alp:_Enumerator_System_Collections_IEnumerator_get_Current_m96F41FCB5D0B6AA09CF00F9BE6F540239AD952DD_gshared
V4q:_List_1_System_Collections_IList_IndexOf_m4C4E9E84A661C8A7A785E3DDC5FC7E8C2035D09F_gshared
XTn:_DateTimeOffset__ctor_mC33BF2C095658CA4F8233AB55FD34E961DC8DAA8
UUa:__ZN12HandlerChain4OpenER13FileEntryData14FilePermission16FileAutoBehavior
eKc:__Z21CalculateSubMeshIndexRK15StaticBatchInfoi
x8s:__ZN15dense_hashtableINSt3__24pairIK10KeyWrapperINS1_IPK10MethodInfoP11Il2CppClassEEEjEES9_17ReflectionMapHashIS8_EN14dense_hash_mapIS9_jSD_NS9_14EqualsComparerINS0_8equal_toIS8_EEEENS0_9allocatorISB_EEE9SelectKeyESI_SK_E6insertERKSB_
DQa:__ZN9Scripting11UnityEngine12Experimental10PlayerLoop11EarlyUpdate30UpdateCanvasRectTransformProxy12CleanupProxyEv
hva:__ZN14FileCacherReadD2Ev
Znj:__Z105InternalEnumerator_1_System_Collections_IEnumerator_get_Current_m69586E15DAA700E1469439A96BE83F625527A594P62InternalEnumerator_1_t4117AE6CA85422218DBE4EACBAF144FEE592AB13PK10MethodInfo
iud:__Z50Register_UnityEngine_CullingGroup_FinalizerFailurev
xOt:_GC_should_invoke_finalizers
D5s:__ZNK15dense_hashtableINSt3__24pairIK10KeyWrapperINS1_IPK14Il2CppAssemblyP11Il2CppClassEEEjEES9_17ReflectionMapHashIS8_EN14dense_hash_mapIS9_jSD_NS9_14EqualsComparerINS0_8equal_toIS8_EEEENS0_9allocatorISB_EEE9SelectKeyESI_SK_E10test_emptyEj
FVh:__ZL169Behaviour_tBDC7E9C3C898AD8348891B82D3E345801D920CA8_CustomAttributesCacheGenerator_Behaviour_tBDC7E9C3C898AD8348891B82D3E345801D920CA8____isActiveAndEnabled_PropertyInfoP21CustomAttributesCache
oiq:_ShimEnumerator_Reset_m1D68B212803552B65B7572F7E794DA467ED31F6C_gshared
nTb:__ZN27UnloadUnusedAssetsOperationD0Ev
jHo:_SimpleCollator_GetContraction_m72F3251E2140673AE8CF7BA0892B20EAD4012072
Qud:__Z36Texture3D_CUSTOM_Internal_CreateImplP12Il2CppObjectiii14GraphicsFormat20TextureCreationFlags
h3s:__ZN6il2cpp6icalls8mscorlib6SystemL20GetMethodsByNameImplINS_5utils10functional6FilterINSt3__212basic_stringIcNS7_11char_traitsIcEENS7_9allocatorIcEEEENS4_13VmStringUtils23CaseInsensitiveComparerEEEEEP11Il2CppArrayPK10Il2CppTypejRKT_
oDc:__ZN28LightProbeProxyVolumeContextC2E10MemLabelId
btp:_BinaryWriter_Write_mD14EBB5EFA5AA415FFF1D6CEFB5E9BF4B835443A
rOf:__ZN5physx10PxsCCDPair12updateShapesEv
Qnp:_List_1_Insert_m4F042B978D06669229108BD18F44B48A375A89DE_gshared
L2e:__ZNK5physx3Ext5JointINS_15PxDistanceJointENS_30PxDistanceJointGeneratedValuesEE16getInvMassScale1Ev
t2:__GLOBAL__sub_I_Runtime_Video_0_cpp
SEa:__ZN9Scripting11UnityEngine12Experimental18GlobalIlluminationL53__ManagedRegistrationHelperFunction_LightmappingProxyEPv
f0j:_BitArray_Set_m91A5B81C900533BA0C66E7157C413F9FFAA547BE
W7o:_EqualityComparer_1_System_Collections_IEqualityComparer_Equals_mBD9556CF793DD2472A1661043622E2A32CD60619_gshared
pup:_Path_GetDirectoryName_mD6E683FBB830823716B929A89658DA891584E8A9
Ket:__ZNK15dense_hashtableINSt3__24pairIK10KeyWrapperIPK22Il2CppGenericParameterEPK24MonoGenericParameterInfoEES6_N6il2cpp5utils11PointerHashIS4_EEN14dense_hash_mapIS6_SA_SF_NS6_14EqualsComparerINS0_8equal_toIS5_EEEENS0_9allocatorISB_EEE9SelectKeyESK_SM_E3endEv
PX:__ZN26AnimatorOverrideController23VirtualRedirectTransferER24GenerateTypeTreeTransfer
FAm:_Array_InternalArray__IndexOf_TisBoolean_t92E4792324DA9B716F339A3B965A14965E99A4EF_mC341A62D545AB50753279738B6484978EBF7F718_gshared
muf:__ZN5physx2Sc9ClothCore22removeCollisionCapsuleEj
qwd:__Z70Register_UnityEngine_Playables_PlayableHandle_GetPlayableType_Injectedv
E7:__ZN5audio5mixer22UpdateAudioMixerMemoryERKNS0_18AudioMixerConstantERNS0_16AudioMixerMemoryEfPN4FMOD6SystemEf
qh:_glCopyTexSubImage2D
cFs:_RectTransformUtility_FlipLayoutAxes_mF5D9BF9F0EACBC972A22C937FD21B610410EB956
R1d:__ZNK21RotationBySpeedModule6UpdateERK27ParticleSystemReadOnlyStateRK19ParticleSystemStateR23ParticleSystemParticlesRKN4math7_float4Ejj
ILo:_BigInteger_GeneratePseudoPrime_mDD282A4A1FCE9545ACA60D6C0B3985DF3C43AA1B
pui:_MessageFormatter_ReadMethodResponse_m8466ADB9F72380A8193023D8968D4CE8C52F25CD
sst:__ZN6il2cpp6icalls8mscorlib6System13Globalization11CultureInfo23construct_number_formatEP17Il2CppCultureInfo
jJp:_Quaternion_Inverse_Injected_m1CD79ADF97C60D5645C15C5F04219021EE4654DD
Rsl:_Display_get_systemHeight_m0D7950CB39015167C175634EF8A5E0C52FBF5EC7
hVr:_UnityAction_2_Invoke_m4E5A5335E63C942B335D047296080EB8DA73FB99_gshared
Mea:_RegisterModule_Audio
ELl:_WebHeaderCollection__ctor_mDB5744F56B19BD73FD74593EB9E4818A44490A2D
Ruc:__ZN13DrawImmediateC2ER9GfxDevice
Fqb:__ZN10GUIElement12AddToManagerEv
Tif:__ZN5physx6shdfnd5ArrayIPNS_3Scb5ShapeENS0_15InlineAllocatorILj16ENS0_19ReflectionAllocatorIS4_EEEEE15growAndPushBackERKS4_
e0b:__Z18Transfer_BlittableI14SafeBinaryReadLb0E5RectTIfEEvRK29SerializationCommandArgumentsR31RuntimeSerializationCommandInfo
Jet:__ZNK15dense_hashtableINSt3__24pairIK10KeyWrapperIPK22Il2CppGenericParameterEPK24MonoGenericParameterInfoEES6_N6il2cpp5utils11PointerHashIS4_EEN14dense_hash_mapIS6_SA_SF_NS6_14EqualsComparerINS0_8equal_toIS5_EEEENS0_9allocatorISB_EEE9SelectKeyESK_SM_E5beginEv
eIg:_otv_u_C_x_Ox
vWt:_fmt_o
abc:__ZL22Transfer_ManagedObjectI18StreamedBinaryReadLb1EEvRK29SerializationCommandArgumentsR31RuntimeSerializationCommandInfo
NJm:_NumberFormatter_DecHexLen_m553D9E947B6767B77FEC28D78BBDF49DB9F1083F
NJf:__ZN5physx17PxcNpMemBlockPool18swapNpCacheStreamsEv
Ymd:__ZN17AnimationCurveTplIfE16StripInvalidKeysEv
V_r:_GUIStyle_SetDefaultFont_m09D149F682E885D7058E3C48EB42C9E62363E381
KRt:__ZN6il2cpp2os9MutexImplC2Ev
XAq:_Array_Sort_TisRuntimeObject_mB8DD3DC7862BC461929012CB288F4888A55A5BD4_gshared
qno:_String_LastIndexOfUnchecked_m8F7FBFDC669DC424D12B8D00228C9D7964B6E1CC
Dbk:_Convert_ToInt64_m365DC01157FC12CF7012217E8ED4C52B8AEAB91E
NUg:__ZNK2UI6Canvas17GetSortingLayerIDEv
Mkh:__ZL104CompilationRelaxationsAttribute_t6D9680843B2A17240A8D1DED2794FC2770BC9245_CustomAttributesCacheGeneratorP21CustomAttributesCache
Ybd:__ZL12HashLen0to16PKcj
Mwe:__ZN14Raycast2DQuery8RunQueryEb
cJb:__ZN8Renderer24SetupNewRendererForSceneEv
vNt:_GC_check_leaked
__c:__ZNSt3__26vectorIN9ShaderLab20SerializedSubProgram12UAVParameterENS_9allocatorIS3_EEEC2ERKS6_
xUc:__ZN13ModuleManager4LoadEv
Omp:__Z95Enumerator_System_Collections_IEnumerator_get_Current_m05DA4905A92182F4D603D7FC483E157402E761A5P52Enumerator_tE65C11556BBD9F798E087A6E883C54806FBF0EABPK10MethodInfo
INd:__ZN5IMGUI18RepaintModalWindowER8GUIState
I9r:_UInt64_System_IConvertible_ToSByte_mCD877C98892D8E552D6A16977E27958F775A249A
d8s:__ZN15dense_hashtableINSt3__24pairIK10KeyWrapperIPK10Il2CppTypeEjEES6_N6il2cpp8metadata14Il2CppTypeHashEN14dense_hash_mapIS6_jSB_NS6_14EqualsComparerINSA_26Il2CppTypeEqualityComparerEEENS0_9allocatorIS8_EEE9SelectKeyESF_SH_E21fill_range_with_emptyEPS8_SL_
cyp:_MemoryStream_CheckIfClosedThrowDisposed_mA95053D28E80A1AE50DF84984DC178BD5E97F788
vUd:__Z35Transfer_Blittable_FixedBufferFieldI8JSONReadtEvRK29SerializationCommandArgumentsR31RuntimeSerializationCommandInfo
U_f:__ZN5physx2Sc8ClothSim16addCollisionMeshEPKNS0_8ShapeSimE
Grd:__ZN14PlayableOutput6HandleEv
Wtb:__ZNK6Sprite22GetTypeVirtualInternalEv
aT:__ZN7mecanim5human9HumanGoal8TransferI19StreamedBinaryWriteEEvRT_
PDi:_EventSystem_ToString_m0AB5022336D70414DB9902C681D42FC2F6CF27E6
xm:FUNCTION_TABLE_iiiiiiiiiiiiii
hxg:__Z20GetTerrainModuleSpecv
f3f:__ZN5physx6shdfnd5ArrayIPKNS_10PxsCCDBodyENS0_19ReflectionAllocatorIS4_EEE8recreateEj
VBp:_SynchronizedWriter_Write_mEE0F6470993B0F85691915BE1E488FBACF0FA49E
lZp:_Vector4_set_Item_m56FB3A149299FEF1C0CF638CFAF71C7F0685EE45_AdjustorThunk
Oif:__ZN5physx6shdfnd4sortINS_2Cm19PreallocatingRegionENS0_4LessIS3_EENS0_19ReflectionAllocatorIS3_EEEEvPT_jRKT0_RKT1_j
JFn:_BigInteger_ToString_mC24796F99A90BAA2E01F1724ED589C69766555B1
pmn:_StencilMaterial_Add_mC19552F6DF05D4C1E20F41BA0AAED09883058053
Dlb:__ZN11Tetrahedron8TransferI24GenerateTypeTreeTransferEEvRT_
U7q:_Enumerator_MoveNext_mFAB44088609470D4846AE4C8BA145542116F0408_gshared
XIg:_UNITY_tt_get_cmap_info
O5k:__ZN62OpCodes_t68E6B52B0B80EC63090337A0C70E8CD9CC57F560_StaticFields12set_Bgt_S_47E48OpCode_tFBF4FC2990E657EA00DA0BB36BE0CC73515E6511
$6b:__Z29Transfer_Blittable_ArrayFieldI24GenerateTypeTreeTransfer5RectTIiEEvRT_R9ArrayInfoRK23StaticTransferFieldInfo
Okb:__ZN16ReflectionProbes8ScheduleEN18ReflectionProbeJob7JobTypeEP15ReflectionProbei
Dcr:_Collection_1_Add_m5F839E9D9DA63252C4E8DB57869E2FDA39B238EA_gshared
pha:__GLOBAL__sub_I_LogAssert_cpp
MQa:__ZN9Scripting11UnityEngine12Experimental10PlayerLoop11EarlyUpdate29SpriteAtlasManagerUpdateProxy9InitProxyEv
FMc:__ZN8Vector3fmIERKS_
mwa:__ZN16MessageForwarder13HandleMessageEPviR11MessageData
dRa:__ZN9Scripting11UnityEngine12Experimental10PlayerLoop11EarlyUpdate29PollHtcsPlayerConnectionProxy12CleanupProxyEv
gOt:_GC_exclude_static_roots_inner
_Qg:__ZN2UI13CanvasManagerD2Ev
H_s:_RemoteSettings_RemoteSettingsBeforeFetchFromServer_mBF1BEF2ACAFE13AE7B820FCA5CB7B81CF614EF11
Wnr:_ReadOnlyCollection_1_IndexOf_mAD934722022E7D338B109B765E519CF212701EE4_gshared
Qme:__ZZN14ParticleSystem15InitializeClassEvEN52PreLateUpdateParticleSystemBeginUpdateAllRegistrator7ForwardEv
dLp:_Vector2__ctor_mEE8FB117AB1F8DB746FB8B3EB4C0DA3BF2A230D0
j_q:_List_1_System_Collections_IList_Insert_mD5C7A281E9F8F06CCEB4B039B59038927BE99CCA_gshared
JCg:_UNITY_FT_GlyphLoader_Done
Ekl:_UnsafeUtility_GetReasonForTypeNonBlittableImpl_m8ED27B0E929F764C6A75971117783802277AE5C2
VJd:__ZN14CrashReporting13CrashReporter22OnPlaymodeStateChangedEv
pMe:__ZN15MeshRayCollider10collideOBBERKN5physx2Gu3BoxEbPKNS1_17RTreeTriangleMeshERNS1_15MeshHitCallbackINS0_12PxRaycastHitEEEb
Y0e:__ZN19CharacterController12SetIsTriggerEb
alk:_RigidbodyFirstPersonController_get_Velocity_mA3844E469740CF2B014878B8BF192EF385675B28
xzl:_Input_GetKeyDownInt_m87B29738C0DD59D90CF4661004F090CB697BDC0C
MAr:_Component_GetComponents_TisRuntimeObject_mC1990520B7718DB9F2D68839716E6853645566FC_gshared
exe:__ZN19OverlapPointQuery2D14InitializeAABBER6b2AABB
bpj:_InternalEnumerator_1_System_Collections_IEnumerator_Reset_mD17A556C02E36CB3A81C8EE62EBA058C0B47E1A4_AdjustorThunk
e2l:__Z175RuntimeInvoker_TrueVoid_tDB81A15FA2AB53E2401A76B745D215397B29F783_Int32_tC16F64335CE8B56D99229DE94BB3A876ED55FE87_RuntimeObject_Int32_tC16F64335CE8B56D99229DE94BB3A876ED55FE87PFvvEPK10MethodInfoPvPS4_
Bfj:__Z71InternalEnumerator_1_MoveNext_mF4EC77C6AD6CDFD602E3C9938CCDA718C48F0A41P62InternalEnumerator_1_t2BA2153AEF70C157B941D1D555132CFAB2A2D33FPK10MethodInfo
Lzg:__ZN9Scripting11UnityEngine18CharacterInfoProxy12CleanupProxyEv
WJg:_tt_cmap14_char_var_index
FYi:_Dropdown_Hide_mBFF60EE895F021B158F05DD88A16825A04610D53
i5k:__ZN62OpCodes_t68E6B52B0B80EC63090337A0C70E8CD9CC57F560_StaticFields15set_Ldarga_S_15E48OpCode_tFBF4FC2990E657EA00DA0BB36BE0CC73515E6511
fno:_String_IndexOfAny_m1CE43156DF9874B4DBA893DF38F8A2F6D1005F51
mLj:_CrossContextChannel_AsyncProcessMessage_m17D8137CF9BB5AA1786E8598401DE7391702AFF3
aOg:_psh_globals_new
foe:__ZN5Unity9rapidjson15GenericDocumentINS0_4UTF8IcEE13JSONAllocatorS4_E12GetAllocatorEv
gIo:_Context__ctor_m43D38F662686D1619D5D30CAA58F312F4B6D3E1B
Uwj:__Z62KeyValuePair_2__ctor_mD05A8061D51CD1204BFAF799CBD111D915723DF5P56KeyValuePair_2_t211D421912B3331C4F2A9898273FF90BDC47820BP12Il2CppObjectbPK10MethodInfo
fZa:__ZN9GfxDevice20SetMaxBufferedFramesEi
F9j:_DateTime_DaysInMonth_m7DB2C1552119C2C84FA211D36913E5279FF132D1
_xa:__ZN24StaticInitializeInternal13ConstructTypeI22ThreadSharedObjectPoolI26ScriptableShadowCasterDataELb1EEEPvS4_10MemLabelId
HOp:_RenderTexture_GetDepthBuffer_Injected_m959D30DC591570D9E1558DCA2BC38ED8C29AE97D
ste:__ZN10Collider2D19WakeAllBodyContactsEv
LWt:___lctrans_impl
rR:__ZNSt3__26vectorI24CompressedAnimationCurve13stl_allocatorIS1_L18MemLabelIdentifier27ELi16EEE6assignINS_11__wrap_iterIPS1_EEEENS_9enable_ifIXaasr21__is_forward_iteratorIT_EE5valuesr16is_constructibleIS1_NS_15iterator_traitsISB_E9referenceEEE5valueEvE4typeESB_SB_
LWc:__Z23ConvertIntegerToTypePtrIsEbPvR14SafeBinaryRead
Zzs:_PhysicsScene_Internal_Raycast_m2769B78FDCAA21C6F609DD709BADFF6F4B07C529
Mre:__ZN12b2MouseJoint11ShiftOriginERK6b2Vec2
fio:_EvidenceEnumerator_MoveNext_m80E779DEB87EE3105D418F6F49B35785A9D17B8C
gHs:_Rigidbody2D_set_velocity_Injected_m8DCAEDCB8C0165DCEC87B70089C7B4EA41FEB73E
Bqj:__Z71InternalEnumerator_1_MoveNext_mEE583B043C68350130207940A59E33E94A4CFD47P62InternalEnumerator_1_t4E917716AD88E88E998F058164373A77EB2AE64FPK10MethodInfo
t2a:__ZN13dynamic_arrayI19ComputeShaderKernelLj0EED2Ev
kNp:_Transform_get_localToWorldMatrix_mBC86B8C7BA6F53DAB8E0120D77729166399A0EED
iue:__ZNK16PhysicsManager2D27IsDefaultPhysicsSceneHandleEi
uCn:_Text_set_resizeTextForBestFit_m5C2AE30EC63988D878AD0FC3D10EC26E91B572FB
xBm:_Array_InternalArray__IndexOf_TisRaycastResult_t991BCED43A91EDD8580F39631DA07B1F88C58B91_mF95B59169AB6CAA29820BF7A1ED392B73B284B22_gshared
BKn:_PrivateKeyInfo__ctor_m39B432D60FC09A3638D6DACD18F71160089DB518
Cld:__ZN4Mesh24UpdateSubMeshVertexRangeEi
Rlj:_InternalEnumerator_1_System_Collections_IEnumerator_get_Current_m38C598CEA86501D2EB15651ABA741DB347051458_gshared
Ptf:__ZNK5physx2Sc9ClothCore25getSelfCollisionStiffnessEv
T$d:__Z13UpdateSizeTplIL27ParticleSystemCurveEvalMode3EEvRK11MinMaxCurveR23ParticleSystemParticlesbjj
Rgh:__ZL84_MemberInfo_tD494011FF6DD680DCF2FAD3819E0A7C2690BD771_CustomAttributesCacheGeneratorP21CustomAttributesCache
Qw:__ZN15NavMeshObstacle11UpdateStateEv
j5s:__ZNK15dense_hashtableINSt3__24pairIK10KeyWrapperINS1_IPK14Il2CppAssemblyP11Il2CppClassEEEjEES9_17ReflectionMapHashIS8_EN14dense_hash_mapIS9_jSD_NS9_14EqualsComparerINS0_8equal_toIS8_EEEENS0_9allocatorISB_EEE9SelectKeyESI_SK_E12test_deletedEj
ZSt:__ZN6il2cpp2os9FastMutex4LockEv
m$p:_FactoryCache_Cleanup_mD7FF7157BA7B942F2300125113A45CEA4F07BD6E
ZNc:__ZNK14RenderSettings19GetFlatAmbientColorEv
Awb:__ZN6prcoreL10inner_flipILj4EEEvPhS1_j
HIl:_HybridDictionary_GetEnumerator_m07698EC43AA80EB0DB933451AA9F7F945D91FD2D
fDe:__ZZN11Rigidbody2D15InitializeClassEvEN35FunctorImpl_174kAnimatorMoveBuiltin4CallEPviR11MessageData
AK:__ZNK27StateMachineBehaviourPlayer15IsSenderEnabledEv
R4k:_OpCode_get_Value_mF73D06FB2D1BE2E7F842323C024D6FDB82E9AA81_AdjustorThunk
tGj:_CrossAppDomainChannel_get_ChannelPriority_m607C296BC050A6C355EDE1307528715E94B4DE53
OHe:__ZThn4_N5physx3Cct26CharacterControllerManager9onReleaseEPKNS_6PxBaseEPvNS_19PxDeletionEventFlag4EnumE
I1m:_AttrListImpl_Clear_m0DF3DAD3B1805027EEB6B0A251BB1E4903539304
Qvi:_ObjectReader_ReadTypeMetadata_m058540BD1DE2B294DA2F3A8339B6E04F1A35EBCF
hFh:__ZL79Shader_tE2731FF351B74AB4186897484FB01E000C1160CA_CustomAttributesCacheGeneratorP21CustomAttributesCache
e9e:__ZN5physx2Sc10NPhaseCore16lostTouchReportsEPNS0_16ShapeInteractionEjjRNS_31PxsContactManagerOutputIteratorEb
KFd:__Z40Register_UnityEngine_Transform_SetParentv
HWe:__ZN21BoxTraceSegmentReport11finalizeHitERN5physx10PxSweepHitERKNS0_21PxHeightFieldGeometryERKNS0_11PxTransformES8_RKNS0_2Gu3BoxERKNS0_6PxVec3Eff
yMh:__ZL155AnimationCurve_tD2F265379583AAF1BF8D84F1BB8DB12980FA504C_CustomAttributesCacheGenerator_AnimationCurve_get_length_m36B9D49BCB7D677C38A7963FF00313A2E48E7B26P21CustomAttributesCache
U4n:__ZN46Data_t1A887404FF0C7ECA906E4BE148A318DE5EFB167614set_list_sep_4Eh
AGp:_Int64_ToString_m8CCAB5C9D0E73A8D2039FD3700006C9F90C4B65E
U0n:_Double_Parse_mCB486099668D3B7B891097784668E4666E3B106D
pGb:__ZN14Texture2DArray17UploadToGfxDeviceEv
p4l:__Z122RuntimeInvoker_TrueRuntimeObject_RuntimeObject_Int32_tC16F64335CE8B56D99229DE94BB3A876ED55FE87_RuntimeObject_RuntimeObjectPFvvEPK10MethodInfoPvPS4_
ocm:__Z171RuntimeInvoker_FalseMatrix4x4_t6BF60F70C9169DF14C9D2577672A44224B236ECA_Matrix4x4_t6BF60F70C9169DF14C9D2577672A44224B236ECA_SByte_t50B643C59EE66E3364AED19D82E06B27BDE75268PFvvEPK10MethodInfoPvPS4_
r6:__Z14FMODMemoryFreePvjPKc
MMc:__Z3maxRK8Vector3fS1_
EJj:_LifetimeServices_set_LeaseTime_m8EC350B31785227F765062C380FAF767ABF994BC
p1n:_Enum__cctor_m4A403014B3A0F519F10805FD93D0400211E161D7
W4h:__ZL86PositionAsUV1_t26F06E879E7B8DD2F93B8B3643053534D82F684A_CustomAttributesCacheGeneratorP21CustomAttributesCache
ap:__ZN12NavMeshAgent10SmartResetEv
MDn:__ZN18VirtActionInvoker3IffbE6InvokeEjP12Il2CppObjectffb
Yjp:__Z61Enumerator_MoveNext_mA20EC9F84EC1FB16B5718339EABFC7453625EF01P52Enumerator_tAE2CDFF1624D7D03322ABF5ECA6BE02364C441A3PK10MethodInfo
oFg:_cf2_glyphpath_moveTo
Gwi:_BinaryFormatter_WriteBinaryHeader_m3E766385F696795C12EDCECC6172F0447182AD20
LJh:__ZL90PreserveAttribute_t864F9DAA4DBF2524206AD57CE51AEB955702AA3F_CustomAttributesCacheGeneratorP21CustomAttributesCache
gGf:__ZN5physx3Scb4Body9syncStateEv
Khl:_TypeDelegator_get_BaseType_mDF0FC089E476E893F1B0F27FA0969CB0E95C6542
swn:_ScrollRect_UpdateScrollbarLayout_m8267AFEAB72E362ECC807A03BFC759FF64A7FDAF
$Ph:__ZL140Mesh_t6106B8D8E4C691321581AB0445552EC78B947B8C_CustomAttributesCacheGenerator_Mesh_Internal_Create_mF1F8E9F726EAC9A087D49C81E2F1609E8266649EP21CustomAttributesCache
uvd:__Z51Register_UnityEngine_Texture_get_texelSize_Injectedv
hgg:__ZN5physx19general_PxIOStream216PxFileBufferBase8seekReadEj
lIt:__ZN24dense_hashtable_iteratorINSt3__24pairIK10KeyWrapperIPK19Il2CppGenericMethodEP10MethodInfoEES6_N6il2cpp8metadata23Il2CppGenericMethodHashEN14dense_hash_mapIS6_S9_SD_NS6_14EqualsComparerINSC_26Il2CppGenericMethodCompareEEENS0_9allocatorISA_EEE9SelectKeyESH_SJ_EC2EPK15dense_hashtableISA_S6_SD_SL_SH_SJ_EPSA_SR_b
tgb:__ZN11HaloManager7AddHaloENS_9OwnerTypeE
Qps:_AnimatorControllerPlayable_Equals_m04685CCA5A5FC388A0387D3453A677C0CB47D173
XCp:_UnmanagedMemoryStream_get_CanSeek_m5840ED86007F89E255AE2CFED2B38B91D1ADE2EE
CG:__ZN7mecanim23TransformValueArrayLoopEiiiRKN4math4trsXES3_RNS_10ValueArrayEf
P1j:_Comparer__cctor_mD913B1ED972A3B93A089D13B763D785CE5D190A8
KNd:__ZN5IMGUI14GUIWindowStateD2Ev
zld:__ZN4Mesh17SetIndicesComplexEPKvjj16GfxPrimitiveTypeij
$6j:_Enumerator_MoveNext_m6C877C52353FE27D73CE344E7813ED3E59E8E5B9
$Ot:_GC_is_heap_ptr
Vot:__GLOBAL__sub_I_Assembly_cpp
qCn:_Text_set_text_mBE035FDBA5FF5D79CC1A6C191D52D6BB94794C36
zzn:_Selectable_DoStateTransition_m10BB6A589042BC2348AA26B23BFE8BDA7FA2A015
nKn:_EncryptedPrivateKeyInfo__ctor_m4253D8C1ECC33E1463D3C0CEF67F1977458C64AA
rfk:_DateTime_ToBinary_mE76A986010087808551D874305294B11B5681209
wdc:__ZN10MonoScript8TransferI19StreamedBinaryWriteEEvRT_
bic:__Z21PlayerStartFirstSceneb
_1g:__ZN17DispatcherService14SetServiceInfoENS_11ServiceTypeE
jV:__ZN7mecanim5human10RetargetToEPKNS0_5HumanEPKNS0_9HumanPoseES6_RKN4math4trsXEPS4_PNS_8skeleton13SkeletonPoseTIS8_EESF_
wG:__ZN7mecanim9animation8SeekClipERKNS0_12StreamedClipERNS0_18StreamedClipMemoryEf
Jcg:__ZZL16BuildBV4InternalRN5physx2Gu7BV4TreeERKNS0_8AABBTreeEPNS0_10SourceMeshEfEN5Local6_CheckEPNS0_12AABBTreeNodeE
Ywi:_ObjectWriter_WriteObject_m9F69D60E3989DEE57B25EA0458B908F71AEA3A30
vR:__ZN24CompressedAnimationCurveaSERKS_
jYh:__ZL62g_UnityEngine_AIModule_Assembly_CustomAttributesCacheGeneratorP21CustomAttributesCache
VLg:_ft_var_readpackeddeltas
Trg:__ZN9Heightmap16CheckConsistencyEv
Zjh:__ZL88ConstructorInfo_t5B00C69C522F494B70DBB2BEB9C4C3424CDCB184_CustomAttributesCacheGeneratorP21CustomAttributesCache
iHs:_Rigidbody2D_AddForce_m09E1A2E24DABA5BBC613E35772AE2C1C35C6E40C
Txj:_Enumerator_get_CurrentValue_m80F1C1BD2ED42B98F234A0D5E5AB82F749AAFECE_gshared
h7m:_HttpsClientStream__ctor_m9B37E2C165FBB7ADEA4AF95FFBBE4CF24B163C33
Wbs:_WeakReference__ctor_m08834282FB2323A002C2C2179CF6D89A12AB531E
a1o:_RNGCryptoServiceProvider_GetNonZeroBytes_m9BAE45DBE27421698794880E2068F727F15CF9CD
pe:_SDL_UpperBlit
Ckb:__Z35GetTextureDecodeValuesWithIntensity16TextureUsageMode17TextureColorSpace10ColorSpacef
Qmp:_Enumerator_Dispose_m778EF91E7A7A9665C0DBFC950EF3D0F642579AF8_AdjustorThunk
QMa:__ZN9Scripting11UnityEngine12Experimental9Rendering16CullResultsProxy9InitProxyEv
w7e:__ZNK5physx7NpShape16getContactOffsetEv
Bf:__inet_ntop6_raw
EAj:_ResourceSet__ctor_mCF57375B51E57E905B3263CF390FC43089E0AA98
JOk:_Image_RadialCut_m1F2874BB2EE7882B9F9AD1EAA4E330942D6738AA
xgg:_PxCreateCooking
h9c:__ZN33ScriptableRuntimeReflectionSystem15InitializeClassEv
sec:__ZN14SafeBinaryRead20OverrideRootTypeNameEPKc
eGm:_MonoCustomAttrs_GetBase_m522A20D472D3E54EF0E7EAFA840EAB317FACFC3A
L2r:_GUILayoutGroup_SetVertical_m29D8744D2D1464EF4E6E4008CD21F5E44D6CB146
i$l:__Z116RuntimeInvoker_FalseSByte_t50B643C59EE66E3364AED19D82E06B27BDE75268_Single_tF2613CF3F3AF0E8BEBC3CE8AD41479C44E6075DBPFvvEPK10MethodInfoPvPS4_
lva:__ZN14FileCacherRead16UnlockCacheBlockEj
Uek:_DateTime_get_DayOfWeek_mFD2D84C8962BB15BA971DFBE811FAF7531D77894_AdjustorThunk
ITt:__ZN6il2cpp2os16ReaderWriterLock10LockSharedEv
rY:__ZN26AnimatorOverrideController8TransferI24GenerateTypeTreeTransferEEvRT_
eQa:__ZN9Scripting11UnityEngine12Experimental10PlayerLoop11FixedUpdate24DirectorFixedUpdateProxy9InitProxyEv
Ycg:__ZN5physx2Gu11BuildBV32ExERNS0_8BV32TreeERNS0_10SourceMeshEfj
oBl:_Material_SetColorImpl_Injected_mEE762DBD0B37ACA313061179B3CB767B59E4B0FB
dpa:__ZN10InstancingL21OnGraphicsCapsChangedEv
nfj:_InternalEnumerator_1_System_Collections_IEnumerator_Reset_mCDDC6D8DCB9B54EBD263515130E875766FB06F87_AdjustorThunk
P5j:_QueueEnumerator_MoveNext_m1010DE28D6A3B178C647338068F2E15E10E3042F
pIm:_MonoType_get_BaseType_m2B68D180D7076DE93EB847BEDA544596C484E0C1
GMi:_StandaloneInputModule_SendSubmitEventToSelectedObject_mDF9122A384B1A2AF5E1C28F30963D7F802AB6411
s7h:__ZL101InputField_t533609195B110760BCFF00B746C87D81969CB005_CustomAttributesCacheGenerator_m_HideMobileInputP21CustomAttributesCache
aLc:__ZNK13dynamic_arrayI13ShadowedLightLj0EEixEj
n9d:__ZN14SafeBinaryRead21TransferSTLStyleArrayI13dynamic_arrayIN8UVModule10SpriteDataELj0EEEEvRT_17TransferMetaFlags
NAl:_Logger_Log_m653FDC5B68CB933887D8886762C7BBA75243A9AF
uDg:__Z20ParseImageParametersR11UTF16StringRiRN20TextRenderingPrivate16TextFormatChangeE
IUn:_DateTimeUtils_GetStandardPattern_m9A77355D54169D35496B7084B9E897B0C579108D
Pen:_TlsClientSettings_set_Certificates_mA68A1495D0FE23ED01E584A375015055F26A110E
mxq:_Array_InternalArray__ICollection_CopyTo_TisMark_t6F95F4C0F20F9D6B1059C179A2E3940267A6672F_m1D0667C897EA145D30031A807474827BB4E65B66_gshared
WYd:__ZN9Scripting11UnityEngine27ParticleSystemRendererProxy12CleanupProxyEv
_Ul:_X509Certificate2_AppendBuffer_m33D773BA3455CDD9FCD81882BDFD83647106F123
d1s:__ZN6il2cpp5utils9PathUtils8BasenameIcEENSt3__212basic_stringIT_NS3_11char_traitsIS5_EENS3_9allocatorIS5_EEEERKSA_
i8l:__Z371RuntimeInvoker_FalseInt32_tC16F64335CE8B56D99229DE94BB3A876ED55FE87_RuntimeObject_Int32_tC16F64335CE8B56D99229DE94BB3A876ED55FE87_Int32_tC16F64335CE8B56D99229DE94BB3A876ED55FE87_Int32_tC16F64335CE8B56D99229DE94BB3A876ED55FE87_SByte_t50B643C59EE66E3364AED19D82E06B27BDE75268_SByte_t50B643C59EE66E3364AED19D82E06B27BDE75268_VoidU2A_t8A995245462F8BDC7319CC68F09ACF295FDD2879PFvvEPK10MethodInfoPvPS4_
z5b:__Z18Transfer_BlittableI24GenerateTypeTreeTransferLb1EN4math12int3_storageEEvRK29SerializationCommandArgumentsR31RuntimeSerializationCommandInfo
Eoa:__Z33UnregisterDeviceEventCallbackImplPFv23UnityGfxDeviceEventTypeE
$un:__Z14bankers_roundff
yHe:__ZN5physx3Cct26CharacterControllerManager16createControllerERKNS_16PxControllerDescE
xfq:__Z61Enumerator_MoveNext_m0D3556DA3C04E5F428BA6468B68218BAFB5842C9P52Enumerator_tFD8F5FC7F117EBD261480046D7F0317A38141401PK10MethodInfo
fZf:__ZN5physx2Sc15SqBoundsManagerC2Ev
PMf:__ZN5physx2Sq16BucketPrunerCore12updateObjectERKNS_9PxBounds3ERKNS0_13PrunerPayloadE
mSt:__ZN6il2cpp2os12Cryptography23GetCryptographyProviderEv
RXj:_Char_System_IConvertible_ToInt64_mE9253B17C790ABD859A40D2C63257E628718DD1C
OMs:__ZN24dense_hashtable_iteratorINSt3__24pairIK10KeyWrapperIPK22Il2CppGenericParameterEP11Il2CppClassEES6_N6il2cpp5utils11PointerHashIS4_EEN14dense_hash_mapIS6_S9_SE_NS6_14EqualsComparerINS0_8equal_toIS5_EEEENS0_9allocatorISA_EEE9SelectKeyESJ_SL_E30advance_past_empty_and_deletedEv
tRk:__ZNK52InputField_t533609195B110760BCFF00B746C87D81969CB00521get_m_AsteriskChar_24Ev
z$g:__ZN8JSONRead19TransferSTLStyleMapINSt3__23mapIN4core12basic_stringIcNS3_20StringStorageDefaultIcEEEEN11UnityEngine9Analytics16LimitEventConfigENS1_4lessIS7_EE13stl_allocatorINS1_4pairIKS7_SA_EEL18MemLabelIdentifier6ELi16EEEEEEvRT_17TransferMetaFlags
std:__ZN9BlobWriteC2ER13dynamic_arrayIhLj16EE24TransferInstructionFlags19BuildTargetPlatform
uud:__Z90Register_UnityEngine_SceneManagement_SceneManager_LoadSceneAsyncNameIndexInternal_Injectedv
Ps:__ZN12NavMeshAgent14OnNavMeshAddedEv
dta:__ZN14MessageHandler3GetEv
G$:__ZZN8Animator15InitializeClassEvEN37FunctorImpl_491kDidModifyOverrideClip4CallEPviR11MessageData
xqr:_ReadOnlyCollection_1_System_Collections_Generic_ICollectionU3CTU3E_Remove_m2E6789C4A1AB4DD584806BD8EEA5898D54B44549_gshared
oFc:__ZL24AssignProjectorQueuesJobP30AssignProjectorQueuesJobHeader
NCl:_Matrix4x4_Inverse_Injected_m7849F11A4307E901FDBAD8FBC9FB9606B6827673
jJq:_FOVKick_FOVKickDown_mEBA8FE01C5CF6348F13C9D89937FC2FB49C86925
zqg:__ZN12TreeDatabase8TransferI14SafeBinaryReadEEvRT_
Rha:__Z40DebugStringToFilePostprocessedStacktraceRK21DebugStringToFileData
FBs:_SpringJoint_set_spring_mC99EBC17935135ECBCB7AFEA61EEA1BFC38A5166
Q$c:__ZNSt3__26vectorIN4core12basic_stringIcNS1_20StringStorageDefaultIcEEEENS_9allocatorIS5_EEE6assignIPS5_EENS_9enable_ifIXaasr21__is_forward_iteratorIT_EE5valuesr16is_constructibleIS5_NS_15iterator_traitsISC_E9referenceEEE5valueEvE4typeESC_SC_
f0k:_Label_Equals_m17F542917E3CDE29E6A450E62E3E2B43289B0A9E_AdjustorThunk
BCc:__ZL25CullAllPerObjectLightsJobP29CullAllPerObjectLightsJobDataj
Bkm:__Z215RuntimeInvoker_TrueVoid_tDB81A15FA2AB53E2401A76B745D215397B29F783_Vector3_tDCF05E21F632FE2BA260C06E0D10CA81513E6720_Color32_t23ABC4AE0E0BDFD2E22EE1FA0DA3904FFE5F6E23_Vector2_tA85D2DD88578276CA8A8796756458277E72D073DPFvvEPK10MethodInfoPvPS4_
vUp:_Time_get_realtimeSinceStartup_mCA1086EC9DFCF135F77BC46D3B7127711EA3DE03
kil:_TypeFilter_Invoke_m974835BF38EAC19DAEC84EA0F98316F45D6B71CC
Tek:_DateTime_get_Day_mD1929B0D4C308221E2C63BD2AE4ED4A8C2A0C250_AdjustorThunk
nIb:__ZThn32_N8Renderer15AddAsRenderNodeER15RenderNodeQueueRK20DeprecatedSourceData
jog:__ZN9Scripting11UnityEngine12TerrainProxy9InitProxyEv
zeg:__ZN5physx6pvdsdk17NullFileTransport5writeEPKhj
PSp:_DataUtility_GetMinSize_m8031F50000ACDDD00E1CE4C765FA4B0A2E9255AD
N$b:__Z18Transfer_BlittableI14SafeBinaryReadLb0E11QuaternionfEvRK29SerializationCommandArgumentsR31RuntimeSerializationCommandInfo
Fhc:__Z21BeginSplashScreenFadev
zUm:_EnumBuilder_get_BaseType_mE73D5F9DC77844D294EF5E584B416759CC86223C
bWb:__ZN12ImmediatePtrI9TransformE8TransferI18StreamedBinaryReadEEvRT_
Fal:_TypeBuilder_HasElementTypeImpl_mE5A3BD8CDDB0D332D8A0C79ED03C5E1FCC97D351
yia:_tlsf_walk_heap
B9d:__ZN14SafeBinaryRead22TransferWithTypeStringIN11ShapeModule18MultiModeParameterIN25IParticleSystemProperties8PropertyIfNS3_9UnclampedEEEEEEEvRT_PKcSB_17TransferMetaFlags
y1s:__ZN6il2cpp2vm7Runtime6InvokeEPK10MethodInfoPvPS5_PP15Il2CppException
_5m:_Array_obj_swapper_m54EA020551FE2F46A4806C158443A923A5C0BF53
_jg:__ZN13dynamic_arrayIN5physx10PxSweepHitELj0EE21resize_buffer_nocheckEj12ResizePolicy
sxq:_Array_InternalArray__ICollection_CopyTo_TisOrderBlock_t3B2BBCE8320FAEC3DB605F7DC9AB641102F53727_m1D3645EF4C1DA776D90DAE9A40756FB9B5C20C64_gshared
O3l:__Z126RuntimeInvoker_FalseSByte_t50B643C59EE66E3364AED19D82E06B27BDE75268_IntPtr_t_VoidU2A_t8A995245462F8BDC7319CC68F09ACF295FDD2879PFvvEPK10MethodInfoPvPS4_
Xb:invoke_vif
Vb:invoke_vid
zOp:_RenderTexture_set_height_m4402FEFDF6D35ABE3FBA485FE9A144FB4204B561
Eq:__ZN12CrowdManager21UpdateAgentParametersEyPK16CrowdAgentParams
kc:invoke_vii
Rzc:__ZNK12ImageFilters8DoRenderER17ShaderPassContextP13RenderTextureS3_RKNSt3__26vectorI11ImageFilterNS4_9allocatorIS6_EEEE
MEf:__ZN5physx13NpVolumeCacheD2Ev
lMp:_RectOffset__ctor_m4A29807F411591FC06BE9367167B8F417EF73828
mmk:__ZN72RigidbodyFirstPersonController_t8CC10631AB3A95C1B17BE031A217ED712C514E2016set_m_Jumping_14Eb
t8a:__ZN12TLSAllocatorI14StackAllocatorE16ThreadInitializeEP13BaseAllocator
KKt:__ZN6il2cpp2os4Time30GetTicks100NanosecondsDateTimeEv
pZa:__ZN9GfxDevice32UpdateStereoViewProjectionMatrixE21MonoOrStereoscopicEye
tYa:__ZN12InputManager23VirtualRedirectTransferER18StreamedBinaryRead
ton:_Navigation_get_selectOnLeft_m1B2D71E749D06A2D89855AE6715DBD253BC623FA_AdjustorThunk
e5m:_Array_GetValue_mCE8A447993E0F42EB737712CA2980FAD82F8E761
FVg:__Z41CanvasRenderer_CUSTOM_DisableRectClippingP12Il2CppObject
kHt:__ZN6il2cpp6icalls8mscorlib6System13GlobalizationL24string_invariant_compareEP12Il2CppStringiiS5_iii
tbj:_InternalEnumerator_1_Dispose_m79B838C2C19A5243FA253A9703FD454127333E91_AdjustorThunk
Uel:_MonoGenericMethod__ctor_mCB468A6F8A1F918862A7E44EE582A9CC5150FA08
GMc:__ZN10Matrix4x4f11SetPositionERK8Vector3f
Hpc:_glColorMaski
zYj:_Char_IsWhiteSpace_mF47E72F8355D4F6E68E912F6668F1D7AE886DC75
u1j:_CollectionBase_System_Collections_IList_get_Item_m5179ACC350F16502D6523C0951FBBCB8776FA64D
eZb:__ZN25SingleBlockMemoryFileDataD0Ev
N1:__ZNSt3__26vectorI14ConstantStringNS_9allocatorIS1_EEE6assignINS_11__wrap_iterIPS1_EEEENS_9enable_ifIXaasr21__is_forward_iteratorIT_EE5valuesr16is_constructibleIS1_NS_15iterator_traitsISA_E9referenceEEE5valueEvE4typeESA_SA_
OKe:__ZN5physx3Cct10Controller4moveERNS0_11SweptVolumeERKNS_6PxVec3EffRKNS_19PxControllerFiltersEPKNS_17PxObstacleContextEb
kPk:_Image__cctor_m8D2B966BD76E190B61568F691118F87281BD7CAB
sbc:__Z19TransferField_ArrayI18StreamedBinaryRead27Converter_SimpleNativeClassI17AnimationCurveTplIfEEEvRK23StaticTransferFieldInfoR31RuntimeSerializationCommandInfoRT0_
w1b:__ZNSt3__26vectorI8GUIStyle13stl_allocatorIS1_L18MemLabelIdentifier1ELi16EEE7reserveEj
GLb:__ZN4Mesh23VirtualRedirectTransferER18StreamedBinaryRead
ozo:_TimeSpan__ctor_mA72619121981F67F01805738FF4D01DAB0F8E62F
h4m:_ArgumentException__ctor_m258C11783CFD610274EAF60950F1B0EB866DC9A7
Vpt:__ZN6il2cpp6icalls8mscorlib6System9Threading6Thread27GetSerializedCurrentCultureEP12Il2CppThread
b3s:__ZNSt3__26__treeIP11Il2CppClassNS_4lessIS2_EENS_9allocatorIS2_EEE7destroyEPNS_11__tree_nodeIS2_PvEE
rMo:_ASN1_DecodeTLV_mD10979CBB0C0914ED62D97A16BEFECBEC9F08708
H3c:__Z31CalculateHierarchyTransformType23TransformAccessReadOnly
fsi:_SingletonIdentity_AsyncObjectProcessMessage_m3E1E739CD581077A2C33F0942FDFF0B48A26EE29
N5:__ZN4FMOD8ChannelI11setPositionEjj
vga:__GLOBAL__sub_I_Runtime_Interfaces_0_cpp
bKl:_NameObjectCollectionBase_get_Keys_mF2F6E20BA9086C81F78FC87B6FD0DF00772F4C14
iig:__ZN12PhysXRaycast12CleanupClassEv
_Zr:_Event_get_modifiers_m4D1BDE843A9379F50C3F32CB78CCDAD84B779108
_Un:_DateTimeFormatInfo_GetDayName_m9D660507FEE80B4083E87358B5BA0D40F1CB894A
udn:_SslStreamBase_NegotiateHandshake_mD5F657016BB5CB3956277C217A92B2BBA49DF30F
lFi:_ExecuteEvents_get_dragHandler_m41B7D77771806788CD773C83C2E5A53D5ED5B179
sZa:__ZN9GfxDevice17SetStereoViewportE15StereoscopicEyeRK5RectTIiE
jCa:__ZN17BaseObjectManager13StaticDestroyEPv
Ixn:_Selectable_IsHighlighted_m94D25810B3FFD4BC41B72CFA24A278D112E04FF8
jzl:_Graphics_DrawProceduralIndirect_m50570B3FE61F64DB3B9039B5F597443514F5D056
PNe:__ZN5physx2Gu22closestPtPointTriangleEPNS_6shdfnd3aos5Vec3VES4_S4_Rj
vba:__ZN12AudioManager14UpdateListenerERK8Vector3fS2_S2_S2_
wof:__ZN5physx2Cm8PtrTableC2Ev
fTf:__ZN5physx2Dy12solveContactERKNS_22PxSolverConstraintDescERNS0_13SolverContextE
pIc:__ZN17InstancingBatcherD2Ev
I3:__ZN4FMOD6Reverb13setPropertiesEPK22FMOD_REVERB_PROPERTIES
TMa:__ZN9Scripting11UnityEngine12Experimental9Rendering21CoreCameraValuesProxy12CleanupProxyEv
Ykg:__ZL18SphereCastInternaliRK8Vector3ffS1_fi23QueryTriggerInteractionRN5physx13PxHitCallbackINS3_10PxSweepHitEEE
bCc:__ZN9DepthPass13PrepareSubsetEjRK10RenderNodeifRK17ShaderReplaceData
gmf:__ZN5physx9NpPhysics18createRigidDynamicERKNS_11PxTransformE
zKf:__ZN5physx6shdfnd5ArrayIPvNS0_19ReflectionAllocatorINS_2Sc18TriggerInteractionEEEE15growAndPushBackERKS2_
iR:__ZNSt3__26vectorIN13AnimationClip12Vector3CurveE13stl_allocatorIS2_L18MemLabelIdentifier27ELi16EEE8__appendEj
F_c:__ZN9ShaderLab20SerializedSubProgram16TextureParameter8TransferI14SafeBinaryReadEEvRT_
CZg:__ZN11UnityEngine9Analytics20WebRequestRestClient5AbortEv
kQp:_LoadSceneParameters__ctor_m2E00BEC64DCC48351831B7BE9088D9B6AF62102A
$mq:_Enumerator_System_Collections_IEnumerator_Reset_mEF28D03E929BDEAF801321B58903CF7669064B4C_AdjustorThunk
nFe:__ZN9Scripting11UnityEngine26ControllerColliderHitProxy12CleanupProxyEv
U1a:__Z22GetRenderTextureFormat14GraphicsFormat
mIf:__ZN5physx7NpScene17addActorsInternalEPKPNS_7PxActorEjPKNS_2Sq16PruningStructureE
LOp:_RenderTexture_MarkRestoreExpected_mB7F42F22C63DC1DD9B4F4C48BFA9E8C0859BE631
FHr:_DataController_SetParticipantGender_m8684DBCA46091B0078CE1A8560FA54F5466D41FA
dRe:__ZN5physx2Gu17intersectRayAABB2ERKNS_6shdfnd3aos5Vec3VES5_S5_S5_RKNS2_6FloatVERS6_S9_
st:__ZN4core20StringStorageDefaultIcE6assignEPKcj
CTc:__ZN23TextureStreamingManager6UpdateEv
C7b:__Z15Transfer_StringI19StreamedBinaryWriteLb0EEvRK29SerializationCommandArgumentsR31RuntimeSerializationCommandInfo
e7e:__ZNK5physx7NpShape17getSphereGeometryERNS_16PxSphereGeometryE
bqn:__Z57List_1_set_Item_m22463D42489C4E88BB3D23957E9032C4B45A293AP48List_1_tFF4005B40E5BA433006DA11C56DB086B1E2FC955i49Vector4_tD148D6428C3F8FF6CD998F82090113C2B490B76EPK10MethodInfo
aAt:__ZN15dense_hashtableINSt3__24pairIK10KeyWrapperIP12Il2CppObjectEN6il2cpp2gc9CachedCCWEEES5_NS7_5utils11PointerHashIS3_EEN14dense_hash_mapIS5_S9_SD_NS5_14EqualsComparerINS0_8equal_toIS4_EEEENS0_9allocatorISA_EEE9SelectKeyESI_SK_E3endEv
mLa:__ZN9Scripting11UnityEngine9Playables22PlayableBehaviourProxy9InitProxyEv
fEm:_IntPtr_ToString_mDFE74B0B981127A6388F6E543BF10F86C9A907FB
JJo:_SimpleCollator_LastIndexOfOrdinalIgnoreCase_mF76AC67AB8DCF39756FE7D2B2E61EC6D5D1952DB
D7c:__ZN15SharedLightDataC2E10MemLabelId
ygo:_X509Certificate_Equals_m24945597AC43834B07D7D9E8B93BCE13C82346DB
_1s:__ZN6il2cpp2vm7Runtime33CreateUnhandledExceptionEventArgsEP15Il2CppException
lgd:__ZN6Camera6SetFarEf
Edj:_InternalEnumerator_1__ctor_mF13128C26ED305D702C445A8A5790BCE66D380A8_AdjustorThunk
eod:__ZNK17AnimationCurveTplI11QuaternionfE13EvaluateClampEfPNS1_5CacheE
cXa:__ZN11GameManager17MainThreadCleanupEv
t4d:__Z25UpdateOrbitalAndRadialTplIL27ParticleSystemCurveEvalMode1ELS0_4ELS0_2EEvRK11MinMaxCurveS3_S3_S3_S3_S3_S3_R23ParticleSystemParticlesjjRKN4math8float3x3ERKNS6_7affineXERKNS6_7_float4E
cXg:__Z50Register_UnityEngine_UISystemProfilerApi_EndSamplev
CAt:__ZN6il2cpp2vm27StacktraceSentryMethodStackC2Ev
Zwg:__ZN12TreeRenderer21ComputeWindPropertiesEib
bwc:__ZZ23InitPlayerLoopCallbacksvEN45EarlyUpdateRendererNotifyInvisibleRegistrator7ForwardEv
vkk:__ZNK63FirstPersonController_t6EAFDD1A926C6721BC6C33DC8725222DBBB2F0B316get_m_MoveDir_25Ev
Z_d:__ZN14ParticleSystem10ResetSeedsEv
Z2t:dynCall_viiiiiifi
Irf:__ZNK5physx7NpCloth24getParticleAccelerationsEPNS_6PxVec4E
xLg:_UNITY_tt_slot_init
uwc:__ZZ23InitPlayerLoopCallbacksvEN41PostLateUpdateUpdateResolutionRegistrator7ForwardEv
ncc:__Z25scripting_array_class_get17ScriptingClassPtrj
ySd:__ZL22Transfer_ManagedObjectI9JSONWriteLb1EEvRK29SerializationCommandArgumentsR31RuntimeSerializationCommandInfo
paa:__ZNK10SampleClip22GetTypeVirtualInternalEv
p_a:__ZN9GfxDevice20DestroyRenderSurfaceER12ObjectHandleI17RenderSurface_TagP17RenderSurfaceBaseE
ro:__ZN9Scripting11UnityEngine2AI12NavMeshProxy12CleanupProxyEv
Z6d:__Z15StartHemiSphereILN11ShapeModule14MultiModeValueE3EEvRS0_R23ParticleSystemParticlesRK19ParticleSystemStateRK27ParticleSystemEmissionStateRKN4math8float3x3ERKNSB_7affineXEjbj
D$r:_GUI_DoButton_m3DA80A30ABFA7F00B48683498AEB28ACAAA404ED
PRc:__ZN12_GLOBAL__N_15qAsinEff
u8a:__ZN12TLSAllocatorI14StackAllocatorE13ThreadCleanupEv
lyq:_Array_InternalArray__Insert_TisLabelFixup_t7AEAF33F4F33BA4B9AB82312D476BBEB4F308EC0_mB6AFB52307CBE9744576D8B5BB0BBAF00EB0B702_gshared
eJb:__ZN14SafeBinaryRead21TransferSTLStyleArrayI13dynamic_arrayI8Vector4fLj0EEEEvRT_17TransferMetaFlags
k6s:__ZN14dense_hash_mapI10KeyWrapperINSt3__24pairIPK9FieldInfoP11Il2CppClassEEEj17ReflectionMapHashIS8_ENS9_14EqualsComparerINS1_8equal_toIS8_EEEENS1_9allocatorINS2_IKS9_jEEEEE6insertERKSI_
odl:_MonoCMethod_GetParameters_m441F653BA9F27AAFC3AB1B6F9A071D08669C4F2B
gGt:__ZThn4_N6il2cpp2vm13ComObjectBase16MarshalInterfaceEP13Il2CppIStreamRK10Il2CppGuidPvjS7_j
mih:__ZL97DebuggerDisplayAttribute_tDFCB4D6D7AE6E825D0653447C9224A5216C49741_CustomAttributesCacheGeneratorP21CustomAttributesCache
Emo:_String_Split_m3A8A48A00011BA5F135EBC797AD2B12E710A48CA
WXc:__Z27FindActiveTransformWithPathPKc
Tgp:_Enumerator_MoveNext_mC777CE9611914955F87C684CF24660469A4A58C2_gshared
Ahl:_TargetException__ctor_mE651226FA32D7FD2666A5ECC2DABDB1A52E85B9B
_el:_MonoMethod_GetBaseDefinition_m3D38B86EA189E90C12592FF907A0F039BD7DB38C
dnf:__ZN5physx14NpArticulation25setStabilizationThresholdEf
PVm:_RSAManaged__ctor_m89980051B5B94258E267119EED69F6F1A4BA9FF9
WZa:__ZN9GfxDevice19PutGeometryJobFenceERi
Zxl:_GL_GLClear_m462612971B9FBEEC513850A08E3E41A17BD62B6B
rbb:__ZNK6Camera7GetNearEv
Zgt:_il2cpp_class_get_fields
oAj:_Enumerator_MoveNext_mB10130DBDA414164BBDDAACF4AC83860CBDE9E92_AdjustorThunk
Mw:__Z23CalcCapsuleWorldExtentsP8Vector3fRKS_S2_S2_S2_
rTb:__Z26GarbageCollectSharedAssetsbb
gOa:__ZN9Scripting11UnityEngine12Experimental10PlayerLoop14PostLateUpdate20UpdateSubstanceProxy9InitProxyEv
Fll:_Debug_LogException_mBAA6702C240E37B2A834AA74E4FDC15A3A5589A9
zCb:__Z25GetNextAllowedTextureSizeib13TextureFormat
cgc:__ZN20LocalFileSystemWebGL4CopyER13FileEntryDataS1_
$ig:__ZNK13PhysicsModule27IsDefaultPhysicsSceneHandleEi
$ci:__ZL78Twirl_t537751DDD1DB2000A1553CD782C7258B27949EEF_CustomAttributesCacheGeneratorP21CustomAttributesCache
WOd:__Z36Event_CUSTOM_Internal_SetNativeEventPv
qyd:__Z51GraphicsFormatUtility_CUSTOM_GetRenderTextureFormat14GraphicsFormat
V_f:__ZN5physx2Sc8ClothSim23addCollisionHeightfieldEPKNS0_8ShapeSimE
CTb:__Z34scripting_liveness_calculation_endPv
yvr:__Z60Converter_2_Invoke_m2AB5BC80459A51690EB746D32686E526CB5EE399P53Converter_2_t8ACD868EACF7DD87A5401D4B1183EDAD9D3D951AP12Il2CppObjectPK10MethodInfo
kEt:__ZN6il2cpp2os6ThreadC2Ev
k8c:__ZN28ReflectionProbeAnchorManager7CleanupEv
EBo:_TimeSpan_FromMinutes_m6BF3A56D505E70CFFA85B5CF5010595237AA4136
Kat:__ZN14dense_hash_mapI10KeyWrapperINSt3__24pairIPK12PropertyInfoP11Il2CppClassEEEj17ReflectionMapHashIS8_ENS9_14EqualsComparerINS1_8equal_toIS8_EEEENS1_9allocatorINS2_IKS9_jEEEEE6insertERKSI_
vPa:__ZN9Scripting11UnityEngine12Experimental10PlayerLoop14PostLateUpdate24DirectorRenderImageProxy12CleanupProxyEv
Iyn:__ZNK52Selectable_tAA9065030FE0468018DEC880302F95FEA9C0133A14get_m_Colors_7Ev
Or:__ZN7NavMesh25SetOffMeshConnectionFlagsEyj
QF:__ZN21AnimationClipPlayable22ProcessAnimationNoClipEPK35AnimationPlayableEvaluationConstantPK32AnimationPlayableEvaluationInputP33AnimationPlayableEvaluationOutput
lYj:_Char_CompareTo_mE03BAF2140EF29D10099B9AADB7DB58B555F3DEA_AdjustorThunk
ZTd:__Z18Transfer_BlittableI8JSONReadLb0E8Vector3fEvRK29SerializationCommandArgumentsR31RuntimeSerializationCommandInfo
cR:__ZN13AnimationClip12Vector3Curve8TransferI14SafeBinaryReadEEvRT_
MUb:__ZN21ComputeShaderResource8TransferI18StreamedBinaryReadEEvRT_
VLc:__ZL40GetProjMatrixForShadowToWorldCompositionbRK10Matrix4x4fRS_
Unp:_List_1_RemoveAt_m3A2F93237C0E28ABB2A96CC34C9FE56B0C5D2791_gshared
ekt:__ZN6il2cpp2vm6Thread6DetachEP12Il2CppThread
aqk:_CrossPlatformInputManager_get_mousePosition_mC886FC2F654E91F06407FDB891DF3201ED576DCD
Hie:__Z17UpdateSprites2TplILN8UVModule8TimeModeE2EL27ParticleSystemCurveEvalMode0ELS2_2EEvRKfRK11MinMaxCurveS7_RKN4math7_float2ERK23ParticleSystemParticlesPf
A9c:__ZZL31RegisterOtherRendererPropertiesR23GenericPropertyBindingTILj16EEEN30Wrapper_RendererReceiveShadows13SetFloatValueEPvf
zdn:_InternalAsyncResult_get_AsyncWaitHandle_m096FE6D8499BD764785D34AB30448DD17FACDBCB
e2g:__ZN17DispatcherService12CloseServiceEv
DZh:__ZL92EventType_t3D3937E705A4506226002DAB22071B7B181DA57B_CustomAttributesCacheGenerator_mouseMoveP21CustomAttributesCache
d_e:__ZN5physx2Gu13contactBoxBoxERKNS0_13GeometryUnionES3_RKNS_11PxTransformES6_RKNS0_17NarrowPhaseParamsERNS0_5CacheERNS0_13ContactBufferEPNS_2Cm12RenderOutputE
QW:__ZN7mecanim8skeleton30SkeletonBuildReverseIndexArrayEPiPKiPKNS0_8SkeletonES6_
W5d:__Z22UpdateOrbitalOffsetTplIL27ParticleSystemCurveEvalMode0ELS0_0EEvRK11MinMaxCurveS3_S3_S3_S3_S3_S3_R23ParticleSystemParticlesjjRKN4math8float3x3ERKNS6_7affineXERKNS6_7_float4E
jNd:__Z19GetGUIBlendMaterialv
Vwb:__ZL22stbir__filter_mitchellff
Tzg:__ZN13TextRendering4Font23VirtualRedirectTransferER17RemapPPtrTransfer
uFt:__ZN6il2cpp2os10ThreadImpl5SleepEjb
Rzd:__Z53Register_UnityEngine_Quaternion_LookRotation_Injectedv
y2l:__Z103RuntimeInvoker_FalseRuntimeObject_RuntimeObject_DSAParameters_t322B4D908CBCE910F4F7F452CF2A4B1164CEE719PFvvEPK10MethodInfoPvPS4_
yxc:__ZN10GUITexture18AlignPointToDeviceERK8Vector2fRS0_
Ig:_gethostbyaddr
blp:__Z60Enumerator_Dispose_m748D5032BC6D29CC40B4B07E2CC7C9E96EB554F3P52Enumerator_tDAB2011F3089A68D34C065340442F78236206776PK10MethodInfo
DEp:_Int16_ToString_m6AFD9C2BC37ACD1E4DA009AA65DA96F1B88278C9_AdjustorThunk
muj:_Comparer_1_System_Collections_IComparer_Compare_m38280F777BD0C6E1B8F4103D783ACB42B485FDDD_gshared
bdi:__ZL79Vortex_t39B1AC3428CB0330C443ADCECC1D6F8C22C9345D_CustomAttributesCacheGeneratorP21CustomAttributesCache
ug:_emscripten_set_mouseup_callback
X4g:__ZN11UnityEngine9Analytics15ContinuousEvent29ScriptingObjectTypeToFactoryTIiE27SetEventHistogramThresholdsEPNS1_9EventDataEi18ScriptingObjectPtr
$ke:__Z20UpdateWholeSheet2TplILN8UVModule8TimeModeE0EL27ParticleSystemCurveEvalMode0ELS2_3EEvfRK11MinMaxCurveS5_RKN4math7_float2ERK23ParticleSystemParticlesPf
Qqo:_EncoderFallbackException__ctor_m4D13F3B38F0D377EC7E4EC2318D2BB187C221C90
Oqk:_Joystick_CreateVirtualAxes_m3406F90BD37ADB211F00350F49793A401AF6DCB9
iVf:__ZNK5physx2Dy28SolverArticulationUpdateTask7getNameEv
Sr:__ZN7NavMesh24ConnectOffMeshConnectionEjff
vLh:__ZL96PersistentCall_t31B1F798FEAFA4E42A665E2FFEB9A391FB086C41_CustomAttributesCacheGenerator_m_TargetP21CustomAttributesCache
W2p:_IntStack_get_Count_mE79B84155E4693983CB4C5F640D3E41DA117C0E3_AdjustorThunk
rDf:__ZN5physx7NpScene22removeBroadPhaseRegionEj
PVe:__ZL34GeomOverlapCallback_CapsuleCapsuleRKN5physx10PxGeometryERKNS_11PxTransformES2_S5_PNS_2Gu12TriggerCacheE
q8f:__ZN5physx2Sc7PhysicsD2Ev
MIq:_DynamicShadowSettings_Update_m04153A0473021BA4F992BA8512F749F7D9902749
Xfc:__ZNK18ScreenManagerWebGL8GetWidthEv
tCf:__ZNK5physx7NpScene23getFilterShaderDataSizeEv
d1t:dynCall_iiifii
Y$:__ZN7mecanim5human21ComputeHierarchicMassEiPf
maa:__ZN10SampleClipD2Ev
f_j:_ArrayList_Synchronized_m88A8668E72390E8158B606F1A0ED300C96D0D4B5
zvn:_ScrollRect_CalculateOffset_m57DAE6F9CA6987679656A58C55EACCB991A1B127
XSb:__Z13GetGISettingsv
rSt:__ZNSt3__23mapINS_12basic_stringIcNS_11char_traitsIcEENS_9allocatorIcEEEEPFvvENS_4lessIS6_EENS4_INS_4pairIKS6_S8_EEEEEixEOS6_
dHk:__Z61HashSet_1_get_Count_m52A4EAF7F69741FC14FF0156EDC4D0D26D832B90P51HashSet_1_tE7E83DA6B4D3BEA188A10B1BF02121CCCA7F73E4PK10MethodInfo
YGg:_cff_cmap_unicode_init
All:_Application_Internal_ApplicationWantsToQuit_mDF35192EF816ECD73F0BD4AFBCDE1460EF06442A
hMi:_StandaloneInputModule_set_verticalAxis_m4BA109DFCBD1995F4AE163B47C6DC87C51465B96
_Vh:__ZL90AudioClipPlayable_t6094311F945E65BC29F85B23A81E8426D596553C_CustomAttributesCacheGeneratorP21CustomAttributesCache
nLo:_BigInteger_op_LessThanOrEqual_mCA9080C41A5323678B53021553721170C0521511
Mxj:_Enumerator_System_Collections_IDictionaryEnumerator_get_Key_m7F5C7D3CB4327EF0F2B691035F0199EEB7FC0BE8_gshared
Gat:__ZN14dense_hash_mapI10KeyWrapperINSt3__24pairIPK12PropertyInfoP11Il2CppClassEEEj17ReflectionMapHashIS8_ENS9_14EqualsComparerINS1_8equal_toIS8_EEEENS1_9allocatorINS2_IKS9_jEEEEE3endEv
kB:__ZL22GetComponentsInParentsRK10GameObjectPFbRKN5Unity9ComponentEERN4core8hash_setIPS3_NS8_4hashISA_EENSt3__28equal_toISA_EEEE
VBc:__ZN16ShaderKeywordSet6EnableEi
aQa:__ZN9Scripting11UnityEngine12Experimental10PlayerLoop11FixedUpdate31LegacyFixedAnimationUpdateProxy9InitProxyEv
Lfk:_DateTime_op_Equality_m59D05A03BA0ECB29665C152D91852A21A8C14663
YUs:__ZN15dense_hashtableINSt3__24pairIK10KeyWrapperIN6il2cpp5utils13dynamic_arrayIPK10Il2CppTypeLj4EEEEPFvvEEESA_NS3_8metadata19Il2CppSignatureHashEN14dense_hash_mapISA_SD_SG_NSA_14EqualsComparerINSF_22Il2CppSignatureCompareEEENS0_9allocatorISE_EEE9SelectKeyESK_SM_E12resize_deltaEjj
lSt:__ZN6il2cpp8metadata14Il2CppTypeHash4HashEPK10Il2CppType
KDr:_DataController_LoadTrialSequence_m50686C31A4E64E38D488EC37DC8F01A3815938EA
wio:_SecurityElement_AddChild_m32023FA7BC13E46D2C1238C0F9806785531EA9BE
Xos:_AnimationMotionXToDeltaPlayable__ctor_mC51D5F76DD0CE29B305932303A4A5AA42ACCD9E6_AdjustorThunk
GVj:_Boolean_CompareTo_mD28C60DD922714BB60068497737C3BEFFC049BD9
pum:_Array_InternalArray__ICollection_Contains_TisClientCertificateType_t68CE7721CE0A63169F0EDD1920F72F5446A9A6A0_mE965C09452CD8ED1A14C520160A4992C726EFA85_gshared
QOp:_RenderTexture_GetTemporary_m8E85E142DCF332F8F7250E7B6495964D0BF35D25
JQq:_MeshContainer_Update_m58C45D68B8AD157138F5714FA96AFDBE3859A0D3
Zhq:_ShimEnumerator_MoveNext_m61B83C3F586A51E0912B09BC56C60CFA0683AE86_gshared
Omt:__ZNSt3__214__split_bufferIN6il2cpp8metadata18GenericArrayMethodERNS_9allocatorIS3_EEEC2EjjS6_
dId:__Z74Register_UnityEngine_SceneManagement_SceneUtility_GetScenePathByBuildIndexv
Rnc:__ZN11ContextGLES6CreateEi
kWe:__ZN5physx2Gu3gjkINS0_14RelativeConvexINS0_11ConvexHullVEEENS0_11LocalConvexIS3_EEEENS0_9GjkStatusERKT_RKT0_RKNS_6shdfnd3aos5Vec3VERKNSF_6FloatVERSG_SM_SM_RSJ_
Ipc:_glBlendFuncSeparatei
bsp:_EndOfStreamException__ctor_mA58BCF3F977970D422BBA5CA085E0156A6997DE2
rHi:_PhysicsRaycaster__ctor_m025728D4A189DF3D6F3EF1865A565B364802F180
g8f:__ZN5physx9NpFactory15destroyInstanceEv
Coe:__GLOBAL__sub_I_Modules_Physics2D_Public_1_cpp
upa:__ZN14StackAllocator16FrameMaintenanceEb
jOe:__ZL11SweepBoxBoxPKN5physx3Cct9SweepTestEPKNS0_11SweptVolumeEPKNS0_11TouchedGeomERKNS_14PxExtendedVec3ERKNS_6PxVec3ERNS0_12SweptContactE
OEb:__Z18ReadStringFromFilePN4core17string_with_labelILi1EEERKNS_12basic_stringIcNS_20StringStorageDefaultIcEEEE
USd:__ZN9JSONWrite8TransferI13dynamic_arrayIjLj0EEEEvRT_PKc17TransferMetaFlags
Xva:__ZNK10GameObject20QueryComponentByTypeEPKN5Unity4TypeE
fHl:_PlayerConnection_ConnectedCallbackInternal_mFEC88D604DE3923849942994ED873B26CEEDDA3D
tmr:_ReadOnlyCollection_1_System_Collections_ICollection_CopyTo_m0EC1AF72A1A6331AF9438C8F0EBB1911355E8A1F_gshared
hGj:_DynamicPropertyCollection_NotifyMessage_mD11F5221E4DA21AE76FA2080F458ABCD6C7F4189
bib:__ZN6Camera8TransferI19StreamedBinaryWriteEEvRT_
Fie:__ZL24ApplySingleRandomRowAnimjPfRKfS1_RKN4math5_int4ERKNS2_7_float4E
tVk:__ZNK52InputField_t533609195B110760BCFF00B746C87D81969CB00523get_m_BlinkStartTime_56Ev
Ylb:__Z13TransferArrayILi4Ea19StreamedBinaryWriteEjRAT__T0_PKcRT1_
uX:__ZN25RuntimeAnimatorController23DestroyCustomControllerEPN7mecanim9animation18ControllerConstantER20RuntimeBaseAllocator
kUp:_Texture3D_SetPixels_mCFEFC7CDDCAFD70F31D09E305F35CBD33C9016DA
Cun:__ZNK52ScrollRect_tAD21D8FB1D33789C39BF4E4CD5CD012D9BD7DD5119get_m_ViewBounds_24Ev
LBb:__ZN11TextureData5ResetEv
jxd:__Z53Register_UnityEngine_GameObject_get_activeInHierarchyv
bma:__ZL30InitializeCoreScriptingClassesv
tem:__Z305RuntimeInvoker_TrueVoid_tDB81A15FA2AB53E2401A76B745D215397B29F783_Int32_tC16F64335CE8B56D99229DE94BB3A876ED55FE87_Int32_tC16F64335CE8B56D99229DE94BB3A876ED55FE87_Int32_tC16F64335CE8B56D99229DE94BB3A876ED55FE87_Int32_tC16F64335CE8B56D99229DE94BB3A876ED55FE87_SByte_t50B643C59EE66E3364AED19D82E06B27BDE75268PFvvEPK10MethodInfoPvPS4_
aDh:__ZL92NativeNameAttribute_t16D90ABD66BD1E0081A2D037FE91ECF220E797F9_CustomAttributesCacheGeneratorP21CustomAttributesCache
ah:_glBlitFramebuffer
f8l:__Z146RuntimeInvoker_FalseDateTime_t816BBD9125EA02B42B87CB07643FC5F803391DA2_RuntimeObject_RuntimeObject_Int32_tC16F64335CE8B56D99229DE94BB3A876ED55FE87PFvvEPK10MethodInfoPvPS4_
FIf:__ZNK5physx2Sc5Scene17prefetchForRemoveERKNS0_10StaticCoreE
n8s:__ZN6il2cpp2vm10Reflection15GetMethodObjectEPK10MethodInfoP11Il2CppClass
z3b:__Z35Transfer_Blittable_SingleValueFieldI14SafeBinaryReadhEvRT_R17GeneralMonoObjectRK23StaticTransferFieldInfo
Njj:_InternalEnumerator_1_System_Collections_IEnumerator_Reset_mFC036B76EFF9F35EBF5E7E0FFB987A909751EA79_AdjustorThunk
c5q:_List_1_System_Collections_IList_set_Item_m5EC1583934F523FFEB317C7173C7F2041D00F634_gshared
pdg:__ZN5physx24RTreeTriangleMeshBuilderD0Ev
Bhh:__ZL85Dictionary_2_tC3B7C172F472D2372732454922AB169C38E69CE9_CustomAttributesCacheGeneratorP21CustomAttributesCache
n4i:_InternalEnumerator_1_System_Collections_IEnumerator_Reset_m8F2E5B03737A3698A6A3F24C7F445D39049C5B95_AdjustorThunk
r9e:__ZN5physx6shdfnd5ArrayINS_2IG9NodeIndexENS0_19ReflectionAllocatorIS3_EEE15growAndPushBackERKS3_
qae:__ZN24GenerateTypeTreeTransfer8TransferI13dynamic_arrayIN8UVModule10SpriteDataELj0EEEEvRT_PKc17TransferMetaFlags
njg:__ZN25PostFilteredUserCollectorC2Ej23QueryTriggerInteractionRN8IPhysics12IUserCollectE
OJr:__ZN56GameController_t8BB0D3CE8992C95BED5FB508588730F0A74009A332set_giftWrapStateTransitions_102EP48List_1_t7600B3EA144F32C2120D420AB63C9E014D113CF1
_vb:__ZNK12CubemapArray22GetTypeVirtualInternalEv
UYs:__ZN6il2cpp2vm13MetadataCache23GetInterfaceOffsetIndexEi
Pm:FUNCTION_TABLE_vif
Nm:FUNCTION_TABLE_vid
cn:FUNCTION_TABLE_vii
ITb:__Z40scripting_liveness_calculation_from_root18ScriptingObjectPtrPv
pSm:_ConstructorBuilder__ctor_mB70BBC3AC20688B6566FF870C0063D0E45866914
rde:__ZN13InitialModuleD2Ev
VAm:_Array_InternalArray__IndexOf_TisInt16_tBFC41132AB8E6B4E1F9D4A1E3CC46422BF453F3C_m8810611B71C305CE8E3BD9BAC1FD3DA8D7694855_gshared
fyb:__ZN6prcoreL19RemapGenericIntegerI17TexFormatARGB444417TexFormatARGB8888EEvPKNS_9InnerInfoE
Vqd:__ZN17Gradient_Bindings4InitEv
i6g:__ZN11UnityEngine9Analytics18ConnectSessionInfoC2Ev
fqb:__ZN7Texture23VirtualRedirectTransferER24GenerateTypeTreeTransfer
NBg:_UNITY_FT_Set_Transform
uyt:__ZN6il2cpp8metadata15GenericMetadata20RegisterGenericClassEP18Il2CppGenericClass
K6t:_glDeleteFramebuffers__wrapper
Tpr:_ReadOnlyCollection_1_System_Collections_Generic_ICollectionU3CTU3E_Remove_m6093DC5954F0E512B02B9F0F1B7F21E0142FD86E_gshared
eG:__ZN7mecanim6memory13HeapAllocator8AllocateEjj
Nrl:_CullingGroup_Finalize_m67D1F84462EC91AACBB9899B859D26CAD5BE24AB
igs:_UnityWebRequest_SetRequestHeader_m1B54D38BDACC2789FC8EE889EA72EDD7844D2309
hFg:_cff_blend_build_vector
Ori:_ServerIdentity_OnLifetimeExpired_m10491019B5D0F84A342BFFE8060911AED8CA2A24
qKs:_NativeHeaderAttribute__ctor_m490124694FDBCB4336CBA29D2E24A27FF3451A0E
Nos:_AnimationMixerPlayable__ctor_mD446E3257F803A3D4C04D394A75AA5376533CF43_AdjustorThunk
Qvd:__Z44Register_UnityEngine_RenderTexture_set_widthv
Xke:__Z20UpdateWholeSheet2TplILN8UVModule8TimeModeE0EL27ParticleSystemCurveEvalMode3ELS2_3EEvfRK11MinMaxCurveS5_RKN4math7_float2ERK23ParticleSystemParticlesPf
Pet:__ZN30dense_hashtable_const_iteratorINSt3__24pairIK10KeyWrapperIPK22Il2CppGenericParameterEPK24MonoGenericParameterInfoEES6_N6il2cpp5utils11PointerHashIS4_EEN14dense_hash_mapIS6_SA_SF_NS6_14EqualsComparerINS0_8equal_toIS5_EEEENS0_9allocatorISB_EEE9SelectKeyESK_SM_E30advance_past_empty_and_deletedEv
WGb:__ZN28EnlightenRendererInformation8TransferI14SafeBinaryReadEEvRT_
Wc:invoke_viiiiiifi
CKb:__ZN14SharedMeshData14GetBoneWeightsEi
_Wb:__ZNK15Lz4Decompressor16DecompressMemoryEPKvPjPvS2_
RJg:_UNITY_tt_face_build_cmaps
q0:__ZN21AnimationHandleBinderC2Ev
cD:__ZN9Scripting11UnityEngine10Animations21ConstraintSourceProxy9InitProxyEv
LSi:_ColorBlock_set_fadeDuration_m07D8B9D347B41426EFD5D98DBD11A231BF1FB203_AdjustorThunk
g6o:_EqualityComparer_1__cctor_mF81B6115B721FAE7A5951263D308524670FE3512_gshared
ECe:__ZN11Rigidbody2D8TransferI24GenerateTypeTreeTransferEEvRT_
j5f:__ZNK5physx13GuMeshFactory15getConvexMeshesEPPNS_12PxConvexMeshEjj
_sb:__Z35UnityPropertySheet_MakeSortedColorsRKNSt3__23mapIN9ShaderLab16FastPropertyNameE10ColorRGBAfNS_4lessIS2_EENS_9allocatorINS_4pairIKS2_S3_EEEEEER10vector_mapIS2_S3_S5_NS6_INS7_IS2_S3_EEEEE
km:FUNCTION_TABLE_iiiiiiffiiiiiiiiiffffiii
Eck:_Convert_ToUInt64_mFEA0DFA107B0065DBF57D32B5C618AAE1AD7E698
mJg:_UNITY_tt_face_load_os2
heb:__Z30ProcessDynamicBatchGeometryJobP21SharedGeometryJobDataj
ylo:_Single_System_IConvertible_ToUInt32_m63607D3BEC659D7C53628B50CEBD86FD3BAB6BBA_AdjustorThunk
wS:__ZN18StreamedBinaryRead21TransferSTLStyleArrayI22OffsetPtrArrayTransferIN7mecanim9animation10ValueDeltaEEEEvRT_17TransferMetaFlags
J2b:__Z29Transfer_Blittable_ArrayFieldI14SafeBinaryRead8Vector4fEvRT_R9ArrayInfoRK23StaticTransferFieldInfo
$ym:_Array_InternalArray__IEnumerable_GetEnumerator_TisX509ChainStatus_t60E8382F80CC9E801B291F443817D53825719725_m70452DC0AC00F26A2DEDFEFF3E5FA43FB81AEF19_gshared
cM:__ZN11UnityEngine9Animation32CreateAnimatorGenericBindingsOptERKNS0_20AnimationSetBindingsER9TransformPKN7mecanim9animation14AvatarConstantEPKNS0_21AvatarBindingConstantEbR20RuntimeBaseAllocatorR8Animator
LX:__ZNK26AnimatorOverrideController22GetTypeVirtualInternalEv
NZm:_DeriveBytes_DeriveIV_m64009D5522F327E004F298DC3E0D3F468F796564
hjd:__Z17GLPopMatrixScriptv
Ogg:__ZNSt3__27__sort4IRNS_6__lessI24InterpolationDepthHandleS2_EEPS2_EEjT0_S6_S6_S6_T_
H7b:__Z18Transfer_BlittableI19StreamedBinaryWriteLb1EN4math12int3_storageEEvRK29SerializationCommandArgumentsR31RuntimeSerializationCommandInfo
NQe:__ZN5physx2Gu21computeBoxLocalImpactERNS_6PxVec3ES2_RNS_7PxFlagsINS_9PxHitFlag4EnumEtEERKNS0_3BoxERKS1_RKNS_10PxTriangleES6_bbf
dmp:__Z89Enumerator_System_Collections_IEnumerator_Reset_m8733BFE1C6B412615866DD7B06138519406CD83FP52Enumerator_tF6F64083C68E4559F0875A0E3BA9BCD1011CB35DPK10MethodInfo
vek:_DateTime_System_IConvertible_ToDouble_m8C24F1F4FC4737052956162B87EB7567471FC904
Tib:__ZNSt3__26__treeINS_12__value_typeIi17ShadowCachingDataEENS_19__map_value_compareIiS3_NS_4lessIiEELb1EEE13stl_allocatorIS3_L18MemLabelIdentifier67ELi16EEE7destroyEPNS_11__tree_nodeIS3_PvEE
nOm:_Assembly_ToString_m3DF9496E4348198ED725AFC87F65C1D14566EF10
lwc:__ZZ23InitPlayerLoopCallbacksvEN51PostLateUpdateUpdateCustomRenderTexturesRegistrator7ForwardEv
zrm:__Z168RuntimeInvoker_TrueInt32_tC16F64335CE8B56D99229DE94BB3A876ED55FE87_UIVertex_t0583C35B730B218B542E80203F5F4BC6F1E9E577_UIVertex_t0583C35B730B218B542E80203F5F4BC6F1E9E577PFvvEPK10MethodInfoPvPS4_
V4t:_glClientWaitSync__wrapper
xMt:_GC_print_finalization_stats
SZs:__ZN6il2cpp2vm13MetadataCache25GetStringLiteralFromIndexEi
VNp:_RenderTexture_SetRenderTextureDescriptor_Injected_m72AC0A28D6BF9041721D95E43BAC302A56C99019
nG:__ZN7mecanim9animation12EvaluateClipEPKNS0_4ClipEPKNS0_9ClipInputEPNS0_10ClipMemoryEPNS0_10ClipOutputE
Fkm:__Z130RuntimeInvoker_FalseSingle_tF2613CF3F3AF0E8BEBC3CE8AD41479C44E6075DB_RuntimeObject_SByte_t50B643C59EE66E3364AED19D82E06B27BDE75268PFvvEPK10MethodInfoPvPS4_
Z8g:__ZN20UnityWebRequestProtoI24UnityWebRequestTransport16AtomicRefCounter14RedirectHelper14ResponseHelper15DownloadHandler13UploadHandler18CertificateHandler12HeaderHelper14AsyncOperationE19Task_FinishRedirectEPv
jJt:__ZN4utf88internal19is_code_point_validIjEEbT_
lJe:__ZN5physx3Cct9SweepTest15onObstacleAddedEjPKNS_17PxObstacleContextERKNS_6PxVec3ES7_f
VDg:__ZN20TextRenderingPrivate7GUIText18GetFontAndMaterialEv
rCt:__ZN15dense_hashtableINSt3__24pairIK10KeyWrapperIPcES3_EES4_N6il2cpp5utils15PassThroughHashIS3_EEN14dense_hash_mapIS4_S3_SA_NS4_14EqualsComparerINS0_8equal_toIS3_EEEENS0_9allocatorIS6_EEE9SelectKeyESF_SH_E5clearEv
ZNm:_Assembly_GetCustomAttributes_m0C2ADE27C8006740F8F71F4735432D26E1CE85A4
pll:_LogCallback_Invoke_mCB0C38C44CBF8BBE88690BE6C0382011C5D5B61F
u7f:__ZN5physx2Gu7BV4Tree15exportExtraDataERNS_22PxSerializationContextE
ocq:_Uri_CheckHostName_mA0ADC3FD6C87A7BF545E975A9F77255453433EC9
zRg:__ZN2UI6Canvas23VirtualRedirectTransferER18StreamedBinaryRead
Kfd:__ZN13RenderManager29SetCurrentCameraAndStackStateEP6CameraP25CameraStackRenderingState
xnt:__ZN24dense_hashtable_iteratorINSt3__24pairIK10KeyWrapperINS1_IP11Il2CppClassjEEES4_EES6_N6il2cpp8metadata14ArrayClassHashEN14dense_hash_mapIS6_S4_SB_NS6_14EqualsComparerINSA_17ArrayClassCompareEEENS0_9allocatorIS8_EEE9SelectKeyESF_SH_EC2EPK15dense_hashtableIS8_S6_SB_SJ_SF_SH_EPS8_SP_b
g9a:__ZNSt3__26__treeINS_12__value_typeIjN4core12basic_stringIcNS2_20StringStorageDefaultIcEEEEEENS_19__map_value_compareIjS7_NS_4lessIjEELb1EEE13stl_allocatorIS7_L18MemLabelIdentifier7ELi16EEE7destroyEPNS_11__tree_nodeIS7_PvEE
unt:__ZN15dense_hashtableINSt3__24pairIK10KeyWrapperINS1_IP11Il2CppClassjEEES4_EES6_N6il2cpp8metadata14ArrayClassHashEN14dense_hash_mapIS6_S4_SB_NS6_14EqualsComparerINSA_17ArrayClassCompareEEENS0_9allocatorIS8_EEE9SelectKeyESF_SH_E12resize_deltaEjj
Yd:_JS_WebRequest_Release
vbs:_Version__ctor_mAE9D244FEE1023A26514EE0339E7D6F26824F0F7
_rt:__ZN6il2cpp6icalls8mscorlib6System4Type20internal_from_handleEi
lcp:_HashSet_1_OnDeserialization_m458FA5278C2F056085CAB484423C2E92C332836B_gshared
oce:__ZN14EmissionModule5ResetEv
Ozi:_CodeGenerator__cctor_m17A86A1080BAA5C99AFB482F3C6DA64343F2C640
hOf:__ZN5physx13PxsCCDContext12postCCDSweepEPNS_10PxBaseTaskE
qyt:__ZN6il2cpp8metadata15GenericMetadata7InflateEPK19Il2CppGenericMethodPK20Il2CppGenericContext
FBm:_Array_InternalArray__IndexOf_TisTouch_t806752C775BA713A91B6588A07CA98417CABC003_mABB72869BFD71D5F2FBDA6E5EE2A4D9E3EEBFEEC_gshared
HHb:__ZN19ShaderPropertySheet16SetArrayPropertyEN9ShaderLab16FastPropertyNameENS_12PropertyTypeEPKvj
hBl:_Material_DisableKeyword_m2ACBFC5D28ED46FF2CF5532F00D702FF62C02ED3
Jhk:_HandHeldCam__ctor_m37A1245C99C02E0DB4462F4033723E4FC429CA16
cEb:__ZN23TextureStreamingManager17SetFeatureEnabledEb
pYf:__ZN5physx23PxsDefaultMemoryManagerD0Ev
mgf:__ZN5physx2Sc21ArticulationJointCore12setChildPoseERKNS_11PxTransformE
w2n:_Environment_GetFolderPath_mC97C37AFEA0FBDD1FCE1AF7A873A5F794E804379
WAq:_Array_Sort_TisRuntimeObject_mA6017B09E070107BAC32A0D9C3B8C2FA802411D5_gshared
C3s:__ZN6il2cpp6icalls8mscorlib6SystemL23GetPropertiesByNameImplINS_5utils10functional10TrueFilterEEEP11Il2CppArrayPK10Il2CppTypejRKT_
l$s:_WWW_get_error_mED42EEAAE7847167CCEEFF2098563F78A79F8C2A
aNd:__ZN8GUIState8EndOnGUIEv
$Zg:__ZN11UnityEngine9Analytics25WebRequestDownloadHandler7OnAbortEv
Z0g:__ZN11UnityEngine15PlatformWrapper16GetApplicationIdEv
Bqt:__ZN6il2cpp6icalls8mscorlib6System2IO6MonoIO16get_ConsoleErrorEv
ELg:_UNITY_TT_Get_VMetrics
Kzr:_Array_InternalArray__get_Item_TisResourceInfo_t5A62A359608C2B68963B18537C38DA5B091DCD2A_m20628FD2A2C8A51923A1579874BC7AEEFF9DA54F_gshared
Qpj:_InternalEnumerator_1__ctor_mABCB077A93E60CC5CD531A2F1F6F1761DFB0A3D3_AdjustorThunk
fyj:__Z64Enumerator_get_Current_m865550B95AE1683AE7474B7B9AC2D8FAC6C8CD8FP52Enumerator_tBA5711AFB9BE004958CE6BD544CE7F7A23A4BF0DPK10MethodInfo
jXe:__ZN5physx27PxcPCMContactCapsuleCapsuleERKNS_2Gu13GeometryUnionES3_RKNS_11PxTransformES6_RKNS0_17NarrowPhaseParamsERNS0_5CacheERNS0_13ContactBufferEPNS_2Cm12RenderOutputE
WSr:_InvokableCall_1_Invoke_m26DE4294BD5AE5795A7D0CE8199DF4F56D277AC5_gshared
Unl:_Bounds_get_min_m2D48F74D29BF904D1AF19C562932E34ACAE2467C
HFc:__Z20SetupObjectLightmapsRK26SharedLightmapSettingsDataRK15LightmapIndicesR17ShaderPassContextb
Kqb:__ZN7Texture21GetMasterTextureLimitEv
Kxn:_Selectable_get_isPointerInside_m635EAD5952BCA4869A7D53E64886320C3EEE5788
HYa:__ZN13dynamic_arrayI9InputAxisLj0EE18resize_initializedEj12ResizePolicy
mhd:__Z12CanAddScriptR10GameObject17ScriptingClassPtrPS1_S2_
Jur:_Comparison_1_Invoke_m63C42CD68AA95CC787F1D4891FDAD5BFB248B89B_gshared
kqa:__ZN9ShaderLabL25StaticInitializeShaderLabEPv
o$l:__Z96RuntimeInvoker_FalseDouble_t2011D65DAF7D1FCBE71DD4CBDFA69A8F24643159_RuntimeObject_RuntimeObjectPFvvEPK10MethodInfoPvPS4_
Q:Math_max
Agt:__ZN6il2cpp2vm10Reflection12HasAttributeEP9FieldInfoP11Il2CppClass
QLa:__ZN9Scripting11UnityEngine8LODProxy9InitProxyEv
aim:__Z216RuntimeInvoker_FalseSByte_t50B643C59EE66E3364AED19D82E06B27BDE75268_Vector3_tDCF05E21F632FE2BA260C06E0D10CA81513E6720_Vector3_tDCF05E21F632FE2BA260C06E0D10CA81513E6720_Single_tF2613CF3F3AF0E8BEBC3CE8AD41479C44E6075DBPFvvEPK10MethodInfoPvPS4_
fQj:_ConstructionCall_get_ActivationType_m0340C6CDA318ED30E0A0225CD40173AA87689258
Sc:invoke_viiiiiffii
xEs:_CanvasRenderer_set_materialCount_m124AD7592DD6078E097C9FD6CBC5676341DBCA9E
Bbh:__Z64Register_UnityEngine_Networking_UnityWebRequest_get_isModifiablev
dvm:_Array_InternalArray__ICollection_Contains_TisUriScheme_tAC5BAEC36F275C5986740C3BE3FE2BEA8B512BDE_m57CBCC2D31F8671D30DEE4386ADFB97557630E4E_gshared
CEt:__ZN6il2cpp2os6Thread16GetCurrentThreadEv
v3l:__Z114RuntimeInvoker_TrueInt16_tBFC41132AB8E6B4E1F9D4A1E3CC46422BF453F3C_Int16_tBFC41132AB8E6B4E1F9D4A1E3CC46422BF453F3CPFvvEPK10MethodInfoPvPS4_
L6k:__ZN62OpCodes_t68E6B52B0B80EC63090337A0C70E8CD9CC57F560_StaticFields10set_Shr_98E48OpCode_tFBF4FC2990E657EA00DA0BB36BE0CC73515E6511
Ldd:__ZN10GameObject13ComponentPair15SetComponentPtrEPN5Unity9ComponentE
q9t:_glBlitFramebuffer__wrapper
$hg:__ZN5physx6shdfnd8internal8HashBaseINS0_4PairIKPKNS0_14NamedAllocatorEPKcEES6_NS0_4HashIS6_EENS1_11HashMapBaseIS6_S9_SC_NS0_20NonTrackingAllocatorEE6GetKeyESE_Lb1EE15reserveInternalEj
oHc:__ZN13dynamic_arrayIS_IP16CustomCullResultLj0EELj0EEC2Ej10MemLabelId
b_l:__Z143RuntimeInvoker_FalseInt64_tF61270729FC90F8A705A5FA6FE222C9644374ADF_RuntimeObject_Int32_tC16F64335CE8B56D99229DE94BB3A876ED55FE87_RuntimeObjectPFvvEPK10MethodInfoPvPS4_
rgt:__ZN14dense_hash_mapI10KeyWrapperINSt3__24pairIPK14Il2CppAssemblyP11Il2CppClassEEEj17ReflectionMapHashIS8_ENS9_14EqualsComparerINS1_8equal_toIS8_EEEENS1_9allocatorINS2_IKS9_jEEEEEC2EjRKSB_RKSF_
or:__ZNSt3__26__treeINS_12__value_typeIiN15HeightMeshQuery10HeightDataEEENS_19__map_value_compareIiS4_NS_4lessIiEELb1EEE13stl_allocatorIS4_L18MemLabelIdentifier78ELi16EEE7destroyEPNS_11__tree_nodeIS4_PvEE
uTp:_Texture_set_height_m601E103C6E803353701370B161F992A5B0C89AB6
iHr:_DataController_Update_m8BE1990B22B705A0BA75742D35855C96B39DBE81
c2m:_SmallXmlParser_ReadUntil_m31C9DF0EB8E51D7A7C6B45E0A40675E985E9F8E8
YLd:__ZN9Scripting11UnityEngine15TextEditorProxy9InitProxyEv
b2g:__ZN18BaseUnityAnalytics32SendEventDataToDispatcherServiceERN11UnityEngine9Analytics17DispatchEventDataEb
LMe:__ZNK5physx2Gu11ConvexHullV12hillClimbingERKNS_6shdfnd3aos5Vec3VE
Joo:_SystemException__ctor_m302B52BFCE3BDDE8C2F5DD573E5B5BE3FB8EE115
HMp:_RectTransform_get_rect_mE5F283FCB99A66403AC1F0607CA49C156D73A15E
x2:__ZN13RuntimeStaticINSt3__26vectorI12WebCamDeviceNS0_9allocatorIS2_EEEELb0EE13StaticDestroyEPv
Utb:__ZN6Sprite17MainThreadCleanupEv
i8c:__ZN33ScriptableRuntimeReflectionSystem12CleanupClassEv
U7:__ZN10AudioMixer14UpdateMuteSoloEv
Sjm:__Z363RuntimeInvoker_FalseVector2_tA85D2DD88578276CA8A8796756458277E72D073D_VoidU2A_t8A995245462F8BDC7319CC68F09ACF295FDD2879_VoidU2A_t8A995245462F8BDC7319CC68F09ACF295FDD2879_SByte_t50B643C59EE66E3364AED19D82E06B27BDE75268_SByte_t50B643C59EE66E3364AED19D82E06B27BDE75268_Int32_tC16F64335CE8B56D99229DE94BB3A876ED55FE87_VoidU2A_t8A995245462F8BDC7319CC68F09ACF295FDD2879PFvvEPK10MethodInfoPvPS4_
Unt:__ZNSt3__2plIcNS_11char_traitsIcEENS_9allocatorIcEEEENS_12basic_stringIT_T0_T1_EEPKS6_RKS9_
Flf:__ZN5physx6shdfnd5ArrayINS_3Scb13MaterialEventENS0_19ReflectionAllocatorIS3_EEE15growAndPushBackERKS3_
eNk:_Image_set_sprite_m51F205B44430C8FF8BB0AF1BA7D825978EE663F9
kd:_JS_Eval_ClearTimeout
sFp:_Int32_Parse_mF93B2C50DDBC196570E2EA8495DBA36F2CD75290
B5a:__ZN7ApiGLES16SetPatchVerticesEi
Xlp:__Z58Enumerator__ctor_mF91D9893CCAE279FAAD0D79E25C9EEA1B84A75BEP52Enumerator_tF6F64083C68E4559F0875A0E3BA9BCD1011CB35DP48List_1_tFCCBEDAA56D8F7598520FB136A9F8D713033D6B5PK10MethodInfo
B8p:_Parser_IsNameChar_m8BD0CA8F763F1AC6BE2CC64692B8F4A509562DF7
uYb:__ZNK25MultiBlocksMemoryFileData5CloneEv
xQa:__ZN9Scripting11UnityEngine12Experimental10PlayerLoop11EarlyUpdate27UpdateMainGameViewRectProxy12CleanupProxyEv
fDq:_Quads_HasMeshes_m35C72ACB9EB4FBD6AEE94CE4189E0E9C2E41F5A8
uLe:__ZL28GeomMTDCallback_PlaneCapsuleRN5physx6PxVec3ERfRKNS_10PxGeometryERKNS_11PxTransformES5_S8_
wXh:__ZL86UploadHandler_t24F4097D30A1E7C689D8881A27F251B4741601E4_CustomAttributesCacheGeneratorP21CustomAttributesCache
eBa:__ZN15GlobalCallbacksC2Ev
Yja:__ZN9profiling6MarkerC2EtPKcNS0_5FlagsE
Lte:__ZN7b2World10CreateBodyEPK9b2BodyDef
aib:__ZN6Camera8TransferI18StreamedBinaryReadEEvRT_
TOt:_GC_add_ext_descriptor
olb:__ZN26ProbeSetTetrahedralization8TransferI14SafeBinaryReadEEvRT_
t7r:_UInt16_System_IConvertible_ToBoolean_m729B51E96C0DDEB8BC7686C7CD8B3E87EFAE8204_AdjustorThunk
B5s:__ZNK15dense_hashtableINSt3__24pairIK10KeyWrapperINS1_IPK14Il2CppAssemblyP11Il2CppClassEEEjEES9_17ReflectionMapHashIS8_EN14dense_hash_mapIS9_jSD_NS9_14EqualsComparerINS0_8equal_toIS8_EEEENS0_9allocatorISB_EEE9SelectKeyESI_SK_E23find_position_with_hashERSA_j
BDg:_UNITY_FT_New_Memory_Face
WHl:_Plane__ctor_m6535EAD5E675627C2533962F1F7890CBFA2BA44A
lUr:_UnityAction_1_Invoke_m17ABEE101C7030994DA438A06855C68C2478C6B6_gshared
sWl:_X509Chain_GetAuthorityKeyIdentifier_m27CC78D0F73B4EFA2178D312CD42FEF95DCFD11E
C$o:_RC2__ctor_mE46F2DB91FF699F259F941B21B877F08635D7A4C
SJa:__ZN9Scripting11UnityEngine19SetupCoroutineProxy9InitProxyEv
QO:__ZN7mecanim9animation18CreateConstantClipERNS0_12ConstantClipEjR20RuntimeBaseAllocator
mPg:__ZN20TextRenderingPrivate21TextMeshGeneratorImpl5FlushEv
Yfj:_InternalEnumerator_1_get_Current_m97F91ACA72766726CD2315912B4693D6773263B7_AdjustorThunk
Pv:__ZNSt3__27__sort3IRPFbRK8Vector2fS3_EPS1_EEjT0_S8_S8_T_
LYh:__ZL106AnimatorTransitionInfo_t66D37578B8898C817BD5A5781B420BF92F60AA6B_CustomAttributesCacheGenerator_m_UserNameP21CustomAttributesCache
Xlf:__ZN5physx9NpPhysics16createConvexMeshERNS_13PxInputStreamE
wqa:__ZN24StaticInitializeInternal13ConstructTypeIN4core12basic_stringIcNS1_20StringStorageDefaultIcEEEELb0EEEPvS6_10MemLabelId
Pgd:__ZN16ReflectionProbes40UpdateRealtimeReflectionProbesTimeslicedEv
iub:__ZN14SafeBinaryRead21TransferSTLStyleArrayI13dynamic_arrayI8Vector2fLj0EEEEvRT_17TransferMetaFlags
ySf:__ZN5physx2Dy19solveContactCoulombERKNS_22PxSolverConstraintDescERNS0_13SolverContextE
hTp:_SystemInfo_SupportsComputeShaders_mEEA74BF6DA49185642F0E07824298D793904CB67
vyb:__ZN6prcoreL19RemapGenericIntegerI13TexFormatRG8817TexFormatARGB8888EEvPKNS_9InnerInfoE
RGc:__ZNK5RectTIfE9GetBottomEv
aPb:__ZNK30RuntimeInitializeOnLoadManager22GetTypeVirtualInternalEv
fnr:_ReadOnlyCollection_1_System_Collections_IList_Remove_mBA0A2F54C8C79FE80EE74AED71AF69B682FE29F2_gshared
_Bm:__ZN21InterfaceFuncInvoker2IiffE6InvokeEjP11Il2CppClassP12Il2CppObjectff
Lbk:_Convert_ToSByte_m4F1D009030C6EF940E8633D3B389EEA08D37D73D
_8c:__ZN16ReflectionProbes15InitializeClassEv
pol:_Camera_get_orthographicSize_m700FCD8CF48BC59A0415A624328B4A627B88D958
qXs:__ZNK15dense_hashtableINSt3__24pairIK10KeyWrapperIPK11Il2CppClassEPKcEES6_N6il2cpp5utils11PointerHashIS3_EEN14dense_hash_mapIS6_S9_SE_NS6_14EqualsComparerINS0_8equal_toIS5_EEEENS0_9allocatorISA_EEE9SelectKeyESJ_SL_E12test_deletedEj
myr:_Dictionary_2_Do_ICollectionCopyTo_TisKeyValuePair_2_t198F3EF99C5CB706B8E678896CA900035FACF342_m54BB70DB3D66EF1A3A34CAEB059AE086465235D8_gshared
rqp:_List_1__cctor_mAB029F6391AE725D0B6A099BF1DE047F6D3CCC50_gshared
put:__ZN6il2cpp2vm5Image9GetCorlibEv
IEj:_Context_CreateNewContext_mB7A49B0E84B3310A832CAA49988C92E6CE98ED00
hwo:_UnicodeEncoding_CopyChars_mF4CFF5C9AE925B29CCBFE569C3A3B2BCFDB3117D
mEp:_Int32_Parse_mCF650BF40C6EDE87EB40561817321AAD5B787C7B
qUr:_UnityAction_1_Invoke_mA1C7E7F22135000ABA0BB7E9AF2FFCEF0A94FB44_gshared
uNk:_Image_set_overrideSprite_m768A8407C3F0C85D18AED6CC01D000D90630DB66
MGa:__ZN9Scripting11UnityEngine12Experimental10PlayerLoopL54__ManagedRegistrationHelperFunction_PreLateUpdateProxyEPv
ork:_MobileInput_AddAxes_mFCC8D20AA89234FD66D6C1BF41C97AC830CF09F6
lrr:_ReadOnlyCollection_1_System_Collections_IList_Contains_mDDFCFAEEE4071E35232483A78B4D7E2F10153FBA_gshared
axa:__ZN13RuntimeStaticINSt3__23mapIN4core12basic_stringIcNS2_20StringStorageDefaultIcEEEES6_NS0_4lessIS6_EE13stl_allocatorINS0_4pairIKS6_S6_EEL18MemLabelIdentifier13ELi16EEEELb0EE13StaticDestroyEPv
feo:_SHA512Managed_Maj_mD58E70C5A29F4675C7DC328ACF421DCD976BBAEA
aef:__ZN5physx7NpScene14addRigidStaticERNS_13NpRigidStaticEb
zdg:__ZN5physx10SubSortSAH5sort4EPjjRNS_6shdfnd5ArrayINS_11RTreeNodeNQENS2_19ReflectionAllocatorIS4_EEEERjjPS4_
vup:_DirectoryInfo__ctor_m630838B2DE8CE93AB4046B38CB6E10B39CEE7223
p$p:_MRUList_Use_mE91C48A7113B295040FD49372BBFCC009658B34F
Elp:__Z95Enumerator_System_Collections_IEnumerator_get_Current_m96F41FCB5D0B6AA09CF00F9BE6F540239AD952DDP52Enumerator_t51F740EE79306E076AC0D76CC4A18136D7007B56PK10MethodInfo
IQf:__ZN5physx30PxsNphaseImplementationContext23registerContactManagersEPPNS_17PxsContactManagerEjj
_Bo:_TimeZone__cctor_m4F58EF6AE7F60DFC40BA1AE669AB09BD0347AA26
Ki:_glIsVertexArray
VCd:__Z66Register_UnityEngine_Graphics_Internal_GetMaxDrawMeshInstanceCountv
Rsp:_BinaryWriter_Write_mD5C14BDECF8BBEAC79612470326F6B0C7FB910ED
MJo:_SimpleCollator_MatchesBackward_m49B99FA614895F561479525DAF202E5C7CE09593
la:invoke_ffi
sRq:_PlanarReflection_Sgn_mF65F206B11B8123B0C1F1D49838C33A8F292F2BE
fKk:_GraphicRaycaster_get_sortOrderPriority_m0D90EA994ECD258C4987E601A156F780C5C6C485
oHn:_ASN1__ctor_mC35B4DE86D465D065D23C2A7F0BE2E2BD5BCE81B
qTs:__ZN14dense_hash_setI10KeyWrapperIPK19Il2CppGenericMethodEN6il2cpp8metadata23Il2CppGenericMethodHashENS4_14EqualsComparerINS6_26Il2CppGenericMethodCompareEEENSt3__29allocatorIS4_EEED2Ev
Xhg:__ZN5physx2Sc7PhysicsC2ERKNS_17PxTolerancesScaleERKNS_14PxvOffsetTableE
Xud:__Z34RenderTexture_Get_Custom_PropWidthP12Il2CppObject
Kgg:__ZNSt3__26__sortIRNS_6__lessI24InterpolationDepthHandleS2_EEPS2_EEvT0_S6_T_
uRg:__ZN2UI6Canvas17MainThreadCleanupEv
Bum:_Array_InternalArray__ICollection_Contains_TisSlot_t119E10B59127CCBEB2A2B8A81C92F03083B7F53D_m124403021D4E0E3098AD76F7736C1B02161F2224_gshared
Cco:_SHA384_Create_mA76A7D3D1C09F1C9C9826AAA033AF19F6A84ADE1
Y2s:__ZN6il2cpp6icalls8mscorlib6System8MonoType13GetInterfacesEP20Il2CppReflectionType
ioo:_String_memcpy1_m698D0242BB65BE7436F3D84744AEA04D8DF68EA5
vMa:__ZN9Scripting11UnityEngine23ExposedReference_1Proxy12CleanupProxyEv
UWj:_Byte_GetHashCode_m9B50A51264BBBE49D5A5D5CC1FAF37EBFDE443B0
Y5a:__ZN7ApiGLES13CreateProgramEv
aen:_SslStreamBase_InternalReadCallback_mB1B020DAE7247B29C0DCDA89A585F6A79FBDD2C5
$2j:_Hashtable__ctor_m13E187F83E5600741CEDD2149A4A9526A46853F9
u3t:b11
MAb:__ZN4crnd12crn_unpackerD2Ev
$af:__ZN5physx2IG19SimpleIslandManager14deactivateNodeENS0_9NodeIndexE
y4a:__ZN16MeshVertexFormat20GetVertexDeclarationER9GfxDevice16VertexInputMasksPKS_
Sla:__ZN18ScriptingArguments9AddStringEPKc
UNt:_setup_header
Dzo:_Timer_Change_m5E55732ABF1B2F8254B3373B6164ECAFAD74CDFE
al:FUNCTION_TABLE_fffi
gmk:_RigidbodyFirstPersonController_GroundCheck_m41D39AD4C2A8E0AAF83E05E8B17D1B67C6D7C2BA
JW:__ZN11UnityEngine9Animation30CreateAvatarBindingConstantOptER9TransformPKN7mecanim9animation14AvatarConstantER20RuntimeBaseAllocator
Gwb:__ZL23stbir__resize_arbitraryPvPKviiiS_iiiffffPfiij14stbir_datatype12stbir_filterS4_10stbir_edgeS5_16stbir_colorspace
GBj:_RuntimeHelpers_get_OffsetToStringData_m0D1F86E6F462118605A24C71597707A31AFB8B62
gja:__Z15strcpy_truncatePcPKcjj
W5b:__Z18Transfer_BlittableI24GenerateTypeTreeTransferLb1E8Vector4fEvRK29SerializationCommandArgumentsR31RuntimeSerializationCommandInfo
WZd:__ZNK24OptimizedPolynomialCurve26FindMinMaxDoubleIntegratedEv
fk:_pthread_detach
oLa:__ZN9Scripting11UnityEngine9Playables18PlayableAssetProxy9InitProxyEv
e$b:__ZN11MonoManager8TransferI19StreamedBinaryWriteEEvRT_
uDi:_EventSystem_RaycastAll_m69D6D670BD389053B4AA701482114D31D77B6A2E
BTt:__ZN6il2cpp8metadata24Il2CppGenericInstCompare7CompareERK10KeyWrapperIPK17Il2CppGenericInstES8_
Krd:__ZN15DirectorManager20ScheduleGraphDestroyERK14HPlayableGraph
Ssr:_ReadOnlyCollection_1_System_Collections_Generic_IListU3CTU3E_RemoveAt_m2D21A100D1BDE4F15FE4C458ADC4F60AFA3F329E_gshared
ccc:__ZNSt3__213__stable_sortIRN10vector_mapI17ScriptingClassPtrPKN5Unity4TypeENS_4lessIS2_EENS_9allocatorINS_4pairIS2_S6_EEEEE13value_compareENS_11__wrap_iterIPSB_EEEEvT0_SJ_T_NS_15iterator_traitsISJ_E15difference_typeEPNSM_10value_typeEi
tLb:__ZN24ScriptableRenderPipeline22FindUnityObjectFromSRPI8MaterialEEPT_N4core12basic_stringIcNS4_20StringStorageDefaultIcEEEE
prg:__ZNSt3__26vectorI14SplatPrototypeNS_9allocatorIS1_EEE8__appendEj
rbo:_Guid_ToString_m1AC15C35E4AA491B74CC6BBFC77C13991CE0ED56_AdjustorThunk
wu:__ZNK12NavMeshQuery18ClosestPointOnPolyEyRK8Vector3fPS0_
WZf:__ZN5physx2IG19SimpleIslandManager18firstPassIslandGenEv
p0c:__ZN9ShaderLab25SerializedTextureProperty8TransferI24GenerateTypeTreeTransferEEvRT_
QUf:__ZN5physx2Dy14BlockAllocator19reserveFrictionDataEj
Lvg:__ZN7Terrain10FlushDirtyEv
Pun:__ZN51Scrollbar_t8F8679D0EAFACBCBD603E6B0E741E6A783DB338914set_m_Value_20Ef
HRa:__ZN9Scripting11UnityEngine12Experimental9Playables27MaterialEffectPlayableProxy12CleanupProxyEv
$fa:__GLOBAL__sub_I_Runtime_Camera_RenderLoops_2_cpp
OMf:__ZN5physx2Sq20ExtendedBucketPruner12updateObjectERKNS_9PxBounds3ERKNS0_13PrunerPayloadEj
Qsg:__ZN12TreeRenderer20UpdateTreeSceneNodesEiby
N4q:_List_1__ctor_m8F41C1D090CA7262FB9BC88CF656E06C8DEBA2D3_gshared
P0e:__ZN19CharacterController13AwakeFromLoadE17AwakeFromLoadMode
O2:__ZN20DiagnosticSwitchEnumI14FMODDebugTypesE20ApplyPersistentValueEv
FQq:_MeshContainer__ctor_mD4CAB6952AE4DDD3672349ABEFA4385501EAC750
YAi:_BaseInput_get_touchCount_m60B5BAD15149059C24929FB7622364612FF2F073
bZl:_X509SubjectKeyIdentifierExtension__ctor_m21D1A7C7C4859D179ADA9765A97412522C84493B
Q$k:_ILGenerator_EmitCall_m82A6C79453F1688EB81CC37E7467AE2C65D06E0A
Fes:_DownloadHandler_GetText_mA51553E65D6A397E07AAAC21214C817AD72550FD
f9e:__ZN5physx2Sc16ShapeInteraction19sendLostTouchReportEbjRNS_31PxsContactManagerOutputIteratorE
sIl:_Locale_GetText_m630EDF9F6CCED5E0039023034125D4041E905038
XUd:__Z18Transfer_BlittableI8JSONReadLb1EyEvRK29SerializationCommandArgumentsR31RuntimeSerializationCommandInfo
l7b:__Z29Transfer_Blittable_ArrayFieldI24GenerateTypeTreeTransfer8Vector2fEvRT_R9ArrayInfoRK23StaticTransferFieldInfo
bBm:_Array_InternalArray__IndexOf_TisLabelFixup_t7AEAF33F4F33BA4B9AB82312D476BBEB4F308EC0_mA6F85AC0B23755B4427D1E10FF5B053C2CE2EEB9_gshared
A4a:__ZN9GfxDevice20GetVertexDeclarationERK18VertexChannelsInfoNS_30VertexDeclarationMRUCacheIndexE
U1t:dynCall_vfii
W9s:__ZN24dense_hashtable_iteratorINSt3__24pairIK10KeyWrapperINS1_IPK11Il2CppImageP11Il2CppClassEEEjEES9_17ReflectionMapHashIS8_EN14dense_hash_mapIS9_jSD_NS9_14EqualsComparerINS0_8equal_toIS8_EEEENS0_9allocatorISB_EEE9SelectKeyESI_SK_E30advance_past_empty_and_deletedEv
_5f:__ZN5physx13GuMeshFactory17createHeightFieldERNS_13PxInputStreamE
YB:__ZN9Scripting11UnityEngineL49__ManagedRegistrationHelperFunction_AnimatorProxyEPv
ruc:__ZN18GfxFramebufferGLES5ClearE13GfxClearFlagsRK10ColorRGBAffib
m1i:_InternalEnumerator_1_MoveNext_m5AFF7CE13F30867E67327E5C1665F2F3C5D1DBB4_AdjustorThunk
Nwq:_Array_InternalArray__ICollection_CopyTo_TisKeyValuePair_2_t198F3EF99C5CB706B8E678896CA900035FACF342_m1117F1A3F9ABFE9CF86B219387299A209B293076_gshared
uto:_Latin1Encoding_GetCharCount_m25FC4B63457EC2200AE07A999E2FA9E742FDDE8B
SDo:_Type_make_byref_type_m7EB91C04527FDFFE1CAD05628BBF9E1E7E5BDD75
woq:_ValueCollection_System_Collections_Generic_ICollectionU3CTValueU3E_Remove_m97129AF57753C5DAA194486E90985307C8DAB388_gshared
znt:__ZN15dense_hashtableINSt3__24pairIK10KeyWrapperINS1_IP11Il2CppClassjEEES4_EES6_N6il2cpp8metadata14ArrayClassHashEN14dense_hash_mapIS6_S4_SB_NS6_14EqualsComparerINSA_17ArrayClassCompareEEENS0_9allocatorIS8_EEE9SelectKeyESF_SH_E13clear_deletedER30dense_hashtable_const_iteratorIS8_S6_SB_SJ_SF_SH_E
FBc:__ZL12DepthPassJobPN21GfxDeviceAsyncCommand10ArgScratchEPKNS_3ArgE
H_c:__ZNSt3__26vectorIN9ShaderLab20SerializedSubProgram16TextureParameterENS_9allocatorIS3_EEE6assignINS_11__wrap_iterIPS3_EEEENS_9enable_ifIXaasr21__is_forward_iteratorIT_EE5valuesr16is_constructibleIS3_NS_15iterator_traitsISC_E9referenceEEE5valueEvE4typeESC_SC_
tYd:__ZN5Unity9rapidjson6WriterI16TempBufferWriterNS0_4UTF8IcEES4_13JSONAllocatorE11WriteDoubleEd
K1f:__ZN5physx2Cm12DelegateTaskINS_2Sc5SceneEXadL_ZNS3_10postSolverEPNS_10PxBaseTaskEEEE11runInternalEv
P8m:_RecordProtocol_EndSendRecord_m618459F7E701841134A4A9954A790F8172D272F6
iGe:__ZN9Rigidbody16ApplyConstraintsEv
V1a:__ZN14GfxDeviceStats16CopyAllDrawStatsERKS_
_Mh:__ZL147Camera_t48B2B9ECB3CE6108A98BF949A1CECF0FE3421F34_CustomAttributesCacheGenerator_Camera_GetAllCamerasCount_mBA721F43F94AA5DB555461DE11351CBAF8267662P21CustomAttributesCache
Yxl:_GL_End_m7EDEB843BD9F7E00BD838FDE074B4688C55C0755
rZd:__ZN11MinMaxCurve5ResetE23ParticleSystemCurveModef
vm:FUNCTION_TABLE_iiiiiiiiiiii
rMq:_SimpleActivatorMenu_OnEnable_m4E4371283A3E1CFE6DE5C596F048B0BCE98F6285
W_d:__ZNK14ParticleSystem27CalculateMaxActiveParticlesEv
Ucf:__ZN5physx2IG9IslandSim7addNodeEbbNS0_4Node8NodeTypeENS0_9NodeIndexE
uas:_UIntPtr_Equals_m099FA719C2D00C6231F941B1651A1165743C84CA_AdjustorThunk
TBf:__ZNK5physx7NpScene16getArticulationsEPPNS_14PxArticulationEjj
uwb:__ZN6prcore9BlitImageERK14ImageReferenceRS0_13ImageBlitMode
rjb:__ZN16GraphicsSettingsD0Ev
Iha:__Z12FormatBufferPciPKcz
NHm:_MonoType_GetFields_internal_m185F02E5C8EC6AEB86B4EABD54B826FC1BB28337
fZg:__ZNSt3__26__treeINS_12__value_typeIN4core12basic_stringIcNS2_20StringStorageDefaultIcEEEE14CallbackArray3IRKS6_R8JSONReadbEEENS_19__map_value_compareIS6_SD_NS_4lessIS6_EELb1EEE13stl_allocatorISD_L18MemLabelIdentifier6ELi16EEE7destroyEPNS_11__tree_nodeISD_PvEE
n:cttz_i8
V2p:_IntStack_Push_m1A4775A655E9ADFED00ABB305C784309E80C3096_AdjustorThunk
XEg:_UNITY_FT_GlyphLoader_Add
mot:__ZN6il2cpp2vm9Exception23GetInvalidCastExceptionERKNS_5utils10StringViewIDsEE
NTf:__ZN5physx6shdfnd5ArrayIPNS_2Dy12ArticulationENS0_19ReflectionAllocatorIS4_EEE8recreateEj
vSe:__ZN5physx11PxMeshQuery5sweepERKNS_6PxVec3EfRKNS_10PxGeometryERKNS_11PxTransformEjPKNS_10PxTriangleERNS_10PxSweepHitENS_7PxFlagsINS_9PxHitFlag4EnumEtEEPKjfb
mfr:_Collection_1_Remove_m783EEB8860D235D4F6FA92E1455F08D225E4A505_gshared
Pis:_X509Chain_FindCertificateParent_mD7DE692A61897D3091F4C7A9F1663ED9DAB5116A
RWq:_List_1_System_Collections_IList_IndexOf_mA92F074198E63867B968F7FD6492EAAC6BBBDE95_gshared
CYf:__ZN5physx6shdfnd5ArrayIPhNS0_19ReflectionAllocatorIS2_EEE8recreateEj
oXp:_Vector2_get_magnitude_m66097AFDF9696BD3E88467D4398D4F82B8A4C7DF
rGg:_cff_parse_font_bbox
w4d:__Z25UpdateOrbitalAndRadialTplIL27ParticleSystemCurveEvalMode1ELS0_1ELS0_0EEvRK11MinMaxCurveS3_S3_S3_S3_S3_S3_R23ParticleSystemParticlesjjRKN4math8float3x3ERKNS6_7affineXERKNS6_7_float4E
M0l:__Z238RuntimeInvoker_FalseVoid_tDB81A15FA2AB53E2401A76B745D215397B29F783_RuntimeObject_Int64_tF61270729FC90F8A705A5FA6FE222C9644374ADF_RuntimeObject_Int64_tF61270729FC90F8A705A5FA6FE222C9644374ADF_Int64_tF61270729FC90F8A705A5FA6FE222C9644374ADFPFvvEPK10MethodInfoPvPS4_
bJt:__ZN4utf88internal15sequence_lengthIPKcEENSt3__215iterator_traitsIT_E15difference_typeES6_
Ez:__ZN13ProduceHelperI22NavMeshProjectSettingsLb0EE7ProduceE10MemLabelId18ObjectCreationMode
pUn:_DateTimeOffset_CompareTo_m459DA87F88E220181E649D4E0A0ABBC537FB385D
UUt:__ZN6il2cpp2os5Event5ResetEv
r5g:__ZN11UnityEngine9Analytics15ContinuousEvent29ScriptingObjectTypeToFactoryTIdE27SetEventHistogramThresholdsEPNS1_9EventDataEi18ScriptingObjectPtr
FJg:_tt_name_ascii_from_other
Uxt:__ZN6il2cpp8metadata15GenericMetadata17InflateParametersEPK13ParameterInfohPK20Il2CppGenericContextb
Yra:__ZN18AwakeFromLoadQueue28InvokePersistentManagerAwakeEPNS_4ItemEj17AwakeFromLoadMode
pAn:_Slider_get_axis_m9F710E0C68A9BB669EEAEC975162175F7739EB0D
y9l:__Z215RuntimeInvoker_FalseSByte_t50B643C59EE66E3364AED19D82E06B27BDE75268_Int32_tC16F64335CE8B56D99229DE94BB3A876ED55FE87_VoidU2A_t8A995245462F8BDC7319CC68F09ACF295FDD2879_VoidU2A_t8A995245462F8BDC7319CC68F09ACF295FDD2879PFvvEPK10MethodInfoPvPS4_
xEr:__ZNK58ExperimentConfig_tF8A252D18E9539CE5F548DEFCA7E19EFCD2A9E4D28get_finalGoalHitPauseTime_45Ev
fF:__ZNK17AnimationPlayable27GetNextCompatibleDescendantEj
Kpf:__ZN5physx2Sc14ConstraintCore9setBodiesEPNS0_9RigidCoreES3_
Gze:__ZN34b2SolveDiscreteIslandBodySleepTask7TaskJobEPS_j
Ytj:_Comparer_1_System_Collections_IComparer_Compare_m650021D5752E4D9C32B0472557D7F482DDE38965_gshared
oS:__ZN18StreamedBinaryRead21TransferSTLStyleArrayI13dynamic_arrayIN11UnityEngine9Animation14GenericBindingELj0EEEEvRT_17TransferMetaFlags
jWd:__ZN8JSONRead8TransferI13dynamic_arrayI11ColorRGBA32Lj0EEEEvRT_PKc17TransferMetaFlagsb
t2n:_Environment_internalGetEnvironmentVariable_mE99381951157A11D4E27B31EC42D0FAC641CD13E
Fel:_MonoField_CheckGeneric_m17EB04F9AC50571B2DAB0CF01C3CDBEFEEB6F315
Npl:_Color__ctor_mC9AEEB3931D5B8C37483A884DD8EB40DC8946369_AdjustorThunk
xgc:__Z25SetNeedToPerformRenderingb
d3i:_InternalEnumerator_1_System_Collections_IEnumerator_get_Current_mC7E97DA387567F21C44DE314701D0C682169823B_gshared
Rae:__ZN12LightsModule8TransferI17RemapPPtrTransferEEvRT_
hkg:__ZN5Unity12PhysicsQuery13OverlapSphereEiRK8Vector3ffi23QueryTriggerInteraction
C$g:__ZN8JSONRead12TransferPairINSt3__24pairIN4core12basic_stringIcNS3_20StringStorageDefaultIcEEEEN11UnityEngine9Analytics16LimitEventConfigEEEEEvRT_17TransferMetaFlagsPKN5Unity9rapidjson12GenericValueINSG_4UTF8IcEE13JSONAllocatorEE
B9a:__ZN10GameObjectD2Ev
$Bc:__ZN14qsort_internal30FindAndMovePivotToLastPositionIP15RODataDepthPassi17ROSorterDepthPassEEvT_S4_T0_T1_
CLj:_SynchronizationAttribute__ctor_mE295E4A79B5FD3F959088C45625DAB56BF031D06
kxq:_Array_InternalArray__ICollection_CopyTo_TisX509ChainStatus_t60E8382F80CC9E801B291F443817D53825719725_m3AE499A9FC563E2AEC1C1C752CA79D69475D967D_gshared
Ffe:__ZN29InitialModulePropertyBindings13GetFloatValueERK14ParticleSystemi
Wbk:_Convert_ToSingle_mBC6988B4886282A3A653D639BA29EE2110A1F522
bDp:_UnmanagedMemoryStream_set_Position_m6C6D1CDAE0A269C7DDF68573C7B99741CCD69552
lfj:__Z68InternalEnumerator_1__ctor_m230546C26225230955E5F3A8CEB6713524A4957AP62InternalEnumerator_1_t2BA2153AEF70C157B941D1D555132CFAB2A2D33FP11Il2CppArrayPK10MethodInfo
qRc:__ZN12CullingGroup10SendEventsEPK17CullingGroupEventj
eBi:_BaseInputModule_get_input_m385A99609A705346D5288D047EE17374ED406BE7
Kkg:__ZN5physx11PxTransformC2ERKNS_6PxVec3E
Gup:_FileStream__ctor_mEBDC7830FFEE997544BDA0B10DFCD8D7F28F13B3
oIb:__ZThn32_NK8Renderer8GetLayerEv
P_e:__ZN5physx47PCMSphereVsHeightfieldContactGenerationCallbackD2Ev
Bqk:_VirtualButton_get_GetButtonDown_m15C8324EB49ADCFC2884FF5E4AE09E22B068DDB6
QIf:__ZN5physx3Scb5SceneD2Ev
xib:__ZN9Coroutine16CleanupCoroutineEPv
wGg:_cff_parse_vsindex
JTk:__ZNK52InputField_t533609195B110760BCFF00B746C87D81969CB00533get_m_ShouldActivateNextUpdate_49Ev
gjt:__ZNSt3__26vectorIiNS_9allocatorIiEEEC2ERKS3_
Put:__ZN30dense_hashtable_const_iteratorINSt3__24pairIK10KeyWrapperINS1_IPKcS4_EEEiEES6_24NamespaceAndNamePairHashN14dense_hash_mapIS6_iS9_NS6_14EqualsComparerI26NamespaceAndNamePairEqualsEENS0_9allocatorIS8_EEE9SelectKeyESD_SF_E30advance_past_empty_and_deletedEv
fAk:_ContrastStretch_OnDisable_mF58FFAEA13503A308C1655FE7674DBE7E4DA7965
D_f:__ZN5physx2Sc5Scene16finishBroadPhaseEjPNS_10PxBaseTaskE
LQr:__ZN28GenericInterfaceFuncInvoker1Ib49Color32_t23ABC4AE0E0BDFD2E22EE1FA0DA3904FFE5F6E23E6InvokeEPK10MethodInfoP12Il2CppObjectS0_
D1:__ZN9Scripting11UnityEngine21BuildCompressionProxy12CleanupProxyEv
Gci:__ZL86CreaseShading_t83AB094A1B48DE6BF1E334A113B0BEFC2B16B1C4_CustomAttributesCacheGeneratorP21CustomAttributesCache
O1s:__ZN6il2cpp2vm7Runtime23GetGenericVirtualMethodEPK10MethodInfoS4_
U$b:__Z18Transfer_BlittableI14SafeBinaryReadLb1E9BoundsIntEvRK29SerializationCommandArgumentsR31RuntimeSerializationCommandInfo
T4c:__ZN2UI13RectTransform17GetLocalPositionZEv
RId:__Z57Register_UnityEngine_RectTransform_set_anchorMin_Injectedv
Vht:_il2cpp_method_get_param_count
Bwa:__ZNK5Unity4Type21FindAllDerivedClassesER13dynamic_arrayIPKS0_Lj0EENS0_17TypeFilterOptionsE
Kpd:__ZN8Material19SetBufferFromScriptEiP13ComputeBuffer
xbt:__ZNK15dense_hashtableINSt3__24pairIK10KeyWrapperINS1_IPK12PropertyInfoP11Il2CppClassEEEjEES9_17ReflectionMapHashIS8_EN14dense_hash_mapIS9_jSD_NS9_14EqualsComparerINS0_8equal_toIS8_EEEENS0_9allocatorISB_EEE9SelectKeyESI_SK_E3endEv
kVt:__ZN6il2cpp8metadata26Il2CppGenericMethodCompare6EqualsEPK19Il2CppGenericMethodS4_
p5m:_Array_CreateInstance_m3D7BB805DE315D20437F37E08CDAC440EB39F1A0
pRo:_ObjectManager_DoFixups_mF9A845CFCF0B830E030E8093DD73C4F0803C73EF
pFd:__Z40Transform_CUSTOM_TransformPoint_InjectedP12Il2CppObjectRK8Vector3fRS1_
CNg:_ps_dimension_done
rHd:__Z52Register_UnityEngine_SystemInfo_SupportsImageEffectsv
dVb:__ZN12ScriptMapper23VirtualRedirectTransferER18StreamedBinaryRead
Wsg:__ZN12TreeRenderer21GenerateBillboardMeshER4MeshRK13dynamic_arrayIjLj0EEbP21ImposterRenderTexture
HGb:__ZN16LightmapSettings8TransferI14SafeBinaryReadEEvRT_
Mnc:__ZN17BufferManagerGLES13ReleaseBufferEP14DataBufferGLES
I8f:__ZN5physx6shdfnd5ArrayIPvNS0_19ReflectionAllocatorINS_16NpConnectorArrayEEEE15growAndPushBackERKS2_
akt:___cxx_global_var_init_2_42863
eLm:_NumberFormatter_FormatHexadecimal_m1D58B23360D0672B772D5887E51297DD0F2BA926
jRm:_CustomAttributeTypedArgument_Equals_m1FAE093A568C6E40BA04F5432E24994E7D18D464_AdjustorThunk
JLf:__ZN5physx2Sq11PruningPool11preallocateEj
UUd:__Z18Transfer_BlittableI8JSONReadLb1EjEvRK29SerializationCommandArgumentsR31RuntimeSerializationCommandInfo
sac:__Z18Transfer_BlittableI18StreamedBinaryReadLb1E5RectTIfEEvRK29SerializationCommandArgumentsR31RuntimeSerializationCommandInfo
qHq:_CameraRefocus_ChangeParent_m5D152558E53C0AA48620FB56F64F3203605DB5B8
Dgj:_InternalEnumerator_1_get_Current_m29BF72823AAC7DCC746AAAFD28B9FA93AEA89A31_gshared
NPn:_ClientRecordProtocol__ctor_m52CE1023D09E1383A7BB347F28804091A72BE8D6
Y1g:__ZN4core8hash_setINS_12basic_stringIcNS_20StringStorageDefaultIcEEEENS_4hashIS4_EENSt3__28equal_toIS4_EEE6insertERKS4_
HAj:_ResourceSet__ctor_m6C4A1FAA1E4E0AAAB0D087B78CFFE55218388997
rjm:__Z81RuntimeInvoker_TrueRuntimeObject_Single_tF2613CF3F3AF0E8BEBC3CE8AD41479C44E6075DBPFvvEPK10MethodInfoPvPS4_
t9:__Z30GetAudioSpatializerDefinitionsR13dynamic_arrayIP29AudioEffectInternalDefinitionLj0EE31UnityAudioEffectDefinitionFlags
YTm:_DynamicMethod_Finalize_mBE804ED74C508DEE0E3387520025030AEAFFE855
Wxn:_Selectable_FindSelectableOnLeft_m501FD2B988BBFFDAD318800A4D164FB21F1AE315
mYh:__ZL94AnimationClipPlayable_t6EF38F9EED94096D4793638AFC8D11D285B43183_CustomAttributesCacheGeneratorP21CustomAttributesCache
ao:stackSave
nGa:__ZN9Scripting11UnityEngine12Experimental10PlayerLoop14PostLateUpdateL63__ManagedRegistrationHelperFunction_PlayerSendFrameStartedProxyEPv
apl:_Camera_WorldToScreenPoint_m880F9611E4848C11F21FDF1A1D307B401C61B1BF
XNg:_ps_dimension_end
NOf:__ZN5physx2Gu18UnimplementedSweepERKNS0_8CCDShapeES3_RKNS_11PxTransformES6_S6_S6_fRNS_6PxVec3ES8_fRjf
rEd:__Z41Register_UnityEngine_Mesh_Internal_Createv
WKo:_ModulusRing__ctor_mC6C15ADAB65C6AD2D3D553433695B4BC305B1740
Xwe:__ZNSt3__27__sort3IRN18Overlap2DQueryBase29ColliderHitsByDepthComparitorEPP10Collider2DEEjT0_S7_S7_T_
UCc:__Z24EndRenderQueueExtractionP29RenderNodeQueuePrepareContextRK13dynamic_arrayIP16CustomCullResultLj0EE
mlr:_ReadOnlyCollection_1_System_Collections_IList_Add_m26B79F23BB25FE2E54C4127167E84DEBED9DC6E6_gshared
ePl:_IPv6Address__ctor_m64631268F717DE8CBD1E59E6EA2A4CDBCA8284CD
WNn:_CipherSuite_set_Context_mB935F453AC0FF85DFE5D8BCA829F36894970E1D0
agd:__ZN6Camera9SetAspectEf
MXn:_Double_IsNaN_m80AE1B9E4905E4236745F1CB88A7E048B40CFC3B
Ksp:_BinaryWriter_Dispose_m0FAEC8960108C53658B95665A3A160F5E487D653
nHm:_SByteComparer_Compare_m65F9C0CA5E843DBA79E4CB2FD60D6E5764A18F98
Tqt:__ZN6il2cpp6icalls8mscorlib6System2IO6MonoIO5WriteEiP11Il2CppArrayiiPi
ekm:__Z133RuntimeInvoker_TrueTextGenerationSettings_t37703542535A1638D2A08F41DB629A483616AF68_Vector2_tA85D2DD88578276CA8A8796756458277E72D073DPFvvEPK10MethodInfoPvPS4_
QHe:__ZThn4_N5physx3Cct26CharacterControllerManagerD0Ev
ATj:_MethodResponse_get_MethodName_m4F6DB95746BDDA4DA41305EEE433D66C62FCD67E
Aab:__ZN9Transform37InitializeTransformHierarchyRecursiveER18TransformHierarchyRii
_3a:__ZN26SinglePassStereoSupportExt23SetupStereoMatrixParamsE21MonoOrStereoscopicEye24BuiltinShaderMatrixParamRK10Matrix4x4f
s_f:__ZN5physx2Sc24ElementInteractionMarkerC2ERNS0_10ElementSimES3_b
Dke:__Z19UpdateWholeSheetTplILN8UVModule8TimeModeE0EL27ParticleSystemCurveEvalMode3EEvfRK11MinMaxCurveS5_RKN4math7_float2ERK23ParticleSystemParticlesPf
pij:_InternalEnumerator_1_Dispose_mE6DD6F266A96E31C5BBCA6D030F92C4AD2068CA2_AdjustorThunk
X$a:__ZN9GfxDevice23CreateAsyncReadbackDataEv
Vme:__ZN14ParticleSystem22UpdateAllTransformDataEv
H8g:__ZNK25UnityWebRequestJavaScript16GetUploadedBytesEv
Dca:__Z46AudioListener_CUSTOM_GetNumExtensionPropertiesP12Il2CppObject
z6e:__ZN14SphereCollider23VirtualRedirectTransferER24GenerateTypeTreeTransfer
T5s:__ZN30dense_hashtable_const_iteratorINSt3__24pairIK10KeyWrapperINS1_IPK14Il2CppAssemblyP11Il2CppClassEEEjEES9_17ReflectionMapHashIS8_EN14dense_hash_mapIS9_jSD_NS9_14EqualsComparerINS0_8equal_toIS8_EEEENS0_9allocatorISB_EEE9SelectKeyESI_SK_EppEv
l0j:_BitArray_CopyTo_m93A83CF33545236288CFC12EC773A18D1A547A14
Iee:__ZN27ColorModulePropertyBindings13AddPropertiesER10vector_mapIi22ParticleModulePropertyNSt3__24lessIiEENS2_9allocatorINS2_4pairIiS1_EEEEE
_6r:_TypeInitializationException__ctor_m6E5EC4853C86B3F976E9BBAA8B0C237F1DCF0B39
T1q:_List_1_AddEnumerable_mFF7593F5EAA32830A8DB06F56A6037CDA673631D_gshared
GZh:__ZL88EventType_t3D3937E705A4506226002DAB22071B7B181DA57B_CustomAttributesCacheGenerator_keyUpP21CustomAttributesCache
iIn:_ARC4Managed_set_Key_mA14B15634DB2F668B57429AE70A4ACE189F3D963
Uhe:__ZL16ParticleGeomInitILb0EEvRK31ParticleSystemParticlesTempDatajRN4math8floatNx3ERK23ParticleSystemParticlesS5_S5_RKNS3_7_float4EPKfSB_SD_SB_RKNS3_5_int4EbSB_
F$r:_GUIStyle_Draw_m7979DC59FA2B5B6200764FC208F8104FE4F886E3
Cmc:__ZN13GfxDeviceGLES26SetRandomWriteTargetBufferEi15ComputeBufferID
bfs:_UnityWebRequest_SetCustomMethod_mC818FAC0FD8B91FD454C6DFBF7561EEE2D0BA4F4
n2i:_InternalEnumerator_1_System_Collections_IEnumerator_get_Current_m3057F8A5EF4D367743FA548912AC973C68514D0D_gshared
mgb:__ZN18BlockRangeInternal16PopLastNodeIndexEP10BlockRangeji
FQk:_InputField_set_text_mB4B4573F3DD8E2D1430A09E42B1777AC4A94AA2B
_vc:__ZZ23InitPlayerLoopCallbacksvEN49EarlyUpdateResetFrameStatsAfterPresentRegistrator7ForwardEv
VYt:_poll
Ppl:_Color_ToString_m17A27E0CFB20D9946D130DAEDB5BDCACA5A4473F_AdjustorThunk
AKd:__ZN14CrashReporting10StackFrameC2ERKS0_
vut:__ZN6il2cpp2vmL36AddNestedTypesToNametoClassHashTableEP40Il2CppNameToTypeDefinitionIndexHashTablePKcRKNSt3__212basic_stringIcNS5_11char_traitsIcEENS5_9allocatorIcEEEEP11Il2CppClass
MNf:__ZN5physx6shdfnd5ArrayINS_16PxsCCDBlockArrayINS_13PxsCCDOverlapELi128EE9BlockInfoENS0_19ReflectionAllocatorIS5_EEE15growAndPushBackERKS5_
B7e:__ZNK5physx7NpShape8getFlagsEv
QAb:__ZN4crnd12crn_unpacker11unpack_dxt1EPPhjjj
Ujd:__ZNK11ICallString6ToUTF8Ev
Nhg:__ZN5physx9NpPhysics20MeshDeletionListener28onGuMeshFactoryBufferReleaseEPKNS_6PxBaseEt
fIo:_SimpleCollator_ClearBuffer_mDE7164E647F2C49A3AFF338F39A567A94ADC2605
zLt:_GC_number_stack_black_listed
S_l:__Z108RuntimeInvoker_TrueRuntimeObject_RuntimeObject_RuntimeObject_Int32_tC16F64335CE8B56D99229DE94BB3A876ED55FE87PFvvEPK10MethodInfoPvPS4_
aCc:__ZNSt3__211__sift_downIR17ROSorterDepthPassP15RODataDepthPassEEvT0_S5_T_NS_15iterator_traitsIS5_E15difference_typeES5_
jsb:__ZN18UnityPropertySheet11UnityTexEnvC2Ev
Nwd:__Z47GameObject_CUSTOM_Internal_AddComponentWithTypeP12Il2CppObjectS0_
iKa:__ZN9Scripting11UnityEngine9Rendering22ShaderKeywordTypeProxy9InitProxyEv
fU:__ZN8Animator17ApplyOnAnimatorIKEiRNS_11AnimatorJobE
vva:__ZN12FileAccessor4ReadEyyPvPy
MFp:_Int64_System_IConvertible_ToDecimal_mAA44B7108E0D4C91D6502284406272A89E7AB67A
gug:__ZN22ForwardLinearAllocatorD2Ev
Yhl:_TypeDelegator_GetField_mE2D77B62B41D2032B1A64E3BDCCBA74479523384
u4h:__ZL96IGraphicEnabledDisabled_tE38F1E77E86E99A2257AF2AC71384859B8F5E7EC_CustomAttributesCacheGeneratorP21CustomAttributesCache
FDd:__Z46Register_UnityEngine_RectOffset_InternalCreatev
oyl:_GameObject_set_layer_mDAC8037FCFD0CE62DB66004C4342EA20CF604907
OXp:_Vector2_get_up_mC4548731D5E7C71164D18C390A1AC32501DAE441
oTc:__ZN13RenderTexture9SetHeightEi
jaa:__ZN11AudioSource26KillActiveProviderChannelsEv
kjb:__ZNK6Camera20IsCurrentlyRenderingEv
tio:_Hash_ToString_mB2B1CBEAD16B197D8ED1377D9CA318F1B07F3F60
yF:__ZN7mecanim9animation17ClearMotionOutputEPNS0_18AnimationNodeStateE
rZm:_PKCS12__ctor_mA7878457477E0DE0B0DA2DE92B41CA4E401DE199
$Js:_FreeFunctionAttribute__ctor_m18D7DE98494E55663EB23287EE6DB00E6649241F
ibg:__ZN5local9QuickHullD2Ev
Kyl:_Gradient_Cleanup_mD38D8100E8FAAC7FBD5047380555802E638DF718
Rjp:__Z60Enumerator_Dispose_mA3DDF77FA8B64B586C38FCB7F17CB080E82F4A0FP52Enumerator_tAE2CDFF1624D7D03322ABF5ECA6BE02364C441A3PK10MethodInfo
hZe:__ZN5physx6shdfnd5ArrayINS_2Gu14SortedTriangleENS0_15InlineAllocatorILj2048ENS0_19ReflectionAllocatorIS3_EEEEE15growAndPushBackERKS3_
yKg:_tt_cmap8_char_index
En:FUNCTION_TABLE_viiiifffi
Ghp:__Z64Enumerator_get_Current_mCFA0345377EFBB429E6C89FBA09C60B83CFA126AP52Enumerator_t8529014255A2FE7AE5F2DA498D7AC77DC219D0BDPK10MethodInfo
d6m:_Array_ConstrainedCopy_mFF25137CD4AF4A1476BC2777771330FFE5ABE469
gpq:_ValueCollection_System_Collections_ICollection_get_SyncRoot_m3A2D29E7D119B3D862E5A826FDD11C4FF031FA26_gshared
Ola:__Z24scripting_class_get_name17ScriptingClassPtr
BCi:_BaseRaycaster_OnDisable_mEC294CBC0665FC0B8DC0C6E1214C168A04E34BC7
xDa:__ZN13RuntimeStaticI15GUIEventManagerLb0EE13StaticDestroyEPv
sw:__ZNSt3__27__sort4IR17DetailNodeXSorterP16DetailMeshBVNodeEEjT0_S5_S5_S5_T_
J1b:__Z29Transfer_Blittable_ArrayFieldI14SafeBinaryReadjEvRT_R9ArrayInfoRK23StaticTransferFieldInfo
Guo:_UTF32Encoding_GetPreamble_m134FFB7A5FBA00051A93A3759A3D92ABA45B6D11
ng:_emscripten_set_keydown_callback
tgq:_KeyCollection_System_Collections_Generic_ICollectionU3CTKeyU3E_Remove_m4811EFE4159ABA77CF0FBA326A1F39454DDD567B_gshared
Zyj:_Enumerator_get_CurrentValue_m1DE959AC538047CFA1B59BD05548D049284C4D0F_gshared
aCl:_Mathf_Clamp_mE1EA15D719BF2F632741D42DF96F0BC797A20389
M_d:__ZN18ColorBySpeedModule8TransferI14SafeBinaryReadEEvRT_
Dva:__ZN12FileAccessorC2Ev
vel:_MonoField_get_DeclaringType_m1B7E23E1D5A82DC9E5B9032A0D9BD54F0E280722
IIb:__ZNK8Renderer29FlattenPerMaterialCustomPropsER22PerThreadPageAllocatorR10RenderNode
C2d:__Z15UpdateRandomTplIL27ParticleSystemCurveEvalMode0EEvRK11MinMaxCurveS3_S3_R5RandNR23ParticleSystemParticlesjjRKN4math8float3x3ERKNS8_7_float4E
EFe:__ZN5Unity5Joint18SetConnectedAnchorERK8Vector3f
zto:_Latin1Encoding_GetString_mFDE046F2F4F3A1DF03CBBE5F6807D3FC720541ED
Yme:__ZN14ParticleSystem16AssignRayBudgetsEv
Via:__ZN14StackAllocator10ReallocateEPvji
nto:_ForwardingDecoder_GetChars_m86BAC45F97059C5AFF771E125CB8BFC0E7E3D8A2
bde:__ZN16CustomDataModuleD2Ev
Ewe:__ZNSt3__27__sort3IR22InverseDepthComparitorP8DepthHitEEjT0_S5_S5_T_
IIk:_Graphic_get_canvasRenderer_m3CCAFCDBCEB38A281BAAB89F2832171BB3D348A6
vbk:_Convert_ToInt64_m74F1DAF64DF09BAB3F0AB26BDA3333015688B42E
Xmf:__ZNK5physx14NpArticulation26getInternalDriveIterationsEv
kze:__ZN14qsort_internal18QSortSingleJobDataIPN25b2SynchronizeFixturesTask14b2DeferredMoveEiPFbRKS2_S5_EE7SortJobEPS8_
_Kr:__ZNK56GameController_t8BB0D3CE8992C95BED5FB508588730F0A74009A328get_finalGoalHitPauseTime_63Ev
o3h:__ZL154TerrainData_t9D44396901570930AFE428DAC19ABE0C1477CFE2_CustomAttributesCacheGenerator_TerrainData_Internal_Create_m02C792919F391601D1EE4CF6DF70182FBD646F16P21CustomAttributesCache
bdq:_Uri__cctor_m04530D19C293EABDAB2B9F0F1DEFF4F9D7E9681E
W2i:_InternalEnumerator_1_get_Current_m3C056E2A341831722A6FAE770188FCE7E3ECE9DD_AdjustorThunk
Dyq:_Array_InternalArray__Insert_TisOrderBlock_t3B2BBCE8320FAEC3DB605F7DC9AB641102F53727_m910CC2E6D12F05221ACC88F17D6D944BF642FA75_gshared
kan:_RecordProtocol_MapV2CipherCode_m6B9AC05E56CB8B0424DE634AE0D097B4E5E7D8BF
gYl:_X509Chain__ctor_mBBF2B2D501BBB6E65F043264A9B3A54CB91B93EA
syp:_MemoryStream_Dispose_m05761E7C3875447B00F66E01A80247858FC77AEE
HA:__ZN13ConstraintJob23ConstraintComponentDataC2ERKS0_
E_d:__ZN14VelocityModule8TransferI14SafeBinaryReadEEvRT_
nlg:__Z38Rigidbody_CUSTOM_get_position_InjectedP12Il2CppObjectR8Vector3f
qNa:__ZN9Scripting11UnityEngine12Experimental10PlayerLoop9PreUpdate19NewInputUpdateProxy9InitProxyEv
Wec:__Z39WriteQueueForTransferSignatureIntoCacheRK31TransferFunctionScriptingTraitsRK24TransferRequestSignature17ScriptingClassPtrR23CachedSerializationDataRb
KRb:__ZN13RenderManager18UpdateAllRenderersEv
gdf:__ZN5physx2Sc5Scene7addBodyERNS0_8BodyCoreEPKPvjjPNS_9PxBounds3E
JRd:__Z35Transfer_Blittable_FixedBufferFieldI9JSONWritexEvRK29SerializationCommandArgumentsR31RuntimeSerializationCommandInfo
CDb:__ZN15QualitySettings23VirtualRedirectTransferER19StreamedBinaryWrite
PLb:__ZN4Mesh22SetBoneWeightsInternalEPK12BoneWeights4i
vNc:__ZN18ShadowMapJobHeaderC2E10MemLabelIdPK11CullResultsPK15SharedLightDataPK10MinMaxAABB
Qse:__ZN10ClipperLib7Clipper18SwapPositionsInAELEPNS_5TEdgeES2_
TPp:_Renderer_get_enabled_m40E07BB15DA58D2EF6F6796C6778163107DD7E1B
fkp:_Enumerator__ctor_mA26964C759852F4BE10E13E0D08EBF85B4005D01_AdjustorThunk
Ixl:_GL_Vertex3_mE94809C1522CE96DF4C6CD218B1A26D5E60A114E
Mat:__ZN15dense_hashtableINSt3__24pairIK10KeyWrapperINS1_IPK12PropertyInfoP11Il2CppClassEEEjEES9_17ReflectionMapHashIS8_EN14dense_hash_mapIS9_jSD_NS9_14EqualsComparerINS0_8equal_toIS8_EEEENS0_9allocatorISB_EEE9SelectKeyESI_SK_E12resize_deltaEjj
oQb:__ZNSt3__26__treeINS_12__value_typeIN4core12basic_stringIcNS2_20StringStorageDefaultIcEEEE4PPtrI6ObjectEEENS_19__map_value_compareIS6_SA_NS_4lessIS6_EELb1EEE13stl_allocatorISA_L18MemLabelIdentifier53ELi16EEE7destroyEPNS_11__tree_nodeISA_PvEE
a5r:_GUISkin_set_toggle_mD80DC18C72883EE616583CB75FA6C83F5C4C29F8
uak:_Convert_ToDateTime_m9A35925008E117AABC032F8F45FC78F1B62FA00C
cZf:__ZN5physx6shdfnd5ArrayINS_17PxTaskDepTableRowENS0_19ReflectionAllocatorIS2_EEE15growAndPushBackERKS2_
Ank:_ThirdPersonCharacter__ctor_m701F64985FD788AA6AF7335B8EB89DCFA53F9FD1
_En:_VertexHelper_AddVert_mB332A958E9CC2BE8A158724AE6A03620FEE72EF9
AWt:_wctomb
u6k:__ZN62OpCodes_t68E6B52B0B80EC63090337A0C70E8CD9CC57F560_StaticFields15set_Stind_I1_81E48OpCode_tFBF4FC2990E657EA00DA0BB36BE0CC73515E6511
Tel:_MonoGenericCMethod_get_ReflectedType_mF9B7D6C0BFD0A611B1A8AA88726C01EC6BFF15DF
jRo:_ObjectManager__ctor_m3D524D2006E8095FE23C91FF30FA5CE017849FA2
hab:__Z24MergeTransformComponentsR9TransformS0_b
sy:__ZNSt3__218__insertion_sort_3IR9SortIndexIPKhEPjEEvT0_S7_T_
uGa:__ZN9Scripting11UnityEngine12Experimental10PlayerLoop14PostLateUpdateL73__ManagedRegistrationHelperFunction_ScriptRunDelayedDynamicFrameRateProxyEPv
$is:_X509Crl__ctor_mA021EA5191FE977762AA75753903A461E6DBD20D
Ziq:_Transform_1_BeginInvoke_mDD49267C467DC79BEF9945034623E367D66F63EF_gshared
Njp:_Enumerator_System_Collections_IEnumerator_get_Current_mF3CFD457277C734F76B711CF7015E2F9700970B5_AdjustorThunk
JSp:_Sprite_get_vertices_mD858385A07239A56691D1559728B1B5765C32722
Erg:__ZN14DetailDatabase8TransferI18StreamedBinaryReadEEvRT_
Xlo:_Single_ToString_m2A2FD0E738B1426402FD6CA17DA6A25C26927515_AdjustorThunk
MFa:__ZN9Scripting11UnityEngine12Experimental10PlayerLoop11FixedUpdateL61__ManagedRegistrationHelperFunction_Physics2DFixedUpdateProxyEPv
XYa:__ZN19StreamedBinaryWrite5AlignEv
l1m:_AttrListImpl__ctor_mDCFD56C7817B30AFE0BA9D1B971B2914F887FC01
vjb:__ZN16GraphicsSettings23VirtualRedirectTransferER19StreamedBinaryWrite
LNt:_GC_approx_sp
UQf:__ZN5physx30PxsNphaseImplementationContext26getNewContactManagerOutputEj
K7e:__ZThn12_N5physx7NpShape14onRefCountZeroEv
ETt:__ZN6il2cpp2os16ReaderWriterLockC2Ev
HLe:__ZL26GeomMTDCallback_ConvexMeshRN5physx6PxVec3ERfRKNS_10PxGeometryERKNS_11PxTransformES5_S8_
ydn:_InternalAsyncResult_get_IsCompleted_mE538822C5DAAEF4CBA6A3AC4762A41FEBECCC093
Xeb:__Z37GetBarycentricCoordinatesForOuterCellPPK8Vector3fRK13dynamic_arrayIS_Lj0EERS0_RK11TetrahedronR8Vector4f
iic:__ZN14PreloadManager26UpdatePreloadingSingleStepENS_21UpdatePreloadingFlagsEi
DX:__ZN7mecanim9animation28DestroyBlendTreeNodeConstantEPNS0_21BlendTreeNodeConstantER20RuntimeBaseAllocator
YJd:__ZN14CrashReporting13CrashReporter19OnLogCallbackStaticERK21DebugStringToFileData7LogTypeb
p0r:_GUILayoutGroup_ResetCursor_mD159DD9E101F6F348249D27D95709E1DC5C0A13F
y1a:__ZN18AsyncUploadManager19AsyncResourceUploadER9GfxDeviceiRK26AsyncUploadManagerSettings
rds:_AesManaged_GenerateKey_mBD268126B7C6F424EBD5C67AE7A587A04436A9A6
JDk:_EdgeDetection_OnRenderImage_m179B74B5097294C0DDE6036EF3C3E8895739449B
RVe:__ZL33GeomOverlapCallback_CapsuleConvexRKN5physx10PxGeometryERKNS_11PxTransformES2_S5_PNS_2Gu12TriggerCacheE
_Mt:_GC_cond_register_dynamic_libraries
hxb:__ZN6prcoreL25inner_stretch_i8_bilinearEPKNS_9InnerInfoE
Ufm:__Z122RuntimeInvoker_TrueSingle_tF2613CF3F3AF0E8BEBC3CE8AD41479C44E6075DB_PropertyName_t75EB843FEA2EC372093479A35C24364D2DF98529PFvvEPK10MethodInfoPvPS4_
uTb:__ZL30RegisterFilteredObjectCallbackPP12Il2CppObjectiPv
KIh:__ZL80Vector2_tA85D2DD88578276CA8A8796756458277E72D073D_CustomAttributesCacheGeneratorP21CustomAttributesCache
Rdg:__ZN5physx23BV32TriangleMeshBuilder21saveMidPhaseStructureEPNS_2Gu8BV32TreeERNS_14PxOutputStreamEb
aue:__ZN16PhysicsManager2D19ApplyParticleForcesER13dynamic_arrayI21BatchedColliderResultLj0EE
Z2n:_Exception_get_ClassName_mFD7B6AF57855D18671205BBF11B2211B791C43D3
ccj:__Z74InternalEnumerator_1_get_Current_mF80D77E367B59FEC416D63E277C93DFEDAED2886P62InternalEnumerator_1_t0A49C66A513FAE31473DFC887780556345C6D60BPK10MethodInfo
Pwa:__ZN13RuntimeStaticI21AssetReferenceStorageLb0EE13StaticDestroyEPv
$O:__Z23ConvertCacheToBuildKeysI11QuaternionfEvRN17AnimationCurveTplIT_E5CacheEiP19StreamedClipBuilder
pAp:_StreamReader_Peek_m85BDE49E70E233F8192DFF69331228F9ED7EA84E
KBo:_TimeSpan_Negate_m1382A9440C497AD68ACD893BC56D129F15CDF933
Nfj:_InternalEnumerator_1_get_Current_m97F91ACA72766726CD2315912B4693D6773263B7_gshared
oLn:_RSAManaged_get_KeySize_mA4A8E4E894E776A408BEAFCAD5BE5DBCBB5BF4FC
nEh:__ZL87AnimationCurve_tD2F265379583AAF1BF8D84F1BB8DB12980FA504C_CustomAttributesCacheGeneratorP21CustomAttributesCache
gvb:__ZN18StreamedBinaryRead16TransferTypelessEPjPKc17TransferMetaFlags
RDt:__ZN6il2cpp6icalls8mscorlib6System9AppDomain22InternalGetProcessGuidEP12Il2CppString
JQh:__ZL153Resources_t516CB639AA1F373695D285E3F9274C65A70D3935_CustomAttributesCacheGenerator_Resources_GetBuiltinResource_m73DDAC485E1E06C925628AA7285AC63D0797BD0AP21CustomAttributesCache
yym:_Array_InternalArray__IEnumerable_GetEnumerator_TisKeyValuePair_2_tC1FD9633618D9B27E2552BBAD347EC14A6C07C2C_mE8B727C50DA0C4473158BF258CACD1F2D61464D7_gshared
gbj:_InternalEnumerator_1__ctor_m5BF1FBD915E820E8B6DFD9910533F221D413A03C_AdjustorThunk
wUa:__ZNK17FileSystemHandler10IsReadOnlyERK13FileEntryData
n6k:__ZN62OpCodes_t68E6B52B0B80EC63090337A0C70E8CD9CC57F560_StaticFields15set_Ldind_U4_74E48OpCode_tFBF4FC2990E657EA00DA0BB36BE0CC73515E6511
Azd:__Z34Quaternion_CUSTOM_Inverse_InjectedRK11QuaternionfRS_
oHl:_U3CAddAndCreateU3Ec__AnonStorey1_U3CU3Em__0_m859E25575A1509158C78C36AEFFC10FC6833A255
tpp:_List_1_System_Collections_IList_Contains_m36D5428235DD173ACF971961142C75694AABA2C5_gshared
r6b:__Z18Transfer_BlittableI24GenerateTypeTreeTransferLb1EjEvRK29SerializationCommandArgumentsR31RuntimeSerializationCommandInfo
dDm:_Array_InternalArray__ICollection_Add_TisParameterModifier_t8441DD80841BDDAAB0E4AC40DF62B202B485572D_m9BC3E6E16548B1E1AED1FAA90ADF4ABA96E95F93_gshared
Qkl:_AnimationCurve__ctor_mE9462D171C06A2A746B9DA1B0A6B0F4FC7DB94CF
GMs:__ZN6il2cpp2os12FastAutoLockD2Ev
hwl:_GraphicsFormatUtility_IsSRGBFormat_mBF49E7451A3960BD67B1F13745BCA3AC5C8AC66E
KGg:_cff_vstore_done
whg:__ZN5physx6shdfnd5ArrayIPvNS0_19ReflectionAllocatorINS_24NpPtrTableStorageManager8PtrBlockILi4EEEEEE15growAndPushBackERKS2_
m9a:__ZN18StreamedBinaryRead21TransferSTLStyleArrayI13dynamic_arrayI17SortingLayerEntryLj0EEEEvRT_17TransferMetaFlags
rum:_Array_InternalArray__ICollection_Contains_TisByte_t4C3393E6E7EAD06B53234C05564190D9A2D7B149_m40C11CB473C58AC4D493ECAAA44F1CA54F8AD071_gshared
HSe:__ZL25visualizeTouchedTrianglesjjPKN5physx10PxTriangleEPNS_2Cm12RenderBufferERKNS_6PxVec3ES8_
mZg:__ZNK11UnityEngine9Analytics17ConfigSettingsMap6GetMapERKN4core12basic_stringIcNS2_20StringStorageDefaultIcEEEE
gob:__ZN13RenderTexture6CreateERK12ObjectHandleI17RenderSurface_TagP17RenderSurfaceBaseES6_NS_11CreateFlagsE
Xad:__ZNK8GUILayer22GetTypeVirtualInternalEv
IDb:__ZN14SafeBinaryRead21TransferSTLStyleArrayINSt3__26vectorIN15QualitySettings14QualitySettingENS1_9allocatorIS4_EEEEEEvRT_17TransferMetaFlags
thm:__Z328RuntimeInvoker_FalseInt32_tC16F64335CE8B56D99229DE94BB3A876ED55FE87_VoidU2A_t8A995245462F8BDC7319CC68F09ACF295FDD2879_VoidU2A_t8A995245462F8BDC7319CC68F09ACF295FDD2879_VoidU2A_t8A995245462F8BDC7319CC68F09ACF295FDD2879_Single_tF2613CF3F3AF0E8BEBC3CE8AD41479C44E6075DB_Int32_tC16F64335CE8B56D99229DE94BB3A876ED55FE87_RuntimeObjectPFvvEPK10MethodInfoPvPS4_
l8e:__ZN5physx2Sc8ShapeSim25onVolumeOrTransformChangeEb
Nbl:_FieldInfo_GetFieldFromHandle_mDCF06765F04E9FF99D6EA515BB0DBD7A922236F6
Ook:_VirtualInput_AxisExists_m385619382163B0D7F434B85169CA0C519E98541E
ROb:__ZNSt3__26vectorINS_4pairIPKN5Unity4TypeE7Hash128EENS_9allocatorIS7_EEE8__appendEj
Ymp:__Z61Enumerator_MoveNext_m6D2A00CBA0379276AB1B71C008AC559154991AA4P52Enumerator_tE65C11556BBD9F798E087A6E883C54806FBF0EABPK10MethodInfo
d4t:_pthread_mutex_destroy__wrapper
qVc:__ZN14SafeBinaryRead17RegisterConverterEPKcS1_PFbPvRS_E
mvc:__ZN20ArchiveStorageReader10InitializeER15FileSystemEntryybb
NVd:__ZN8JSONRead21TransferSTLStyleArrayI13dynamic_arrayIaLj0EEEEvRT_17TransferMetaFlags
RZn:_Delegate_CreateDelegate_internal_mAE0C64E140BD9F476C8569D4C6D2A978E2E9F2F6
TMr:_RewardHitScript_OnTriggerExit_mFE69F8F0DB37F203AA7C3CDF5FC7902B325DEA1A
xAb:__ZN7Texture16BeginAsyncUploadEjb
D4h:__ZL82Scrollbar_t8F8679D0EAFACBCBD603E6B0E741E6A783DB3389_CustomAttributesCacheGeneratorP21CustomAttributesCache
NGg:_cff_font_load
JN:__Z25AddPPtrCurveToClipBuilderR13dynamic_arrayI12PPtrKeyframeLj0EERKN11UnityEngine9Animation14GenericBindingER18MecanimClipBuilder
mqd:__Z13IsPathCreatedRKN4core12basic_stringIcNS_20StringStorageDefaultIcEEEE
vyi:__ZNK62OpCodes_t68E6B52B0B80EC63090337A0C70E8CD9CC57F560_StaticFields15get_Ldind_R4_77Ev
Mwb:__ZL22stbir__encode_scanlineP11stbir__infoiPvPfiii
Hng:__ZN20QuadTreeNodeRenderer13StaticDestroyEPv
d5e:__ZN5physx21PxQueryFilterCallbackC2Ev
M3c:__ZN9Transform12CleanupClassEv
Zcc:__ZN22SerializableManagedRef19ReleaseMonoInstanceEP6Object
IIe:__ZN5physxmlERKNS_11PxMeshScaleERKNS_11PxTransformE
eEn:__Z53List_1_Find_mD6E569D2127AA84561E149518AF922268C0307E2P48List_1_t02218CE37FD9D09EE4EC464F0D43E9FD9DE0C581P53Predicate_1_t2D2FE3EBD09F7A807E9C7EC5A28E252B7F1E8341PK10MethodInfo
DYe:__ZN5physx2Gu14gjkPenetrationINS0_11LocalConvexINS0_8CapsuleVEEENS2_INS0_18ConvexHullNoScaleVEEEEENS0_9GjkStatusERKT_RKT0_RKNS_6shdfnd3aos5Vec3VERKNSF_6FloatVERSG_SM_SM_RSJ_PhSO_Rhb
VKh:__ZL84Rect_t35B976DE901B5423C11705E156938EA27AB402CE_CustomAttributesCacheGenerator_m_YMinP21CustomAttributesCache
FUb:__ZN19ComputeShaderKernel8TransferI18StreamedBinaryReadEEvRT_
DT:__ZN11UnityEngine9Animation33SetGenericTransformPropertyValuesERKNS0_30AnimatorGenericBindingConstantERKN7mecanim10ValueArrayEP9Transformy
o1e:__ZN19CharacterController8TransferI19StreamedBinaryWriteEEvRT_
LR:__ZN11UnityEngine9Animation28AnimationClipBindingConstant8TransferI24GenerateTypeTreeTransferEEvRT_
zQl:_WebHeaderCollection_AddWithoutValidate_m1AC902F495A7C749297A6C5DA4AEC0D0C9099AF0
oUe:__ZN5physx3Cct13BoxController6resizeEf
$Tb:__ZN13ComputeShader17MainThreadCleanupEv
Y0s:___cxx_global_var_init_42335
Ios:_AnimationLayerMixerPlayable_Equals_m0A6A86FEDCE98E63B84BD01D0D362D03EA733E59_AdjustorThunk
jrd:__ZL34GetComponentsImplementationRecurseILb1ELi0ELi2EEbR10GameObjectbRK17CompareParametersRK39GetComponentsImplementation_ReturnValueP21ScriptingExceptionPtr
z_n:_Delegate_Combine_m32096FE7B826DE3A037DDF234FD142BD75C45B4B
HCd:__Z19GL_CUSTOM_PopMatrixv
v_b:__ZNSt3__26__treeINS_12__value_typeIN4core12basic_stringIcNS2_20StringStorageDefaultIcEEEEPN16MemoryFileSystem4NodeEEENS_19__map_value_compareIS6_SA_NS_4lessIS6_EELb1EEE13stl_allocatorISA_L18MemLabelIdentifier56ELi16EEE25__emplace_unique_key_argsIS6_JNS_4pairIKS6_S9_EEEEENSK_INS_15__tree_iteratorISA_PNS_11__tree_nodeISA_PvEEiEEbEERKT_DpOT0_
w2f:__ZN5physx6shdfnd5ArrayINS_2Cm12DelegateTaskINS_2Sc5SceneEXadL_ZNS5_19updateCCDSinglePassEPNS_10PxBaseTaskEEEEENS0_19ReflectionAllocatorIS8_EEE8recreateEj
tMg:_Dual_Project
MCc:__ZNSt3__27__sort4IRNS_6__lessI11CulledLightS2_EEPS2_EEjT0_S6_S6_S6_T_
CKs:_NativePropertyAttribute__ctor_m92618E6DC14A2AD87A9CB3A2BB3DFCDA1A431164
nAq:_Array_Resize_TisRuntimeObject_m5C1F4E2F32FDCB9AC2613BFFB4E78BC09C65F72A_gshared
_Yi:_Dropdown_OnSelectItem_m08F27561CC8872CAA3FF545F69CFF6D975583A9D
U0f:__ZN5physx2Sc5Scene15destroyManagersEPNS_10PxBaseTaskE
Ela:__Z26scripting_object_get_class18ScriptingObjectPtr
CPb:__ZNSt3__26vectorIN4core12basic_stringIcNS1_20StringStorageDefaultIcEEEE13stl_allocatorIS5_L18MemLabelIdentifier13ELi16EEE7reserveEj
G4d:__Z25UpdateOrbitalAndRadialTplIL27ParticleSystemCurveEvalMode1ELS0_3ELS0_0EEvRK11MinMaxCurveS3_S3_S3_S3_S3_S3_R23ParticleSystemParticlesjjRKN4math8float3x3ERKNS6_7affineXERKNS6_7_float4E
B1:__ZN9Scripting11UnityEngineL57__ManagedRegistrationHelperFunction_BuildCompressionProxyEPv
Kuj:_Comparer_1_System_Collections_IComparer_Compare_mE9BA56E5DBFA224973D9EABC40A3B01511A17166_gshared
qKp:_Vector3_get_normalized_mE20796F1D2D36244FACD4D14DADB245BE579849B
fXk:_LayoutGroup_get_flexibleWidth_mA0706CB9D6A877661D0B1B38876F767D299C19C3
S5c:__ZNK28MonoBehaviourPropertyBinding15GenerateBindingERKN4core12basic_stringIcNS0_20StringStorageDefaultIcEEEEbRN11UnityEngine9Animation14GenericBindingE
Bms:_AudioSource_get_isPlaying_m5112A878573652681F40C82F0D8103C999978F3C
MBo:_TimeSpan_Subtract_mD2BDFF521E8235BA660F37B035C818D9E0B10BE7
hMc:__ZNK10Matrix4x4f25PerspectiveMultiplyPoint3ERK8Vector3fRS0_
BPa:__ZN9Scripting11UnityEngine12Experimental10PlayerLoop14PostLateUpdate20BatchModeUpdateProxy12CleanupProxyEv
JNc:__ZN17CallbackArrayBaseIPFvPK9IndexListPK16RendererCullDataEPFvPKvS2_S5_EE18CleanupAfterInvokeEv
tuq:_Dictionary_2_CopyToCheck_mFED141BDC22AAEFF2CFD96C0B1D6BC490FC67B9C_gshared
PAi:_BaseInput_get_compositionCursorPos_mB42FA4200B70CEA2F13B2E6957A22DB7F98B9BC7
teg:__ZN5physx6pvdsdk23PvdDefaultFileTransport7releaseEv
k7d:__Z20StartSingleSidedEdgeILN11ShapeModule14MultiModeValueE0EEvRS0_R23ParticleSystemParticlesRK19ParticleSystemStateRK27ParticleSystemEmissionStateRKN4math8float3x3ERKNSB_7affineXEjbj
eyg:__ZN15TerrainCollider23VirtualRedirectTransferER14SafeBinaryRead
r6p:_Regex__ctor_mD47CB225C7619BC45C97F0E2742EB4471FDEA7C0
rEa:__ZN9Scripting11UnityEngineL51__ManagedRegistrationHelperFunction_ColorGamutProxyEPv
yjt:__ZNSt3__26vectorINS_12basic_stringIcNS_11char_traitsIcEENS_9allocatorIcEEEENS4_IS6_EEE21__push_back_slow_pathIS6_EEvOT_
yGt:__ZN6il2cpp6icalls8mscorlib6System11Environment15internalGetHomeEv
w1t:dynCall_iiiiiiffiiiiiiiiiffffiiii
Jok:_VirtualAxis__ctor_m583AFB8F7F822D7C8DDBFC1E1DBDB67192DBF5C4
vAa:__Z26ExtractAllRenderersInSceneR13dynamic_arrayIP8RendererLj0EE
BSa:__ZN9Scripting11UnityEngine12CubemapProxy12CleanupProxyEv
ABl:_Material_SetMatrix_mE3D3FA75DA02FED1B97E2BECA258F45399715764
e6a:__ZNK5Unity9Component7GetNameEv
F2m:_SecurityParser_OnStartElement_mB934395225ED3D95A69F104BF9478D5DAA4D3E9D
AT:__ZN11UnityEngine9Animation28SetGenericPPtrPropertyValuesERKNS0_30AnimatorGenericBindingConstantERKN7mecanim10ValueArrayE
hJf:__ZN5physx6shdfnd5ArrayIPvNS0_19ReflectionAllocatorINS_2Sc5Scene5BlockIhLj384EEEEEE15growAndPushBackERKS2_
fpo:_ASCIIEncoding_GetMaxCharCount_m368963C9E6ABD75B4D1870B890346058F066A616
vQi:_CanvasScaler_set_defaultSpriteDPI_m47244B69D6FC8C67B1CC5E3C828F5DD3FFB8C47A
jls:_AudioSource_AddSpatializerExtension_mEA48D6DCCBFA6EF941158C6A0AF5844519AC3DA7
I2s:__ZN6il2cpp6icalls8mscorlib6SystemL16CheckMemberMatchI9FieldInfoNS_5utils10functional6FilterINSt3__212basic_stringIcNS8_11char_traitsIcEENS8_9allocatorIcEEEENS5_13VmStringUtils23CaseInsensitiveComparerEEEEEbPKT_PK11Il2CppClassSN_iRKT0_
Aie:__Z19UpdateSingleRow2TplILN8UVModule8TimeModeE2EL27ParticleSystemCurveEvalMode0ELS2_0EEvfRK11MinMaxCurveS5_RKN4math7_float2ERK23ParticleSystemParticlesPfbiii
cre:__ZNK11b2RopeJoint16GetReactionForceEf
SU:__ZN7mecanim8skeleton26SkeletonPoseComputeGlobalQEPKNS0_8SkeletonEPKNS0_13SkeletonPoseTIN4math4trsXEEEPS7_ii
R8k:__ZN62OpCodes_t68E6B52B0B80EC63090337A0C70E8CD9CC57F560_StaticFields13set_Stloc_212E48OpCode_tFBF4FC2990E657EA00DA0BB36BE0CC73515E6511
sGa:__ZN9Scripting11UnityEngine12Experimental10PlayerLoop14PostLateUpdateL65__ManagedRegistrationHelperFunction_ProfilerSynchronizeStatsProxyEPv
f9r:_UInt32_Parse_mF445201DDD2567AFFDDB0C77E3CF36AAF86AB015
obl:__ZN60MarshalAsAttribute_tFDD884D0B2ACF3CAAA2A4A3521063CEE5DB3EDAE20set_SizeParamIndex_6Es
Cc:invoke_viiiffii
xU:__ZN9BlobWrite8TransferI22OffsetPtrArrayTransferIiEEEvRT_PKc17TransferMetaFlags
yKd:__ZN13dynamic_arrayIN14CrashReporting10StackFrameELj0EEC2ERKS2_
ecn:_SslClientStream_OnRemoteCertificateValidation_m736533639706CFA93FBC11D34F939F18AC8D55BD
mPt:__ZN6il2cpp6icalls8mscorlib6System7Runtime15InteropServices8GCHandle15GetTargetHandleEP12Il2CppObjectii
aik:_LookatTarget_Start_mBC20D3741919FB4F98FD7CC2D3597A0E5A8C3326
fhg:__ZN9Rigidbody31CheckForDrivenByParentRigidbodyEPS_
QTh:__ZL141Sprite_tCA09498D612D08DE668653AF1E9C12BF53434198_CustomAttributesCacheGenerator_Sprite_get_vertices_mD858385A07239A56691D1559728B1B5765C32722P21CustomAttributesCache
f8f:__ZN5physx6shdfnd5ArrayIPvNS0_15InlineAllocatorILj256ENS0_19ReflectionAllocatorINS_11NpAggregateEEEEEE15growAndPushBackERKS2_
pQc:__Z41ProcessShadowsIndexListIsNodeVisibleInOutRK17CullingParametersPK12LODDataArrayPK9SceneNodePK4AABBR9IndexList
H6:__ZN4FMOD6System7releaseEv
mKf:__ZN5physx6shdfnd8PoolBaseINS_2Sc18TriggerInteractionENS0_19ReflectionAllocatorIS3_EEE15disposeElementsEv
lrk:_MobileControlRig_EnableControlRig_mD0E35D233AC6FB1D570D6909EC9F06E4F69BA23A
lZk:_GenericTypeParameterBuilder_GetMethodImpl_m941DA1BB9DAA224DDB0DAA0BD04F03A2CE89550D
n9s:__ZN15dense_hashtableINSt3__24pairIK10KeyWrapperINS1_IPK10MethodInfoP11Il2CppClassEEEjEES9_17ReflectionMapHashIS8_EN14dense_hash_mapIS9_jSD_NS9_14EqualsComparerINS0_8equal_toIS8_EEEENS0_9allocatorISB_EEE9SelectKeyESI_SK_E21fill_range_with_emptyEPSB_SO_
$ua:__Z18PathToAbsolutePathRKN4core12basic_stringIcNS_20StringStorageDefaultIcEEEE
ECn:_Text_set_fontSize_m02F0192F052A3815C17428F4C2BE51A03B3E15B7
cfh:__ZN9Scripting11UnityEngine12Experimental2XR33XRExampleSubsystemDescriptorProxy9InitProxyEv
EP:__ZN13AnimationClip23VirtualRedirectTransferER17RemapPPtrTransfer
E0f:__ZN5physx2Cm12DelegateTaskINS_2Sc5SceneEXadL_ZNS3_33processNarrowPhaseLostTouchEventsEPNS_10PxBaseTaskEEEE11runInternalEv
WLe:__ZL31PointInConvexPolygon2D_OutCodesPKfjffffRh
X6r:__ZN52TextEditor_t72CB6095A5C38226E08CD8073D5B6AD98579D44021set_m_DblClickSnap_13Eh
Kio:_SecurityElement_IsValidText_mCE59593BA2B5BE13524BFA8BAB93C0D371A18D00
Bzd:__Z32Quaternion_CUSTOM_Slerp_InjectedRK11QuaternionfS1_fRS_
Ema:__ZN15DirectorManager17AcquireOutputNodeEv
BIn:_HMAC__ctor_m04E01AD3065ECAABEF2740EC10FBD75298F70280
t3d:__ZL15AccumulateNoiseILb1ELi1EEN4math8floatNx2ERKNS0_8floatNx3ERKfiS6_S6_
hub:__Z14resize_trimmedINSt3__26vectorI13dynamic_arrayI8Vector2fLj0EENS0_9allocatorIS4_EEEEEvRT_j
nzb:__ZN6prcoreL17RemapGenericFloatI18TexFormatRGBAFloat17TexFormatRGBFloatEEvPKNS_9InnerInfoE
yNs:__ZN6il2cpp8metadata11FieldLayout15FieldLayoutDataD2Ev
bjq:__Z60Transform_1_Invoke_mBD0CDDE865C3E8985FFE1557D3C9B4EC2BDB72C8P53Transform_1_tEF4B1D450D1EA4C653AB91E0186BD8D25FF84026iP12Il2CppObjectPK10MethodInfo
Jrp:_BinaryReader__ctor_mB1F45A99238767AD3D27076DA6B747BE48CE022A
Pfg:__ZN9Rigidbody12MoveRotationERK11Quaternionf
x9e:__ZN5physx2Sc16ShapeInteraction23processUserNotificationEjtbjbRNS_31PxsContactManagerOutputIteratorE
ORg:__ZNK2UI6Canvas13GetRenderModeEv
AIb:__ZN23TextureStreamingManager11AddRendererER8Renderer
Axb:__ZN6prcoreL21StretchRGB9e5BilinearEPKNS_9InnerInfoE
xmb:__ZN16ReflectionProbes28GetMinBakedCubemapResolutionEv
_ot:__ZN6il2cpp6icalls8mscorlib6System10Reflection8Assembly22load_with_partial_nameEP12Il2CppStringP40mscorlib_System_Security_Policy_Evidence
djg:__Z20ConvertContactToMonoP9Collision
ech:__ZN9Scripting11UnityEngine12Experimental3VFX24VFXSpawnerCallbacksProxy12CleanupProxyEv
ekj:_InternalEnumerator_1__ctor_m67099A3584574E34E78A478CBAAC3316267A2DE1_AdjustorThunk
Jwq:_Array_InternalArray__ICollection_CopyTo_TisKeyValuePair_2_tC1FD9633618D9B27E2552BBAD347EC14A6C07C2C_m137D06BBE335E534DD5BE877F3D70D619BCB17E4_gshared
QNs:__ZN6il2cpp2vm5Class9GetFieldsEP11Il2CppClassPPv
hY:__ZNSt3__26__sortIRNS_6__lessI4PPtrI13AnimationClipES4_EEPS4_EEvT0_S8_T_
NGd:__Z43Register_UnityEngine_Input_GetKeyDownStringv
CXa:__Z29GetGlobalAllowNameConversionsv
VLe:__ZL17transformVerticesRfS_S_S_PfjPKN5physx6PxVec3EPKhRKNS1_7PxMat33E
wZe:__ZNK5physx2Gu15HeightFieldUtil31getFaceIndexAtShapePointNoTest2Ejff
SZ:__ZN15AnimationBinder10BindCurvesERKN4core8hash_mapI7CurveIDj10hash_curveNSt3__28equal_toIS2_EEEER9TransformR13dynamic_arrayI20BoundCurveDeprecatedLj0EERNS4_6vectorIPSA_13stl_allocatorISH_L18MemLabelIdentifier27ELi16EEEE
dTc:__ZN8Material8SetColorEN9ShaderLab16FastPropertyNameERK10ColorRGBAf
zrh:__ZL94Path_t27AEEE0980E2C91F7F806BC8E9FC73A540BADC55_CustomAttributesCacheGenerator_InvalidPathCharsP21CustomAttributesCache
y7p:_Parser_IsSingleline_mC7DE73D84D57D653DD3C1D5287D14F5DE611E5E3
hXj:_Byte_ToString_m3F605595B4D06624342A047CB3D612222098B471_AdjustorThunk
o9a:__ZN15SerializeTraitsI13dynamic_arrayI17SortingLayerEntryLj0EEE8TransferI19StreamedBinaryWriteEEvRS2_RT_
F4s:__ZN6il2cpp2osL12ConvertFlagsEii
fqr:_ReadOnlyCollection_1_System_Collections_IList_RemoveAt_m8A27CABB8C7875F16B8D13A4FD9C82DDA92AE417_gshared
MEi:_ExecuteEvents_Execute_m1E459108391C9448C99C1BE5DB9524090753A147
YOa:__ZN9Scripting11UnityEngine12Experimental10PlayerLoop14PostLateUpdate28PlayerSendFrameCompleteProxy9InitProxyEv
U_h:__ZL146GUIStyle_t671F175A201A19166385EE3392292A5F50070572_CustomAttributesCacheGenerator_GUIStyle_Internal_Draw_m8DAE8DEA36131D287E8E8DF5D1EF5E9788A672A9P21CustomAttributesCache
mXt:_decfloat
Ils:_AudioExtensionManager_AddAmbisonicDecoderExtension_mB073B510A9DCA9A83B078F1A9910F391A1F2C659
f1t:dynCall_iiifiii
M7g:__Z25GetUnityConnectModuleSpecv
FDi:_EventSystem_OnEnable_m932AC09984810F445CF34D8C89FF8D592B8561CF
uy:__ZN24NavMeshAgentScaleJobData3JobEPS_jPK23TransformAccessReadOnlyPKyj
Ubo:_SHA1Internal_InitialiseBuff_m4AD14E78ABEA15164760EC5ED6F03A78CEDDB447
oHe:__ZN5physx6shdfnd10Foundation11incRefCountEv
gtf:__ZN5physx2Sc9ClothCore14updateBulkDataERNS0_13ClothBulkDataE
kOf:__ZN5physx17PxsCCDAdvanceTask11runInternalEv
i8a:__ZN11NamedObject23VirtualRedirectTransferER14SafeBinaryRead
rDg:__ZNSt3__26vectorIN20TextRenderingPrivate8FontImpl13CharacterInfoE13stl_allocatorIS3_L18MemLabelIdentifier1ELi16EEE6insertENS_11__wrap_iterIPKS3_EERS9_
BQb:__ZN23PreloadManagerOperation6IsDoneEv
QRr:_Predicate_1_BeginInvoke_mF7258841F0442EC4359C392C8215B5D7AECAE321_gshared
Fy:__ZN34NavMeshAgentUpdateTransformJobData3JobEPS_j
Vqc:_glProgramUniformMatrix2fv
V6f:__ZN5physx2Gu15BV4TriangleMeshD2Ev
X1m:_SmallXmlParser_HandleWhitespaces_mB72B830F775ED763469C71D6384625DD6CAB3734
Ioc:__Z19GetExtensionsStringRK13dynamic_arrayIN4core16basic_string_refIcEELj0EE
Axo:_Mutex_CreateMutex_internal_m2894A72C78E2140C528B518FF7AB91597FD3B776
Tue:__ZN10Effector2D10EndContactEP9b2Contact
UIt:__ZN6il2cpp5utils11StringUtils11Utf16ToUtf8ERKNSt3__212basic_stringIDsNS2_11char_traitsIDsEENS2_9allocatorIDsEEEE
y6l:__Z209RuntimeInvoker_TrueVoid_tDB81A15FA2AB53E2401A76B745D215397B29F783_Int16_tBFC41132AB8E6B4E1F9D4A1E3CC46422BF453F3C_Int16_tBFC41132AB8E6B4E1F9D4A1E3CC46422BF453F3C_Int32_tC16F64335CE8B56D99229DE94BB3A876ED55FE87PFvvEPK10MethodInfoPvPS4_
ahl:_Pointer_Box_mBDFA44491D124C8969196F64B23B29F98483F562
LHe:__ZN5physx3Cct26CharacterControllerManagerD2Ev
Ryf:__ZL22addOrRemoveRigidObjectILb0ELb0ELb0ELb1EN5physx3Scb11RigidStaticEEvRNS0_2Sc5SceneERT3_bPNS0_9PxBounds3E
Ike:__Z20UpdateWholeSheet2TplILN8UVModule8TimeModeE0EL27ParticleSystemCurveEvalMode4ELS2_3EEvfRK11MinMaxCurveS5_RKN4math7_float2ERK23ParticleSystemParticlesPf
xSb:__ZN21LightProbeProxyVolume18HasHardwareSupportEv
hCo:_TimeZone_IsDaylightSavingTime_mF6936ED6D8545020CABA1A1C69E07D65F7796398
mwe:__ZNK20b2SeparationFunction17FindMinSeparationEPiS0_f
gxb:__ZN6prcoreL31inner_stretch_argb8888_bilinearEPKNS_9InnerInfoE
Ngj:__Z71InternalEnumerator_1_MoveNext_mCABAE61BE70D144602D03FCEA011618EAA1D1D1FP62InternalEnumerator_1_t7809613C75A8B083AFCAA2704B89E1392D1DE320PK10MethodInfo
CPp:_RenderTextureDescriptor_set_volumeDepth_mDC402E6967166BE8CADDA690B32136A1E0AB8583_AdjustorThunk
FMo:_ASN1_ToString_m8B14492D662EA9323E02AEF88F0F1AC65B7E775C
cLg:_UNITY_FT_Outline_Decompose
MWm:_ArgumentNullException__ctor_mBA1072348F0861F80512F3BB2BE685EDBB02F740
x$g:__ZN8JSONRead27TransferSTLStyleMapAsObjectINSt3__23mapIN4core12basic_stringIcNS3_20StringStorageDefaultIcEEEEN11UnityEngine9Analytics16LimitEventConfigENS1_4lessIS7_EE13stl_allocatorINS1_4pairIKS7_SA_EEL18MemLabelIdentifier6ELi16EEEEEEvRT_17TransferMetaFlags
fVs:__ZNSt3__24pairIK10KeyWrapperIN6il2cpp5utils13dynamic_arrayIPK10Il2CppTypeLj4EEEEPFvvEEC2ERKSD_
lzr:_Array_InternalArray__get_Item_TisKeyValuePair_2_t211D421912B3331C4F2A9898273FF90BDC47820B_m1616F53CB67A9BAC975DE0F3F1E1A23C91729A91_gshared
Kib:__Z20scripting_object_new17ScriptingClassPtr
N4i:_InternalEnumerator_1_get_Current_m81524D6B52821650B2366460E0AA9125962BACA6_gshared
MDo:_Type_GetGenericTypeDefinition_mB2AA5F637E57F2A4981CBAE989AC0BE8CB0CEF6C
qVi:_DefaultControls_SetDefaultTextValues_mDFFC3500869C75750237DAD9E36F538DDDA38E3C
h2e:__ZN5Unity11SpringJoint6CreateEv
D6s:__ZN24dense_hashtable_iteratorINSt3__24pairIK10KeyWrapperINS1_IPK9FieldInfoP11Il2CppClassEEEjEES9_17ReflectionMapHashIS8_EN14dense_hash_mapIS9_jSD_NS9_14EqualsComparerINS0_8equal_toIS8_EEEENS0_9allocatorISB_EEE9SelectKeyESI_SK_E30advance_past_empty_and_deletedEv
A4p:_LinkStack_Push_m6C5E970A586A4C5C8389C3968F79729B5D61CA09
v7r:_UInt16_System_IConvertible_ToByte_m0B97CA970B30492CD65581D9F3D6BAFA4F5A1ED7_AdjustorThunk
MGf:__ZN5physx2Sc5Scene21setDominanceGroupPairEhhRKNS_20PxDominanceGroupPairE
LIt:__ZN6il2cpp2vm8Profiler11ThreadStartEm
sng:__GLOBAL__sub_I_TerrainScriptingClasses_cpp
zr:__ZN14NavMeshManager23RemoveOffMeshConnectionEy
wEi:_EventTrigger_OnInitializePotentialDrag_m5830F75A8E0E57E31BBBDF6A5E561A5B7336125B
OFf:__ZN5physx3Scb5Scene15syncEntireSceneEv
L:Math_exp
dQn:_TlsServerKeyExchange__ctor_mFA47F5EA62CC714163A361BDA9F010F860C74FE8
d4j:_SyncHashtable__ctor_m1F809E74C7F3579A2D8D9AC28ECD940F1684FDF6
KZl:__Z277RuntimeInvoker_FalseSByte_t50B643C59EE66E3364AED19D82E06B27BDE75268_VoidU2A_t8A995245462F8BDC7319CC68F09ACF295FDD2879_RuntimeObject_SByte_t50B643C59EE66E3364AED19D82E06B27BDE75268_SByte_t50B643C59EE66E3364AED19D82E06B27BDE75268_VoidU2A_t8A995245462F8BDC7319CC68F09ACF295FDD2879PFvvEPK10MethodInfoPvPS4_
Ql:FUNCTION_TABLE_iiifi
gln:_LayoutUtility_GetPreferredSize_m1707DA4F98CDB6F4136CB9A7D45D63F6DC083673
axb:__ZN6prcore21CreateRemapAnyBlitterE13TextureFormatS0_
P4k:_OpCode_get_StackBehaviourPop_m0D887564754DB302BBC8ED8517EA9D986BC69206_AdjustorThunk
qEg:_cff_get_advances
uac:__Z18Transfer_BlittableI18StreamedBinaryReadLb1E5RectTIiEEvRK29SerializationCommandArgumentsR31RuntimeSerializationCommandInfo
wYh:__ZL88AnimationStream_tF539D75F7B97F32656D025617E8EDB5C9A2F715E_CustomAttributesCacheGeneratorP21CustomAttributesCache
yVg:__Z43CanvasRenderer_Get_Custom_PropAbsoluteDepthP12Il2CppObject
yhp:_Enumerator_MoveNext_mAA42924DCC8AD409FF581293F94BBFC7AE401EE3_gshared
pKh:__ZL93RuntimePlatform_tD5F5737C1BBBCBB115EB104DF2B7876387E80132_CustomAttributesCacheGenerator_PSP2P21CustomAttributesCache
htt:__ZNSt3__218uninitialized_copyIPNS_4pairIK10KeyWrapperIP14Il2CppIUnknownEjEES8_EET0_T_SA_S9_
Suk:__ZN56BloomAndFlares_t39A175DC6F073C2AA1F8930DA103B092F23D598C18set_flareColorD_26E47Color_t119BCA590009762C7223FDD3AF9706653AC84ED2
wMp:_RectOffset_set_bottom_m2D1FC60EBFC84557E7AB189A45F3AC2146E558DD
mlo:_Single_System_IConvertible_ToInt32_mA2EC2E1D47086BAFDF2A4E193F14610D9E28546C_AdjustorThunk
Zyf:__ZN5physx7NpScene12loadFromDescERKNS_11PxSceneDescE
dEt:__GLOBAL__sub_I_Thread_cpp_43977
EAd:__Z38Camera_Set_Custom_PropOrthographicSizeP12Il2CppObjectf
qGn:_BigInteger_op_LessThanOrEqual_m45B9F3E871FE432CCD02BBD4631A31E3CCDF5766
cbp:__Z89Enumerator_System_Collections_IEnumerator_Reset_m44889A1448873FD776D94D05678ED518582166B5P52Enumerator_t8434FF623060595DB1C2B2231A4DC225034F0A7APK10MethodInfo
eLt:__ZNK6il2cpp8metadata14Il2CppTypeLessclEPK10Il2CppTypeS4_
wPs:__ZN15dense_hashtableINSt3__24pairIK10KeyWrapperIPK11Il2CppClassEPKcEES6_N6il2cpp5utils11PointerHashIS3_EEN14dense_hash_mapIS6_S9_SE_NS6_14EqualsComparerINS0_8equal_toIS5_EEEENS0_9allocatorISA_EEE9SelectKeyESJ_SL_E14squash_deletedEv
oZt:_fputc
qcf:__ZN5physx2Sc8ActorSim19registerInteractionEPNS0_11InteractionE
jcd:__ZN11TimeManager16HasFixedTimeStepEv
sah:__ZN22UnityWebRequestManager10InitializeEv
QYq:_List_1__ctor_m818971608D17C8DA348723AE097E6CAAF344D29B_gshared
Vvk:_BloomOptimized_OnDisable_m103BF0164FD934C4560DC7E52F24EB4C05199013
Cdc:__ZN13MonoBehaviour13AwakeFromLoadE17AwakeFromLoadMode
MGn:_BigInteger_op_LessThan_m8CDD5B9CB65002A77736F8133C242C6A573C3588
THb:__ZN8Renderer23VirtualRedirectTransferER18StreamedBinaryRead
B4b:__ZL26Transfer_SimpleNativeClassI17RemapPPtrTransfer8GradientLb1EEvRK29SerializationCommandArgumentsR31RuntimeSerializationCommandInfo
fdd:__ZN12CachedWriter9InitWriteER15CacheWriterBase
_hd:__Z21UnsignedInt64ToStringy
Sog:__ZN13SplatDatabase21UnregisterBaseMapUserEP6ShaderP8Material
HLo:_BigInteger_op_Inequality_mFECFB082EC6240381BCB20F0818A699BC107209C
q5r:_GUISkin_set_horizontalScrollbarLeftButton_mBB8EE6C404FD9BF0C9BD9B4B6FD036086C044BA3
xyg:__Z27GetTerrainPhysicsModuleSpecv
bjg:__ZNK13PhysicsModule31GetGameObjectPhysicsSceneHandleEPK10GameObject
Mqg:__Z14resize_trimmedINSt3__26vectorI15DetailPrototypeNS0_9allocatorIS2_EEEEEvRT_j
h4f:__ZN5physx2Sc15ClothFabricCore4loadERKNS_17PxClothFabricDescE
Tno:_String_Concat_m284DDEFEC7A010140004A73DE74DF4BB93685BEC
hvl:_UnityEvent_AddListener_m31973FDDC5BB0B2828AB6EF519EC4FD6563499C9
Jka:__ZZN15DirectorManager15InitializeClassEvEN41FixedUpdateDirectorFixedUpdateRegistrator7ForwardEv
Nhk:_LookatTarget__ctor_m04CAB105F7F24DEE2FB11EF2B99C08883D01EB51
mdt:__ZN6il2cpp2vmL10IsAssemblyEP12Il2CppObject
MRt:__ZN6il2cpp2os9MutexImpl7TryLockEjb
oVp:_Transform_get_rotation_m3AB90A67403249AECCA5E02BC70FCE8C90FE9FB9
kNt:_GC_clear_fl_links
RIa:__ZN9Scripting11UnityEngineL58__ManagedRegistrationHelperFunction_StackTraceUtilityProxyEPv
yzp:__ZN59Path_t27AEEE0980E2C91F7F806BC8E9FC73A540BADC55_StaticFields39get_address_of_DirectorySeparatorChar_2Ev
jCl:_Mathf_DeltaAngle_mF21640BC4B2DDC43DE7AA557EFC8D816CAD6E116
rak:_Convert_ToDateTime_mA659297F05D7F47E81C052EF64ADAA4376B6B36D
nHl:_U3CUnregisterU3Ec__AnonStorey1_U3CU3Em__0_m83AF010C3934125FB12BA2973275DDBB33946666
b6t:_glLinkProgram__wrapper
RUa:__ZN18ScriptingArguments8AddInt64Ex
ube:__ZN14MinMaxGradient8TransferI18StreamedBinaryReadEEvRT_
Wyo:_Thread_set_Name_m71EDD5D00182A1F23CCB82DADB04C5282B3F821A
t6s:__ZN15dense_hashtableINSt3__24pairIK10KeyWrapperINS1_IPK9FieldInfoP11Il2CppClassEEEjEES9_17ReflectionMapHashIS8_EN14dense_hash_mapIS9_jSD_NS9_14EqualsComparerINS0_8equal_toIS8_EEEENS0_9allocatorISB_EEE9SelectKeyESI_SK_E13clear_deletedER30dense_hashtable_const_iteratorISB_S9_SD_SM_SI_SK_E
U3a:__ZN26SinglePassStereoSupportExt19SaveStereoConstantsEv
o7k:__ZN62OpCodes_t68E6B52B0B80EC63090337A0C70E8CD9CC57F560_StaticFields22set_Conv_Ovf_I4_Un_129E48OpCode_tFBF4FC2990E657EA00DA0BB36BE0CC73515E6511
Zro:_Encoding_get_Default_m69C9B7A4A13B0BCDF55CC0A7175D34950063DD42
xlj:_InternalEnumerator_1_get_Current_m8971B74C19629F48BE115BC08CA4155175C5DBA8_gshared
U1d:__Z20UpdateCustomCurveTplIL27ParticleSystemCurveEvalMode1EEvRK11MinMaxCurveR23ParticleSystemParticlesiijjRKN4math5_int4E
Twq:_Array_InternalArray__ICollection_CopyTo_TisDouble_t2011D65DAF7D1FCBE71DD4CBDFA69A8F24643159_m5FCA9D75C3921729133EFFF0B7047358CEABEA79_gshared
bBa:__ZN23AsyncReadManagerManagedL30ShutdownAsyncManagerManagedAPIEPv
ETf:__ZN5physx6shdfnd5ArrayINS_16PxSolverBodyDataENS0_16AlignedAllocatorILj128ENS0_19ReflectionAllocatorIS2_EEEEE8recreateEj
P$d:__ZNK10SizeModule6UpdateER23ParticleSystemParticlesjj
G7e:__ZN5physx7NpShape8requiresERNS_23PxProcessPxBaseCallbackE
rst:__ZN6il2cpp6icalls8mscorlib6System13Globalization11CultureInfo35construct_internal_locale_from_nameEP17Il2CppCultureInfoP12Il2CppString
rmp:_Enumerator_MoveNext_mBBCC25C02B98D5DD88E91D8965E39A652BDCE477_AdjustorThunk
sXh:__ZL86WWWTranscoder_t0B24F1F17629756E6464A925870CC39236F39C61_CustomAttributesCacheGeneratorP21CustomAttributesCache
G6b:__ZL22Transfer_ManagedObjectI24GenerateTypeTreeTransferLb1EEvRK29SerializationCommandArgumentsR31RuntimeSerializationCommandInfo
$9f:__ZN5physx2Gu15EdgeListBuilder18computeActiveEdgesEjPKjPKtPKNS_6PxVec3Ef
Dwj:__Z66KeyValuePair_2_get_Value_mD7B87575AB5AA2229B1D01590CB635C01D6CA8F3P56KeyValuePair_2_t211D421912B3331C4F2A9898273FF90BDC47820BPK10MethodInfo
vvm:_Array_InternalArray__ICollection_Contains_TisWorkRequest_t0247B62D135204EAA95FC0B2EC829CB27B433F94_m179C13FB0C82D8BEC331AA9DA437615F45ACEF1C_gshared
Czc:__ZN15RenderNodeQueueC2E10MemLabelId
t4q:_List_1_CheckCollection_m72FAA69009CADC90CCB90E0E657F7761AABFF559_gshared
rng:__ZL17CleanupModule_TLSv
rg:_emscripten_set_main_loop_timing
Lcd:__ZN18SpriteAccessLegacy16GetSpriteIndicesEPK6Sprite
fpc:__ZN14DataBufferGLES12RecordRenderEv
AWp:_SpriteAtlasManager_add_atlasRegistered_m6742D91F217B69CC2A65D80B5F25CFA372A1E2DA
jzq:_Array_InternalArray__set_Item_TisLink_t27765EAAD50ABCB6BB069F48690A2BA0617FD09F_mBB4CECDAA071164F75B0CBDAEE2968ABEFDD277B_gshared
Vgg:__ZN14CompletionTask22ProcessAllPhysicsTasksEv
fcr:_Collection_1_IsFixedSize_m24D12965F7D58FED6E36A2865AD585C7DDA90270_gshared
aYc:__ZN14ImageReference10FlipImageYEv
pGd:__Z29Input_CUSTOM_GetKeyDownStringP12Il2CppString
Uzb:__ZN6prcoreL17RGBAFloatToRGB9e5EPKNS_9InnerInfoE
m2f:__ZN25KinematicUpdateCachedTask11runInternalEv
tOd:__Z14GetDefaultSkini
n4o:_EqualityComparer_1__cctor_m048BBCEE8CADC6479207C699BE3511B0D9FD432A_gshared
q3:__ZN4FMOD3DSP9setBypassEb
Nep:__Z58Enumerator__ctor_m7D71A046B230073DD4E7D9497E9722FB84A728E0P52Enumerator_t1A13F370EC7EA46EA20204D8881CCE685A3C348CP48List_1_t4A961510635950236678F1B3B2436ECCAF28713APK10MethodInfo
Vmo:_String_TrimEnd_m352A25F85E45BE4C5EF633E07639CAAEB0CC24F2
kXc:__Z19NormalizeWheelInputf
tzj:__Z60Enumerator_Dispose_m0E4B9B992DECEC9374AC79F9051ED1D27138923AP52Enumerator_t5DE3D636A6596D8B2CAB473CE8F848FC269A03A3PK10MethodInfo
WQ:__ZN11KeyframeTplIfE8TransferI14SafeBinaryReadEEvRT_
wXd:__Z29Transfer_Blittable_ArrayFieldI8JSONReadhEvRT_R9ArrayInfoRK23StaticTransferFieldInfo
CCm:_Array_InternalArray__ICollection_Add_TisBoolean_t92E4792324DA9B716F339A3B965A14965E99A4EF_mB9E6EF64ED5419DE4DC2106DF31B80C6046F7119_gshared
ckd:__ZN11MonoManager25GetImageFromAssemblyIndexEi
kuf:__ZN5physx2Sc9ClothCore17addCollisionPlaneERKNS_21PxClothCollisionPlaneE
SBn:_StencilMaterial_ClearAll_mCE4F6E8266056EA7E2A77B3EA6618188A93C5131
FXt:_setlocale_one_unlocked
LRd:__Z18Transfer_BlittableI9JSONWriteLb1EtEvRK29SerializationCommandArgumentsR31RuntimeSerializationCommandInfo
r7d:__Z10StartDonutILN11ShapeModule14MultiModeValueE0EEvRS0_R23ParticleSystemParticlesRK19ParticleSystemStateRK27ParticleSystemEmissionStateRKN4math8float3x3ERKNSB_7affineXEjbj
rf:___syscall85
dSk:_InputField_set_customCaretColor_mBA553B9AC42596A7B20F777BF46836F44310D571
xSg:__ZN2UI14CanvasRenderer18UpdateTRSHierarchyEb
h6f:__ZNK5physx13PxHeightField8isKindOfEPKc
YNt:_GC_timeout_stop_func
Znt:__ZN6il2cpp5utils10StringViewIDsE5EmptyEv
Cxk:__ZNK58CameraMotionBlur_tF82F63FD6B834CC3808A243F8D9537907DDB4EA019get_prevFramePos_36Ev
_sp:_BinaryWriter_Write_m9D9833845DDFFAFA19ED1C813EF95F8DFAFDC132
Hzc:__ZNSt3__26__sortIRPFbP10GUIElementS2_EPS2_EEvT0_S7_T_
NX:__ZN26AnimatorOverrideController23VirtualRedirectTransferER18StreamedBinaryRead
hul:_InvokableCallList_ClearPersistent_m4038DB499DCD84B79C0F1A698AAA7B9519553D49
Z_b:__ZN11MonoManager23VirtualRedirectTransferER24GenerateTypeTreeTransfer
Xur:_Comparison_1_Invoke_m12409BD62C52EFBAB781B2DFBA6283BAEA45244D_gshared
jL:__ZN23AnimationPlayableOutput17SetSourcePlayableEP8Playable
ume:__ZL24BuildParticleLineSegmentILb1EEvjRPhRKN4math8float4x4EPK15LineBuilderDataRKfSA_11ColorRGBA32
vSo:_ObjectManager_RaiseOnDeserializedEvent_mBC8C66DDE162C92C894A6646E155CF590081B5F9
xUl:_X509Certificate2_get_PublicKey_m3394F0DF7384C8F5257008F058C4FA3B5C6E52AB
CTe:__ZN16ControllerFilter9preFilterERKN5physx12PxFilterDataEPKNS0_7PxShapeEPKNS0_12PxRigidActorERNS0_7PxFlagsINS0_9PxHitFlag4EnumEtEE
FTp:_Texture2D__ctor_m185B87D9FE6E39A890C667FCAA8A15A0D93AFCA6
XOc:__ZNSt3__211__sift_downIR26RenderDeferredObjectSorterP16RenderObjectDataEEvT0_S5_T_NS_15iterator_traitsIS5_E15difference_typeES5_
C0:__ZN8Animator7GetBoolEiRb
mfk:_DateTime_CompareTo_mC926A979492F5B00706D0EE1354AC78A35F2F390_AdjustorThunk
pAq:_Array_Resize_TisCustomAttributeNamedArgument_t98CF5ADD605D0BD45BB33196EF5C2FEE889B1328_mEF300B8CAEF76BE68777BFA072FD66EA97239675_gshared
n4n:_CompareInfo_System_Runtime_Serialization_IDeserializationCallback_OnDeserialization_mF1077C93FA92FEBBFA095D957915C17F06385468
fDg:_ft_raccess_sort_ref_by_id
Qbd:__ZN21FixedBehaviourManager6UpdateEv
_pd:__ZN9Transform9SetParentEPS_NS_15SetParentOptionE
dGt:__ZN6il2cpp2vm13ComObjectBase16GetWeakReferenceEPP20Il2CppIWeakReference
ymj:_InternalEnumerator_1_get_Current_m1D9BF50411641FDE09A606CC8353E17E0A21232D_AdjustorThunk
wdb:__ZN19ShaderPropertySheet8SetFloatEN9ShaderLab16FastPropertyNameEfNS_8SetFlagsE
iRb:__ZN19RuntimeSceneManager24BeginIntegrateMainThreadEP10UnityScene
cMm:_NumberFormatter_AppendExponent_m976CE922153D4720717D84A2EAAA398C8D8A71D4
Ymf:__ZN5physx14NpArticulation26setExternalDriveIterationsEj
XIe:__ZN16RayRTreeCallbackILi0ELb0EED0Ev
cKj:_Context_RegisterDynamicProperty_mF4C899BF2B29B05B0501857427E87EE4D275A29C
Alj:_InternalEnumerator_1_System_Collections_IEnumerator_get_Current_m74C047AE8D7ED84A31FBF16F0D6C5E183A486430_AdjustorThunk
c$c:__ZN9ShaderLab20SerializedSubProgramaSERKS0_
TIn:_MD2_Create_m681ECAF648EA18EC5E7DC8EAFA7B48F3CD86B4E0
Mdi:__ZL96FreeLookCam_tAF6A6B3BBBAB6D02632387FCC47E26D60CFE6240_CustomAttributesCacheGenerator_m_TurnSpeedP21CustomAttributesCache
wMa:__ZN9Scripting11UnityEngine12Experimental3U2D15SpriteBoneProxy9InitProxyEv
FMs:__ZN14dense_hash_mapI10KeyWrapperIPK22Il2CppGenericParameterEP11Il2CppClassN6il2cpp5utils11PointerHashIS2_EENS4_14EqualsComparerINSt3__28equal_toIS3_EEEENSC_9allocatorINSC_4pairIKS4_S6_EEEEE6insertERKSJ_
QD:__ZN8Animator15SetPrepareStageEv
o0:__ZN8AnimatorC2E10MemLabelId18ObjectCreationMode
Yms:_AudioSource_get_clip_m773ECEF5566EA64C74E316D7EF1A63AA01604643
bNs:__ZN6il2cpp2vmL24SetupTypeHierarchyLockedEP11Il2CppClassRKNS_2os12FastAutoLockE
nXc:__ZL11TextHandleriPK23EmscriptenKeyboardEventPv
JFc:__Z20CalculateLightMatrixRK15SharedLightDataP10Matrix4x4f
FCg:_destroy_face
$8p:_Regex__ctor_mD8AA7C9B70F8413372400EEF51AF81755CE2B938
g5l:__Z223RuntimeInvoker_TrueVoid_tDB81A15FA2AB53E2401A76B745D215397B29F783_SByte_t50B643C59EE66E3364AED19D82E06B27BDE75268_RuntimeObject_SByte_t50B643C59EE66E3364AED19D82E06B27BDE75268_SByte_t50B643C59EE66E3364AED19D82E06B27BDE75268PFvvEPK10MethodInfoPvPS4_
h0t:dynCall_fdi
uJl:_ListDictionary_CopyTo_m54A24024B5FEA142EE47310CAD46E4330E969EC5
Imp:_Enumerator_System_Collections_IEnumerator_Reset_m8A085C3190749AF71B4EFA184F3AB07036829A14_AdjustorThunk
vDm:_Array_InternalArray__ICollection_Add_TisPlayerLoopSystem_t89BC6208BDD3B7C57FED7B0201341A7D4E846A6D_mA55FAADA4A55E3EA385C49FC745CFD7B88BB2A5B_gshared
Jfk:_DateTime_ToLocalTime_m2BE5F73CA88BF82F1400247B484017CCCD36610B_AdjustorThunk
Uyr:_LayoutGroup_SetProperty_TisInt32_tC16F64335CE8B56D99229DE94BB3A876ED55FE87_m406DE8AA0E125CF0F824F46A295CB16121537760_gshared
Pde:__ZN21RotationBySpeedModuleD0Ev
m6:__ZN20SoundChannelInstance7setMuteEb
EHe:__ZN5physx3Cct26CharacterControllerManager21createObstacleContextEv
dOa:__ZN9Scripting11UnityEngine12Experimental10PlayerLoop14PostLateUpdate24UpdateVideoTexturesProxy12CleanupProxyEv
HDe:__ZN14PhysicsQuery2D29GetRayIntersectionAll_BindingEiRK8Vector3fS2_fi
fZt:_select
qR:__ZNSt3__26vectorI24CompressedAnimationCurve13stl_allocatorIS1_L18MemLabelIdentifier27ELi16EEE7reserveEj
FNt:_set_bits
P_h:__ZL150GUIStyleState_t2AA5CB82EB2571B0496D1F0B9D29D2B8D8B1E7E5_CustomAttributesCacheGenerator_GUIStyleState_Cleanup_mB92C1A0564E1D841A37DD43D6B6E1AD27BAD5A49P21CustomAttributesCache
oue:__ZN7b2World18SetContactListenerEP17b2ContactListener
_Rp:_Shader__ctor_m6D011DE6D578D5F19FBF7EAED326C7209C419E21
xpc:__ZN18GfxFramebufferGLES22MakeCurrentFramebufferENS_7BuiltinE
p5e:__ZN5physx12PxRaycastHitC2Ev
bro:_EncoderReplacementFallbackBuffer_Fallback_mE129C3ECA29453D5A33794F907E502FBE143D20B
B3p:_Interval_get_IsSingleton_m90890E5D121773FBFD5619E08793D8C810540CF0
EYg:__ZN18BaseUnityAnalytics18QueueAppStartEventERN11UnityEngine9Analytics27BaseAnalyticsEventWithParamE
kch:__ZN9Scripting11UnityEngine12Experimental3VFX22VFXEventAttributeProxy12CleanupProxyEv
E3i:_InternalEnumerator_1_System_Collections_IEnumerator_get_Current_m18BEF3A7CD15B8B3AB69B4E94C5BA84BF009FA93_AdjustorThunk
_jb:__ZN12CachedReader4ReadEPvj
REg:_cf2_blues_init
hif:__ZN5physx2Sc8BodyCore24clearSpatialAccelerationEbb
jwl:_GraphicsFormatUtility_IsCompressedTextureFormat_m456D7B059F25F7378E05E3346CB1670517A46C71
ped:__Z18RegisterUnityClassI11GameManagerEvPKc
TAs:_RaycastHit_get_collider_mE70B84C4312B567344F60992A6067855F2C3A7A9
L1d:__ZNK14RotationModule6UpdateERK27ParticleSystemReadOnlyStateRK19ParticleSystemStateR23ParticleSystemParticlesRKN4math7_float4Ejj
$9l:__Z347RuntimeInvoker_TrueVoid_tDB81A15FA2AB53E2401A76B745D215397B29F783_RuntimeObject_RuntimeObject_RuntimeObject_Int32_tC16F64335CE8B56D99229DE94BB3A876ED55FE87_Int32_tC16F64335CE8B56D99229DE94BB3A876ED55FE87_Int32_tC16F64335CE8B56D99229DE94BB3A876ED55FE87_Int32_tC16F64335CE8B56D99229DE94BB3A876ED55FE87_Int32_tC16F64335CE8B56D99229DE94BB3A876ED55FE87PFvvEPK10MethodInfoPvPS4_
bra:__ZN19RuntimeSceneManagerD2Ev
Ewd:__Z57Register_UnityEngine_QualitySettings_get_activeColorSpacev
cIi:_PhysicsRaycaster_get_depth_mB9E91E8ED99740B180603DC441710284253B0380
Ztm:_Array_get_swapper_TisBoolean_t92E4792324DA9B716F339A3B965A14965E99A4EF_m85BD4323976CDA0E20EF543FF7281BF5EB139009_gshared
vac:__Z18Transfer_BlittableI18StreamedBinaryReadLb0E10Matrix4x4fEvRK29SerializationCommandArgumentsR31RuntimeSerializationCommandInfo
Jso:_UTF7Encoding__ctor_m7DBE45F90A4E8EE5AA51A85FF04C8FCE24B3741C
tdl:_MonoCMethod_Invoke_m2FAFC01F004A2BC45EEEF697F04A24B124B0389E
v9s:__ZN6il2cpp2gc19AppendOnlyGCHashMapINSt3__24pairIPK11Il2CppImageP11Il2CppClassEEP22Il2CppReflectionModule17ReflectionMapHashIS9_ENS2_8equal_toIS9_EEE11TryGetValueERKS9_PSB_
Bjs:_X509Crl_get_Hash_m1D83A886FF1142852347FC1950BDFADBFAE68480
Gpf:__ZN5physx2Sc5Scene31removeActiveBreakableConstraintEPNS0_13ConstraintSimE
Fyk:_ColorCorrectionCurves_UpdateParameters_m1BA569D51675D3BAD8F90772C4FFC69A7CC49B80
WQj:_MethodDictionary_GetMethodProperty_m01A9069008D070B7EA82A58A551FA9D00F9B5728
yTa:__ZN9Scripting11UnityEngine16ApplicationProxy9InitProxyEv
Btd:__ZN9BlobWrite14ReduceCopyImplERK14ReduceCopyDataj
rao:__ZN6Guid_t8set__j_9Eh
QXm:_SymmetricTransform_TransformBlock_mA11511A1EC86BB83048D771A9A7BD287FFC2BF8B
Sca:__ZN11AudioSource18IsPlayingScriptingEv
M4h:__ZL88GridLayoutGroup_t1C70294BD2567FD584672222A8BFD5A0DF1CA2A8_CustomAttributesCacheGeneratorP21CustomAttributesCache
tkc:__Z18IsCompressedFormat14GraphicsFormat
_re:__ZNK12b2WheelJoint10GetAnchorAEv
TEf:__ZN5physx6shdfnd5ArrayINS_12PxActorShapeENS0_19ReflectionAllocatorIS2_EEE15growAndPushBackERKS2_
T8h:__ZL106CanvasScaler_t304BA6F47EDB7402EBA405DD36CA7D6ADF723564_CustomAttributesCacheGenerator_m_MatchWidthOrHeightP21CustomAttributesCache
z0f:__ZN5physx2Cm12DelegateTaskINS_2Sc5SceneEXadL_ZNS3_22postThirdPassIslandGenEPNS_10PxBaseTaskEEEE11runInternalEv
Ese:__ZN10ClipperLib14PointInPolygonERKNS_8IntPointEPNS_5OutPtE
dIm:_MonoType_InvokeMember_m6AEBA003A19A6ED66D3453C937B682DC587E8EAB
K4e:__ZN14PhysicsManager15GetPhysicsSceneEi
uAg:__ZN13TextRendering4Font8TransferI24GenerateTypeTreeTransferEEvRT_
MHa:__ZN9Scripting11UnityEngineL67__ManagedRegistrationHelperFunction_ImageEffectTransformsToLDRProxyEPv
Jyl:_Gradient_Init_m56D09BE88E111535F8D2278E03BE81C9D70EFAAD
X6c:__Z37CleanupLightAnimationBindingInterfacev
Is:__ZN20NavMeshBuildSettingsC2Ev
cpf:__ZN5physx2Sc14ConstraintCore8setFlagsENS_7PxFlagsINS_16PxConstraintFlag4EnumEtEE
Zi:_glStencilMask
Qpm:__Z161RuntimeInvoker_TrueVoid_tDB81A15FA2AB53E2401A76B745D215397B29F783_Int32_tC16F64335CE8B56D99229DE94BB3A876ED55FE87_Touch_t806752C775BA713A91B6588A07CA98417CABC003PFvvEPK10MethodInfoPvPS4_
wFt:__ZN6il2cpp2os10ThreadImpl16GetCurrentThreadEv
a5f:__ZNK5physx2Sc15ClothFabricCore20getNbParticleIndicesEv
oui:_MessageFormatter_ReadMethodCall_m6AF0FB31F5F06FAA610941E239F12678D16CD316
_gc:__ZN15GUIEventManager10QueueEventERK10InputEvent
oMa:__ZN9Scripting11UnityEngine15GameObjectProxy9InitProxyEv
kBo:__Z33il2cpp_codegen_check_add_overflowxx
RZi:__Z30il2cpp_codegen_method_get_slotP10MethodInfo
YNj:_LeaseManager__ctor_m2004D68B2AC17C95F8EFD7FFF16164112C06FC90
bLi:__Z71ValueCollection_GetEnumerator_mE526CDFEF18F08262290E41BFD2CC3B61E3B6E77P57ValueCollection_tC9EE1CE632AB6342BDEF4960EA2C2ABD8589169BPK10MethodInfo
f7q:_Queue_1_GetEnumerator_m308165749C1E4D53F5441F68EEDF5BA8FD5FE3E3_gshared
uel:_MonoField_get_ReflectedType_m7FAC779B049708C873B68F9E1501FA10E269C33A
hjm:__Z212RuntimeInvoker_TrueSByte_t50B643C59EE66E3364AED19D82E06B27BDE75268_Int32_tC16F64335CE8B56D99229DE94BB3A876ED55FE87_VoidU2A_t8A995245462F8BDC7319CC68F09ACF295FDD2879_SByte_t50B643C59EE66E3364AED19D82E06B27BDE75268PFvvEPK10MethodInfoPvPS4_
xKa:__ZN9Scripting11UnityEngine9Rendering18CommandBufferProxy12CleanupProxyEv
V7n:_DaylightTime_get_Start_m9A669D702C1C5371E0584466F67EA0DA47EF59D4
tra:__ZNSt3__227__insertion_sort_incompleteIRPFbRKN18AwakeFromLoadQueue4ItemES4_EPS2_EEbT0_S9_T_
gSp:_SortingLayer_GetLayerValueFromID_m564F9C83200E5EC3E9578A75854CB943CE5546F8
gGp:_Int64_CompareTo_m89FA3F3D494C81EFFF11353539F8B470FEF688C8
HLf:__ZN5physx2Sq8AABBTree11shiftOriginERKNS_6PxVec3E
wVr:__ZN30GenericInterfaceActionInvoker4IP12Il2CppObjectS1_S1_S1_E6InvokeEPK10MethodInfoS1_S1_S1_S1_S1_
ewd:__Z44Register_UnityEngine_RenderTexture_set_depthv
JYt:_strrchr
vmp:__Z64Enumerator_get_Current_m7A12410A0476D17D768BFB0627A07DFD4BC7738CP52Enumerator_tF6F64083C68E4559F0875A0E3BA9BCD1011CB35DPK10MethodInfo
Yaf:__ZN5physx2Sc7BodySim6wakeUpEv
I9b:__Z18Transfer_BlittableI18StreamedBinaryReadLb1EiEvRK29SerializationCommandArgumentsR31RuntimeSerializationCommandInfo
Fa:invoke_iffi
N7j:_Stack_Peek_mDAEB6B7344478579B2EC22CB74B41141F01B7A43
Thl:_TypeDelegator_GetConstructors_mBF4E9CEC0AB6F7E26DE43D607AB50ABD0A3A92BC
hjf:__ZN5physx2Sc21ConstraintInteraction7destroyEv
C6e:__ZN14SphereCollider6CreateEPK9Rigidbody
jId:__Z33Register_UnityEngine_Random_Rangev
Z9l:__Z163RuntimeInvoker_FalseSByte_t50B643C59EE66E3364AED19D82E06B27BDE75268_Int16_tBFC41132AB8E6B4E1F9D4A1E3CC46422BF453F3C_Int16_tBFC41132AB8E6B4E1F9D4A1E3CC46422BF453F3CPFvvEPK10MethodInfoPvPS4_
WYt:_recvfrom
e7g:__ZN22CrashReportingSettings8TransferI24GenerateTypeTreeTransferEEvRT_
Z0f:__ZN5physx2Sc5Scene20processLostContacts3EPNS_10PxBaseTaskE
Hmb:__ZN14RenderSettings27UpdateIndirectSpecularColorEv
qD:__ZN9Scripting11UnityEngine10Animations27AnimationMixerPlayableProxy9InitProxyEv
g3s:__ZN6il2cpp6icalls8mscorlib6System8MonoType16GetMethodsByNameEP20Il2CppReflectionTypeP12Il2CppStringibS5_
l8p:_Parser_ParseAssertionType_mC4659CB18D7AE025DC0A41DFC54364FDC18C7321
Ewr:_Array_qsort_TisRaycastHit_t19695F18F9265FE5425062BBA6A4D330480538C3_m2EFEA86D2268C4EC0931850FC7DAC6A557702194_gshared
UBf:__ZNK5physx7NpScene16getNbConstraintsEv
oMk:_HorizontalLayoutGroup_CalculateLayoutInputHorizontal_m6B516103DF09B8C2237301AB7DF0FF59F4665E71
zcm:__Z115RuntimeInvoker_TrueSingle_tF2613CF3F3AF0E8BEBC3CE8AD41479C44E6075DB_Int32_tC16F64335CE8B56D99229DE94BB3A876ED55FE87PFvvEPK10MethodInfoPvPS4_
cTa:__ZN9Scripting11UnityEngine12Vector3Proxy9InitProxyEv
Vsf:__ZN5physx7NpCloth14setWakeCounterEf
Svr:_Func_2_Invoke_m98BA9EE716C9C97F0590139D052BB57E0D9DF975_gshared
RVf:__ZNK5physx2IG13ThirdPassTask7getNameEv
tjc:__ZNSt3__27__sort3IRNS_4lessIN22BuiltinResourceManager8ResourceEEEPS3_EEjT0_S7_S7_T_
ifc:__Z23TransferScriptingObjectI19StreamedBinaryWriteEvRT_18ScriptingObjectPtr17ScriptingClassPtrPK15MonoScriptCache
EYp:_Vector3_Project_m3A2D462C2548AA76EB0BCD3305B1E8588347DB9D
Obm:__Z263RuntimeInvoker_FalseInt32_tC16F64335CE8B56D99229DE94BB3A876ED55FE87_Int32_tC16F64335CE8B56D99229DE94BB3A876ED55FE87_Int32_tC16F64335CE8B56D99229DE94BB3A876ED55FE87_VoidU2A_t8A995245462F8BDC7319CC68F09ACF295FDD2879_VoidU2A_t8A995245462F8BDC7319CC68F09ACF295FDD2879PFvvEPK10MethodInfoPvPS4_
KNg:_ps_hints_t2mask
Xfg:__ZN12MemoryStreamC2EPhj10MemLabelId
Z5n:_CompareInfo_internal_index_switch_mC645E0DFCA389B6E1094F9F189E49130B7B2679C
iwj:__Z58Enumerator__ctor_m8EA4ED94D97C05DCE027DC285247FF56F651DEA8P52Enumerator_t651CB08B76D84FE1355D9B3D694FF7F5B7AE7211P54Dictionary_2_t378029A498AAECEFDA1C5DB997C4E6C8AE8AF225PK10MethodInfo
g8k:__ZN62OpCodes_t68E6B52B0B80EC63090337A0C70E8CD9CC57F560_StaticFields15set_Conv_U2_175E48OpCode_tFBF4FC2990E657EA00DA0BB36BE0CC73515E6511
qed:__Z18RegisterUnityClassI12ScriptMapperEvPKc
Q0p:_Interpreter_GetGroupInfo_m03EF03CB1B840775DFFD5859F2C8D5574BBAFD85
jrs:__ZN51HumanBone_t2CE168CF8638CEABF48FB7B7CCF77BBE0CECF99511set_limit_2E52HumanLimit_t6AB2A599FC9E1F7E1598954FA9A0E568ECA5B6F3
AFa:__ZN9Scripting11UnityEngine12Experimental10PlayerLoop11EarlyUpdateL57__ManagedRegistrationHelperFunction_UpdatePreloadingProxyEPv
mig:__ZN14PhysicsManagerC2E10MemLabelId18ObjectCreationMode
R1g:__ZN11UnityEngine9Analytics19SessionEventManager10InitializeERKN4core12basic_stringIcNS2_20StringStorageDefaultIcEEEEPNS0_17CloudJobSchedulerE
Ttr:_Comparison_1_Invoke_m4208C3DAC48035F8E77B410BF2CCA6F9081E7EE1_gshared
qXa:__Z19GetTimeSinceStartupv
m3g:__ZN8JSONRead8TransferINSt3__23mapIN4core12basic_stringIcNS3_20StringStorageDefaultIcEEEEjNS1_4lessIS7_EE13stl_allocatorINS1_4pairIKS7_jEEL18MemLabelIdentifier6ELi16EEEEEEvRT_PKc17TransferMetaFlagsb
Ryr:_Mesh_SetUvsImpl_TisRuntimeObject_m283D6CC271F7FC1C87FFB32C5D26588CB977A807_gshared
eNg:_TT_Load_Composite_Glyph
igm:__Z1062RuntimeInvoker_TrueSByte_t50B643C59EE66E3364AED19D82E06B27BDE75268_RuntimeObject_RuntimeObject_Color_t119BCA590009762C7223FDD3AF9706653AC84ED2_Int32_tC16F64335CE8B56D99229DE94BB3A876ED55FE87_Single_tF2613CF3F3AF0E8BEBC3CE8AD41479C44E6075DB_Single_tF2613CF3F3AF0E8BEBC3CE8AD41479C44E6075DB_Int32_tC16F64335CE8B56D99229DE94BB3A876ED55FE87_SByte_t50B643C59EE66E3364AED19D82E06B27BDE75268_SByte_t50B643C59EE66E3364AED19D82E06B27BDE75268_Int32_tC16F64335CE8B56D99229DE94BB3A876ED55FE87_Int32_tC16F64335CE8B56D99229DE94BB3A876ED55FE87_Int32_tC16F64335CE8B56D99229DE94BB3A876ED55FE87_Int32_tC16F64335CE8B56D99229DE94BB3A876ED55FE87_SByte_t50B643C59EE66E3364AED19D82E06B27BDE75268_Int32_tC16F64335CE8B56D99229DE94BB3A876ED55FE87_Single_tF2613CF3F3AF0E8BEBC3CE8AD41479C44E6075DB_Single_tF2613CF3F3AF0E8BEBC3CE8AD41479C44E6075DB_Single_tF2613CF3F3AF0E8BEBC3CE8AD41479C44E6075DB_Single_tF2613CF3F3AF0E8BEBC3CE8AD41479C44E6075DB_SByte_t50B643C59EE66E3364AED19D82E06B27BDE75268_SByte_t50B643C59EE66E3364AED19D82E06B27BDE75268_VoidU2A_t8A995245462F8BDC7319CC68F09ACF295FDD2879PFvvEPK10MethodInfoPvPS4_
MKb:__Z33MultiplyMatrixArrayWithBase4x4REFPK10Matrix4x4fS1_S1_PS_j
u3m:_AppDomain_InternalSetDomain_m6801CDDD0CCF57021638198F7F629130D8ABD553
Uvj:_Enumerator_get_Current_m910F21E4440409EDAB15C7315D5BE4B4978C90EA_AdjustorThunk
U1n:_Enum_FindName_m29C5C3E12F14C451C0B58F4ACEC3EBCC3AADBFEF
FZk:_GenericTypeParameterBuilder_GetCustomAttributes_m43F8FD52C6EAF166CE7389FF9097E7AD964FC067
irb:__ZN9ShaderLab11shaderprops9GetTexEnvEPK19ShaderPropertySheetS3_NS_16FastPropertyNameE16TextureDimensionb
H2t:dynCall_viiififfi
Eoo:_StringComparer_Compare_m07A497C2B401D137AABAF7E10656035A667C08DF
nr:__ZN15HeightMeshQueryD0Ev
cFm:_Math_Round_m06EFC3B86D61240CE3C8CECAD5EBA6B4019AE174
Ibj:__Z74InternalEnumerator_1_get_Current_m2471FF5A895A2E524BC4D65FC2DEB8B31A533963P62InternalEnumerator_1_t0F85E1BB364315425A09F10407BD45A44FC07A60PK10MethodInfo
mYt:_fclose
fDc:__ZN29RenderNodeQueuePrepareContextC2Ev
$_f:__ZN5physx6shdfnd5ArrayINS_2Bp11AABBOverlapENS0_19ReflectionAllocatorIS3_EEE6resizeEjRKS3_
l0c:__ZN9ShaderLab20SerializedSubProgram16TextureParameter8TransferI24GenerateTypeTreeTransferEEvRT_
GOe:__Z17sweepBox_MeshGeomRKN5physx10PxGeometryERKNS_11PxTransformERKNS_13PxBoxGeometryES5_RKNS_2Gu3BoxERKNS_6PxVec3EfRNS_10PxSweepHitENS_7PxFlagsINS_9PxHitFlag4EnumEtEEf
wZa:__ZN9GfxDevice19SaveStereoConstantsEv
wRt:__ZN6il2cpp2os11MutexHandle4WaitEj
sX:__ZL39InvalidateSceneHandleTransformsCallbackPvS_i
Qbk:_Convert_ToSByte_m4FF5982EBD63F4EB1AD28118955265EA28AD7EB9
F4p:_Mark_get_Length_m784BFF46E47C8C46226D7B8227DD243E849ACE8C_AdjustorThunk
Kzb:__ZN6prcoreL17RemapGenericFloatI15TexFormatRGHalf18TexFormatARGBFloatEEvPKNS_9InnerInfoE
YUc:__ZL9ClearMaps19AssemblyLoadFailure
rxb:__ZN6prcore17BlitBilinearFloatERK14ImageReferenceRS0_
pzm:_Array_InternalArray__IEnumerable_GetEnumerator_TisPlayableBinding_t4D92F4CF16B8608DD83947E5D40CB7690F23F9C8_mC841E11574454C57A0F967F6069600BEA7C2AD1C_gshared
Tgc:__Z18SimulateMouseInputi
mCk:_DepthOfFieldDeprecated_OnEnable_mB808CF467B17BB081BC4F03FC85AEDE34258B63B
Nxc:__ZN13RenderManager23AddRemoveCamerasDelayedEv
jKh:__ZL103RuntimePlatform_tD5F5737C1BBBCBB115EB104DF2B7876387E80132_CustomAttributesCacheGenerator_MetroPlayerX86P21CustomAttributesCache
M4g:__ZN11UnityEngine9Analytics15AnalyticsConfigC2Ev
trg:__ZN9Heightmap8TransferI24GenerateTypeTreeTransferEEvRT_
E4g:__ZN11UnityEngine15PlatformWrapper20SetPlayerPrefsUInt64ERKN4core12basic_stringIcNS1_20StringStorageDefaultIcEEEEy
cRf:__ZN5physx30PxsNphaseImplementationContext29removeContactManagersFallbackEPNS_23PxsContactManagerOutputE
RC:__ZN9Scripting11UnityEngine13AnimatorProxy12CleanupProxyEv
OXf:__ZN5physx2Bp13BroadPhaseMBP11shiftOriginERKNS_6PxVec3E
cof:__ZN5physx2Dy12Articulation12getDataSizesEjRjS2_S2_
TB:__ZN9Scripting11UnityEngine10AnimationsL57__ManagedRegistrationHelperFunction_ParentConstraintProxyEPv
jNq:_TimedObjectActivator_Deactivate_m1F7A9B9229FEE01704DB8507894621C8156B3CE5
tt:__ZNSt3__26vectorIN22NavMeshProjectSettings15NavMeshAreaDataENS_9allocatorIS2_EEE21__push_back_slow_pathIRKS2_EEvOT_
nTc:__ZN13RenderTexture8SetWidthEi
pXn:_Decimal_string2decimal_m5C85FBC350BDCD900FC5CAC0335D3B04E006564A
Cde:__ZN11ColorModuleD0Ev
Qxn:_Selectable_OnPointerUp_mD9B21EB27CDCF610DCC6EFE191CB67933D207927
gNg:_UNITY_FT_GlyphLoader_CheckSubGlyphs
XYh:__ZL88HumanBone_t2CE168CF8638CEABF48FB7B7CCF77BBE0CECF995_CustomAttributesCacheGenerator_limitP21CustomAttributesCache
Z$s:__ZN6il2cpp2vm21ThreadPoolCompartment20SpawnNewWorkerThreadEv
_vg:__ZN14DetailDatabase9BuildMeshEii8Vector3f16DetailRenderModef
swq:_DefaultComparer_Equals_mA96F64E46A6E7625F7DF2853F802A348A92AC526_gshared
T8p:_BackslashNumber__ctor_mDC4EE1A25647365B4BCC98EEA8D69F585622BE54
g3c:__Z18RegisterUnityClassI12CubemapArrayEvPKc
q$g:__ZN11UnityEngine9Analytics16LimitEventConfig11ResetValuesEv
xdn:_SslStreamBase_EndNegotiateHandshake_m446F093DDAF890C5BA7CE5EFA35345904E7A0F0D
Rpf:__ZNK5physx9NpFactory11getNbShapesEv
awd:__Z70Register_UnityEngine_RenderTexture_SetRenderTextureDescriptor_Injectedv
_Ed:__Z13SetLocalEuler15TransformAccessRKN4math7_float3ENS0_13RotationOrderE
c9b:__Z22TransferField_NonArrayI19StreamedBinaryWrite27Converter_SimpleNativeClassI17AnimationCurveTplIfEEEvRK23StaticTransferFieldInfoR31RuntimeSerializationCommandInfoRT0_
sWd:__ZN8JSONRead21TransferSTLStyleArrayI13dynamic_arrayI5RectTIiELj0EEEEvRT_17TransferMetaFlags
Xoa:__ZN9ShaderLab16FastPropertyName4InitEPKc
LUn:_DateTimeUtils_ToString_m39FBD34ADEE4AC1478F4EEF3312362DC1F4DC86F
jqb:__ZN6ObjectC2E10MemLabelId18ObjectCreationMode
XMs:__ZN6il2cpp2vm5Class11GetPtrClassEP11Il2CppClass
FFj:_CADSerializer_DeserializeObject_mC453BB871D473236FF149C424AAF581977C982EC
hGe:__ZN5physx14PxRigidBodyExt23setMassAndUpdateInertiaERNS_11PxRigidBodyEfPKNS_6PxVec3Eb
Fiq:_ShimEnumerator_get_Key_mE75C99D9AADDDDFB6DE90D4B9E2A91507C369FB7_gshared
YUm:_EnumBuilder_InvokeMember_mA66FC5054CE1A68B63900C3F54ACCAE1C59652D4
Q0g:__ZN11UnityEngine15PlatformWrapper19GetPhysicalMemoryMBEv
wgd:__ZN15CameraScripting22CalculateObliqueMatrixEPK6Camera8Vector4f
Lob:__ZN13RenderTexture9SetMipMapEb
zUc:_RegisterModule_Jobs
qyi:__ZNK62OpCodes_t68E6B52B0B80EC63090337A0C70E8CD9CC57F560_StaticFields15get_Ldind_I2_71Ev
H1l:__Z190RuntimeInvoker_TrueRuntimeObject_RuntimeObject_Int32_tC16F64335CE8B56D99229DE94BB3A876ED55FE87_Int32_tC16F64335CE8B56D99229DE94BB3A876ED55FE87_Int32_tC16F64335CE8B56D99229DE94BB3A876ED55FE87PFvvEPK10MethodInfoPvPS4_
vla:__Z18GetDirectorManagerv
bGt:__ZN6il2cpp2vm13ComObjectBase18ReleaseMarshalDataEP13Il2CppIStream
OOl:_IPAddress_Parse_m4E1F2B60A84911B557378524999CEC20301C5C26
oPs:__ZN14dense_hash_mapI10KeyWrapperIPK11Il2CppClassEPKcN6il2cpp5utils11PointerHashIS1_EENS4_14EqualsComparerINSt3__28equal_toIS3_EEEENSC_9allocatorINSC_4pairIKS4_S6_EEEEEC2EjRKSA_RKSF_
O5t:_glClear__wrapper
Y7a:__ZN11NamedObject8TransferI19StreamedBinaryWriteEEvRT_
vkg:__ZN13dynamic_arrayIP8ColliderLj0EE9push_backERKS1_
zro:_Encoding_Equals_mC347AA473EFD360B8DBE7426BABE78308ABA5E04
_$i:_ArrayReadOnlyList_1_GetEnumerator_m9D8E7E6A1C464BE733171FB329BB88D51F9B30D9_gshared
KQo:_SerializableTypeMetadata_WriteAssemblies_m44C14911E4FEB1651509A76E752650772EBC04AF
xCj:_GCHandle_GetHashCode_m21743E88B420952D84311643F9F3206B1150265B_AdjustorThunk
CKr:__ZNK56GameController_t8BB0D3CE8992C95BED5FB508588730F0A74009A312get_State_98Ev
Hnc:__ZN7ApiGLES19UploadBufferSubDataEjN2gl12BufferTargetEllPKv
Kjo:_SecurityElement_SearchForChildByTag_m8D5996852B8CD7F817047D0B1178DE5AA4566F7D
Rjg:__ZN13dynamic_arrayIN5physx10PxSweepHitELj0EE20resize_uninitializedEj12ResizePolicy
dDa:__ZNSt3__216__rotate_forwardINS_11__wrap_iterIPN4core12basic_stringIcNS2_20StringStorageDefaultIcEEEEEEEET_S9_S9_S9_
UPd:__Z26GUI_CUSTOM_HasMouseControli
xAf:__ZN5physx2Sc24ElementInteractionMarkerD2Ev
mOa:__ZN9Scripting11UnityEngine12Experimental10PlayerLoop14PostLateUpdate31UpdateCustomRenderTexturesProxy9InitProxyEv
QKd:__ZN9JSONWrite8TransferIN14CrashReporting12UserMetadataEEEvRT_PKc17TransferMetaFlags
r5i:__Z71InternalEnumerator_1_MoveNext_m235E8F67441980C942158A103B768BBE7BDE3D68P62InternalEnumerator_1_t1B956B0BD7CB536CFBA5FFD62D050430A84A8078PK10MethodInfo
pkj:__Z105InternalEnumerator_1_System_Collections_IEnumerator_get_Current_m5E9526A7B98E00E08DB774C352A8E5F0E65957FFP62InternalEnumerator_1_t88B9EC0256EA1B36953D940E6BC13B514DB12C76PK10MethodInfo
WTa:__ZN9Scripting5Unity11Collections8LowLevel6Unsafe47NativeDisableUnsafePtrRestrictionAttributeProxy9InitProxyEv
Sho:_Evidence_get_HostEvidenceList_m9079BFF1CD0579F7020F05C6ED63B1BCA8FDFC64
G9s:__ZN15dense_hashtableINSt3__24pairIK10KeyWrapperINS1_IPK11Il2CppImageP11Il2CppClassEEEjEES9_17ReflectionMapHashIS8_EN14dense_hash_mapIS9_jSD_NS9_14EqualsComparerINS0_8equal_toIS8_EEEENS0_9allocatorISB_EEE9SelectKeyESI_SK_E15insert_noresizeERKSB_
VGc:__ZN4core20StringStorageDefaultIcEC2E10MemLabelId
efs:_WebRequestUtils_MakeInitialUrl_m446CCE4EFB276BE27A9380D55B9E704D01107B83
byb:__ZN6prcoreL19RemapGenericIntegerI15TexFormatRGB88815TexFormatRGB565EEvPKNS_9InnerInfoE
vZj:_ArrayList_set_Capacity_mBA8CB069EBDAC1E9F139AAA06B670244022808B8
P9l:__Z175RuntimeInvoker_TrueVoid_tDB81A15FA2AB53E2401A76B745D215397B29F783_SByte_t50B643C59EE66E3364AED19D82E06B27BDE75268_SByte_t50B643C59EE66E3364AED19D82E06B27BDE75268_RuntimeObjectPFvvEPK10MethodInfoPvPS4_
hVc:__Z21InitializeBatchedJobsv
o1b:__Z19TransferField_ArrayI14SafeBinaryRead27Converter_SimpleNativeClassI8GUIStyleEEvRK23StaticTransferFieldInfoR31RuntimeSerializationCommandInfoRT0_
MVf:__ZN5physx2IG19SimpleIslandManagerC2Eby
jRt:__ZN6il2cpp5utils10MemoryPoolC2Ej
f6d:__Z25UpdateOrbitalAndRadialTplIL27ParticleSystemCurveEvalMode0ELS0_1ELS0_3EEvRK11MinMaxCurveS3_S3_S3_S3_S3_S3_R23ParticleSystemParticlesjjRKN4math8float3x3ERKNS6_7affineXERKNS6_7_float4E
Y9k:_TypeBuilder_GetConstructorImpl_mEBD239B97627CAA0E414214B966316BE1EAA6331
jmb:__ZN14RenderSettings5ResetEv
MSa:__ZN9Scripting11UnityEngine15ColorGamutProxy9InitProxyEv
HQd:__ZN5Unity9rapidjson12GenericValueINS0_4UTF8IcEE13JSONAllocatorE10FindMemberIS4_EENS0_21GenericMemberIteratorILb0ES3_S4_EERKNS1_IS3_T_EE
umf:__ZN5physx9NpPhysics33unregisterDeletionListenerObjectsERNS_18PxDeletionListenerEPKPKNS_6PxBaseEj
Zuf:__ZNK5physx2Sc9ClothCore22getAngularInertiaScaleEv
XXd:__ZN5Unity9rapidjson13GenericReaderINS0_4UTF8IcEES3_13JSONAllocatorE11ParseNumberILj1ENS0_25GenericInsituStringStreamIS3_EENS0_15GenericDocumentIS3_S4_S4_EEEEvRT0_RT1_
CWs:__ZNK14dense_hash_setI10KeyWrapperIPK19Il2CppGenericMethodEN6il2cpp8metadata23Il2CppGenericMethodHashENS4_14EqualsComparerINS6_26Il2CppGenericMethodCompareEEENSt3__29allocatorIS4_EEE4findERKS4_
Bgf:__ZN5physx20NpRigidActorTemplateINS_18PxArticulationLinkEE12setActorFlagENS_11PxActorFlag4EnumEb
NNt:_GC_noop1
ghl:_PropertyInfo_SetValue_mCBFC43F52F5F1C7429CEF39CF2D9DD75B8DE4F5D
Akj:_InternalEnumerator_1__ctor_m9E2BF51C1D4B64A694D3DB590AE66E3DBEB16828_AdjustorThunk
JNt:_GC_noop6
J5m:_Array_Reverse_mD0C0F739C51E380F6F770595D907C4C88AB9FE4B
Ore:__ZN12b2MouseJoint23InitVelocityConstraintsERK12b2SolverData
TQd:__ZN8Gradient8TransferI9JSONWriteEEvRT_
qJd:__Z51Register_UnityEngine_Sprite_GetTextureRect_Injectedv
q8a:__ZNK12TLSAllocatorI14StackAllocatorE22GetAllocatedMemorySizeEv
sP:__ZN7mecanim6memory16ChainedAllocator8AllocateEjj
E8:__ZN11AudioSource23VirtualRedirectTransferER18StreamedBinaryRead
b0t:dynCall_dfi
Hod:__Z32GetSceneHierarchyPathDescriptivePK6Object
hVa:__ZN12HandlerChain4NameEv
Gbk:_Convert_ToInt64_m704B992D99E2ABDFA137C47104D5DA70387D6444
s_o:_HMACSHA256__ctor_mFC352CCF16E99A439AB3419B5211A3A37C609F18
o3b:__Z29Transfer_Blittable_ArrayFieldI14SafeBinaryReadN4math12int3_storageEEvRT_R9ArrayInfoRK23StaticTransferFieldInfo
sAm:__ZNK56UIVertexU5BU5D_tB560F9F9269864891FCE1677971F603A08AA857A14GetAtUncheckedEj
zZp:_Vector4_get_zero_m42821248DDFA4F9A3E0B2E84CBCB737BE9DCE3E9
f4j:_Hashtable_GetHash_m59E1CC5ED2DC7C67EE0E9EB63A9C736513B6E756
BFi:_ExecuteEvents_GetEventChain_m640191F67AEB374A5E6FD9B1E6CC48CF31FFDCAD
$4d:__Z25UpdateOrbitalAndRadialTplIL27ParticleSystemCurveEvalMode2ELS0_1ELS0_3EEvRK11MinMaxCurveS3_S3_S3_S3_S3_S3_R23ParticleSystemParticlesjjRKN4math8float3x3ERKNS6_7affineXERKNS6_7_float4E
uGt:__ZN6il2cpp5utils10StringViewIDsEC2ILj2EEERAT__KDs
VVg:__Z44Register_UnityEngine_CanvasRenderer_get_cullv
Nbe:__ZN11ColorModule8TransferI19StreamedBinaryWriteEEvRT_
qIh:__ZL98PreferBinarySerialization_tB72B23C484386F00A6C3C4EC4F81B8E571B0C3D0_CustomAttributesCacheGeneratorP21CustomAttributesCache
Dkj:_InternalEnumerator_1_System_Collections_IEnumerator_Reset_mE80D6A21B3BCCE0D06BD9742FB0D35276A8F0111_AdjustorThunk
NCs:_TextGenerator_System_IDisposable_Dispose_m9D3291DC086282AF57A115B39D3C17BD0074FA3D
r$b:__Z44InitializeTransferFunctionScriptingTraitsForI17RemapPPtrTransferEvR31TransferFunctionScriptingTraits
NWt:_swapc
R1i:_InternalEnumerator_1_System_Collections_IEnumerator_Reset_m9D24062BDE6241F02C72CC6B1E524504A170EA6D_AdjustorThunk
Hys:__Z68Dictionary_2_GetEnumerator_m6A761440C852EBB50A6DDEF89E54A0BDA6805287P54Dictionary_2_tEB34CAE1B4D0E725777A5B9D419AF51BE918C30CPK10MethodInfo
W3c:__ZNSt3__26vectorI16MessageForwarder13stl_allocatorIS1_L18MemLabelIdentifier7ELi8EEE6resizeEj
r7n:_DateTimeFormatInfo__cctor_mFC9C515D9DF78065A01855CAD31CFB23B25E4C0B
w0d:__Z19UpdateProceduralTplIL27ParticleSystemCurveEvalMode4EEvRK20DualMinMaxPolyCurvesR23ParticleSystemParticlesPfRKN4math7_float4E
Adk:_DBNull_System_IConvertible_ToByte_m16D2308A76782460211D9138F3D7DECC1C9613B7
nXo:_CspParameters__ctor_m989482B2FCF95A168D4FCA03B261A573DCE5F947
DKs:_NativePropertyAttribute__ctor_m2584E9D08E56EFB31AE671E6488046168A3911D3
eEp:_Int16_CompareTo_m177E7AFE0BDEF24D3B3E73FD5B117A19B2A425B6_AdjustorThunk
Nim:__Z145RuntimeInvoker_FalseSByte_t50B643C59EE66E3364AED19D82E06B27BDE75268_RuntimeObject_Vector2_tA85D2DD88578276CA8A8796756458277E72D073D_RuntimeObjectPFvvEPK10MethodInfoPvPS4_
olr:_ReadOnlyCollection_1_System_Collections_IList_Contains_m398A426E1C808EE1B9410CC99A12611B70D79AB5_gshared
rMk:_HorizontalOrVerticalLayoutGroup_get_childForceExpandWidth_mD4A2A2666348A01635E5801CE88FA00723BBE16A
ika:__ZNSt3__26__treeINS_12__value_typeI17ScriptingClassPtrS2_EENS_19__map_value_compareIS2_S3_NS_4lessIS2_EELb1EEENS_9allocatorIS3_EEE7destroyEPNS_11__tree_nodeIS3_PvEE
zca:__ZNK12AudioManager16GetAudioListenerEv
g6p:_PatternLinkStack__ctor_mDA7DC405E67D4ECCB506580D98628CC2C2E90D9C
vLc:__ZNK15SharedLightData17GetWorldDirectionEv
VPm:_Default__ctor_m7294AF4DE67564603D2F77DF29F1F3AB255DD774
ozs:_CharacterController_Move_m31D77B4E934015FE3D6CE04BF8017A1DD0487434
B5k:__ZN62OpCodes_t68E6B52B0B80EC63090337A0C70E8CD9CC57F560_StaticFields13set_Ldc_R4_34E48OpCode_tFBF4FC2990E657EA00DA0BB36BE0CC73515E6511
kSc:__ZNSt3__26vectorI11CameraStackNS_9allocatorIS1_EEE8__appendEj
jkg:__ZL21OverlapSphereInternaliRK8Vector3ffi23QueryTriggerInteractionRN5physx13PxHitCallbackINS3_12PxOverlapHitEEE
YJa:__ZN9Scripting11UnityEngine13Serialization34FormerlySerializedAsAttributeProxy9InitProxyEv
SLj:_SynchronizationAttribute_GetPropertiesForNewContext_mC01B6CF7C25E787956F8990A387F24EC4DF66065
rno:_String_LastIndexOfAny_m1625A51B58F0ADE0266DBAB4F061784A98479C2C
DF:__ZN7mecanim9animation12GetHumanPoseERKNS0_18ClipMuscleConstantEPKNS0_10ValueDeltaERNS_5human9HumanPoseE
VUi:_FloatTween_set_ignoreTimeScale_mA660DAD4BFDCF099BCB1DF6648478700F1D65E58_AdjustorThunk
hIl:_Playable__ctor_m24C6ED455A921F585698BFFEC5CCED397205543E_AdjustorThunk
FH:__ZN22AnimationMixerPlayable17ProcessRootMotionEP35AnimationPlayableEvaluationConstantP32AnimationPlayableEvaluationInputP33AnimationPlayableEvaluationOutput
Qum:_Array_InternalArray__ICollection_Contains_TisMonoResource_t5C164C5697148DFD97D8099DD7099CB71E452D8A_mB66438F8639499357CDE38F2B321828B6E85EA3F_gshared
YOs:___cxx_global_var_init_42061
fva:__Z13GetFileSystemv
wqc:_glProgramUniform4iv
T8n:_RegionInfo_get_CurrentRegion_mC0A831B368EEAACFB87BB2D1209AA6678FD0FD79
yDm:_Array_InternalArray__ICollection_Add_TisPlayableBinding_t4D92F4CF16B8608DD83947E5D40CB7690F23F9C8_m5DE2141170346C06E3C0573A419C4F430F596776_gshared
wDa:__ZN13RuntimeStaticI15GUIEventManagerLb0EE16StaticInitializeEPv
dLb:__ZN14SafeBinaryRead8TransferIfEEvRT_PKc17TransferMetaFlags
qYm:_ContentInfo_set_Content_mE8B4B119218768E036E38CCCC9DD37FF9C1D168F
JSk:_InputField_set_inputType_mE792B56508E222577EB8FD36AE660FDB5C6085EB
Aao:_Guid__ctor_mD1BC709AB00E1FD0601923ED3E7600B8274B3366
d4e:__ZN15RaycastCallback14processTouchesEPKN5physx12PxRaycastHitEj
kIh:__ZL111RuntimeInitializeOnLoadMethodAttribute_t885895E16D3B9209752951C406B870126AA69D70_CustomAttributesCacheGeneratorP21CustomAttributesCache
MLt:_GC_allocobj
rKd:__ZN13dynamic_arrayIN14CrashReporting6ThreadELj0EE6assignEPKS1_S4_
Nke:__Z20UpdateWholeSheet2TplILN8UVModule8TimeModeE0EL27ParticleSystemCurveEvalMode1ELS2_3EEvfRK11MinMaxCurveS5_RKN4math7_float2ERK23ParticleSystemParticlesPf
Lcc:__ZN23ManagedMonoBehaviourRef22DoScriptRebuildWarningEP6Object
ove:__ZN24RigidbodyMovementState2D21ResetAngularMoveStateEv
C4k:__ZN48OpCode_tFBF4FC2990E657EA00DA0BB36BE0CC73515E651110set_flow_7Eh
jxo:_ExecutionContext__ctor_m8B5D8CE15D4F73BA850B21FF7BE7056C7EF41D57
J7f:__ZN5physx2Gu5RTree15exportExtraDataERNS_22PxSerializationContextE
c8d:__ZN23ParticleSystemParticles13SetUsesLightsEv
Vrm:__Z141RuntimeInvoker_TrueKeyValuePair_2_t198F3EF99C5CB706B8E678896CA900035FACF342_TileCoord_t51EDF1EA1A3A7F9C1D85C186E7A7954535C225BA_RuntimeObjectPFvvEPK10MethodInfoPvPS4_
dwd:__Z51Register_UnityEngine_RenderTexture_ReleaseTemporaryv
Q8l:__Z166RuntimeInvoker_FalseDouble_t2011D65DAF7D1FCBE71DD4CBDFA69A8F24643159_Double_t2011D65DAF7D1FCBE71DD4CBDFA69A8F24643159_Double_t2011D65DAF7D1FCBE71DD4CBDFA69A8F24643159PFvvEPK10MethodInfoPvPS4_
ePq:_WaypointCircuit_DrawGizmos_m191B11CCD5B0E07993DECA0FC7A138EC831750BE
Vyc:__ZN19ShaderPropertySheet9SetMatrixEN9ShaderLab16FastPropertyNameERK10Matrix4x4fNS_8SetFlagsE
PCb:__Z29GetTextureSizeAllowedMultiple13TextureFormat
XMo:_BitConverterLE_ToDouble_mB4A5EF229D3D2BE4637F57E9F2CCC3792E6D23C8
Dup:_File_Delete_m434F6FAEF37B2A58E9CF43472832A032C7F4FD9C
rig:__ZN14PhysicsManager24GetSharedCollisionHandleEv
n6d:__Z25UpdateOrbitalAndRadialTplIL27ParticleSystemCurveEvalMode0ELS0_2ELS0_4EEvRK11MinMaxCurveS3_S3_S3_S3_S3_S3_R23ParticleSystemParticlesjjRKN4math8float3x3ERKNS6_7affineXERKNS6_7_float4E
Qgt:_il2cpp_array_element_size
Wch:__ZN9Scripting19UnityEngineInternal5Video21VideoPixelFormatProxy12CleanupProxyEv
e9a:__ZNSt3__26__treeINS_12__value_typeIN4core12basic_stringIcNS2_20StringStorageDefaultIcEEEEjEENS_19__map_value_compareIS6_S7_NS_4lessIS6_EELb1EEE13stl_allocatorIS7_L18MemLabelIdentifier7ELi16EEE25__emplace_unique_key_argsIS6_JNS_4pairIS6_jEEEEENSH_INS_15__tree_iteratorIS7_PNS_11__tree_nodeIS7_PvEEiEEbEERKT_DpOT0_
dh:_glCheckFramebufferStatus
Rva:__Z31DestroyObjectHighLevel_InternalP6Objectb
kma:__Z43scripting_class_get_method_from_name_filter17ScriptingClassPtrPKciN24ScriptingMethodFiltering18MethodSearchFilterEPK16ScriptingTypePtr
aUl:_X509Certificate2__cctor_m457A12CE3435A9A646BF443FB8E4232D519CC23A
cxf:__ZN5physx3Scb4Body17switchBodyToNoSimEv
oPf:__ZN5physx2Gu12_GLOBAL__N_113AccumCallback10processHitERKNS_12PxRaycastHitERKNS_6PxVec3ES8_S8_RfPKj
I7h:__ZL108MaskableGraphic_tDA46A5925C6A2101217C9F52C855B5C1A36A7A0F_CustomAttributesCacheGenerator_m_ShouldRecalculateP21CustomAttributesCache
Nyi:_ObjectWriter_WriteTypeSpec_m00073308CBBCAD275AF4119CE3CC4E590FA2F389
BOm:__Z37il2cpp_codegen_get_executing_assemblyPK10MethodInfo
syd:__Z104Register_UnityEngine_Experimental_Rendering_GraphicsFormatUtility_GetGraphicsFormat_Native_TextureFormatv
sQe:__ZN5physx2Gu16intersectRayAABBERKNS_6PxVec3ES3_S3_S3_RfS4_
N6f:__ZN5physx13GuMeshFactory18createTriangleMeshERNS_2Gu16TriangleMeshDataE
JE:__ZN21AnimationClipPlayable7SetTimeEd
mJq:_U3CFOVKickDownU3Ec__Iterator1_MoveNext_m3FC9A9DBD94A8C8CE3024BEABA33B911F93F361F
dQa:__ZN9Scripting11UnityEngine12Experimental10PlayerLoop11FixedUpdate35DirectorFixedUpdatePostPhysicsProxy12CleanupProxyEv
nMi:_StandaloneInputModule_set_cancelButton_m9762F38B1A56D234D03C0D799CAC3060FF555409
qbn:_SslClientStream_add_ServerCertValidation_m8249CFEE180A71CE2855C10A3613BCAD718E1FFF
O_l:__Z210RuntimeInvoker_TrueInt32_tC16F64335CE8B56D99229DE94BB3A876ED55FE87_Int16_tBFC41132AB8E6B4E1F9D4A1E3CC46422BF453F3C_Int32_tC16F64335CE8B56D99229DE94BB3A876ED55FE87_Int32_tC16F64335CE8B56D99229DE94BB3A876ED55FE87PFvvEPK10MethodInfoPvPS4_
cNt:_GC_push_all
EJo:_SimpleCollator_IsPrefix_mF0452A14B821BD37CA18347C3A042CA596122D62
gua:__ZN19dynamic_block_arrayI14FileIdentifierLj64EED2Ev
LYq:_List_1_set_Capacity_m549C2E96D45ECA5BB12B17EA0351FBB830D3E94C_gshared
Bv:__ZN12VertexWelderILi64EE4PushERK8Vector3f
ydt:__ZN13Il2CppHashMapIPK14Il2CppAssemblyPK22Il2CppMonoAssemblyNameN6il2cpp5utils11PointerHashIS1_EENSt3__28equal_toIS2_EENSA_9allocatorINSA_4pairIK10KeyWrapperIS2_ES5_EEEEEC2EjRKS9_RKSC_
vQn:_ClientSessionInfo__ctor_m40410CEBE15D7092880EA5D352BA6BF1DBC6C675
X9r:_UInt64_Equals_mDD0D839B196D74CC004F10CA2A1F5DF5F022A3B8_AdjustorThunk
bQ:__ZN14AnimationEvent8TransferI14SafeBinaryReadEEvRT_
zPc:__Z28CullDirectionalShadowCastersiR11CullResults
Xta:__ZN8Remapper6RemoveEi
Nui:_ObjectReader_ReadAssembly_mBB1C865BDEABD0E859D2E53EDD275E4F81C546B4
lIh:__ZL89ScriptableObject_tAB015486CEAB714DA0D5C1BA389B84FB90427734_CustomAttributesCacheGeneratorP21CustomAttributesCache
esd:__ZN9Scripting27CreateArgumentNullExceptionEPKc
ADg:__ZL36CleanupTextRenderingScriptingClassesv
$Ie:__ZThn4_N16RayRTreeCallbackILi0ELb0EED0Ev
Ngd:__ZN15ReflectionProbe17UseRendererResultEP13ProbeRenderer
qbl:_EventInfo_get_EventHandlerType_mEEF40A57F7CD33D49CAE2C5C33A02307318E5452
y$r:_GUI_Button_m0F0D437C533454A4BF0096E0DC55EEB66366E08D
eCl:_Mathf_MoveTowards_m3B267066E774818E369220B0ABD084B271B45A85
CLs:__ZN14dense_hash_mapI10KeyWrapperIPK22Il2CppGenericParameterEP11Il2CppClassN6il2cpp5utils11PointerHashIS2_EENS4_14EqualsComparerINSt3__28equal_toIS3_EEEENSC_9allocatorINSC_4pairIKS4_S6_EEEEED2Ev
Vcj:_InternalEnumerator_1_get_Current_mCE04278F9396F413CD302DC88CBE7FEB30BEADE9_gshared
Owj:_Enumerator_System_Collections_IDictionaryEnumerator_get_Value_mACFEDB33A355127EC902E4C6CE4675C9101D5771_AdjustorThunk
B9p:_AnchorInfo__ctor_m8D9C2BF3134AC2829E8909B4AAD018956AA977D6
cp:__ZN12NavMeshAgent23VirtualRedirectTransferER19StreamedBinaryWrite
w0i:_ArrayReadOnlyList_1_Insert_m8BED0E969B5614227624D87EC42822390D1A2CB3_gshared
mpl:_Camera_get_main_m9256A9F84F92D7ED73F3E6C4E2694030AD8B61FA
gwa:__ZN17TransformInternal19FreeTransformThreadER18TransformHierarchyjj
ptq:_Dictionary_2_ContainsKey_mF611ED955464BD7510318D082DCDDF11ACA0B79E_gshared
Djt:__ZN6il2cpp2vm4Type7GetTypeEPK10Il2CppType
tVi:_DefaultControls_SetDefaultColorTransitionValues_m540576C1FD3A072FB3AB76185EFEF51AC82A3A99
I_:__ZN11UnityEngine9Animation28GenericAnimationBindingCache25RegisterIAnimationBindingEPKN5Unity4TypeEiP17IAnimationBinding
ace:__ZN11TrailModule8TransferI19StreamedBinaryWriteEEvRT_
KJk:_Graphic_CreateColorFromAlpha_m935A0559C2575F212FE7B90D17C0EFFA3A272E3D
e7c:__ZZL23RegisterLightPropertiesR23GenericPropertyBindingTILj16EEEN20Wrapper_LightColora313SetFloatValueEPvf
RJa:__ZN9Scripting11UnityEngine11SpriteProxy12CleanupProxyEv
eBr:_CelebrateBothRewardsHit_Update_m80E35D5A939B78BE3FF8BB52EB3D4015D88CDE1B
B1r:_GUIContent_ClearStaticCache_m567DA736612F9E6E66262CC630952AB2E22BC933
Uoa:__ZN10MemoryPoolC2E10MemLabelIdbPKciii
a4g:__ZN14UnityAnalytics25UnregisterGlobalCallbacksEv
KQc:__Z40ProcessCameraIndexListIsNodeVisibleInOutRK22SceneCullingParametersPK9SceneNodePK4AABBR9IndexList
WJa:__ZN9Scripting11UnityEngine19SerializeFieldProxy9InitProxyEv
Vxm:_SetPropertyUtility_SetStruct_TisSpriteState_t58B9DD66A79CD69AB4CFC3AD0C41E45DC2192C0A_m9DD448A9E5DE95CEBA6BE51EC09F0B3C6C7CC7E9_gshared
qTg:__ZN2UI6Canvas13UpdateBatchesEb
B8j:_Convert_ToBoolean_m08BA098F1E1D8BD6F41409896D2DFE5928D37C82
gL:__ZNK23AnimationPlayableOutput11DerivesFromE17ScriptingClassPtr
Nfm:__Z211RuntimeInvoker_TrueVoid_tDB81A15FA2AB53E2401A76B745D215397B29F783_Int32_tC16F64335CE8B56D99229DE94BB3A876ED55FE87_Single_tF2613CF3F3AF0E8BEBC3CE8AD41479C44E6075DB_Single_tF2613CF3F3AF0E8BEBC3CE8AD41479C44E6075DBPFvvEPK10MethodInfoPvPS4_
fwg:__ZN15TerrainRenderer15CreateRenderersERNS_16RenderParametersE
HNi:_TouchInputModule_Process_m00C76893C9202BF2167ED29D533722213B9957F7
Weh:__ZN9Scripting11UnityEngine12Experimental2XR30XRMeshSubsystemDescriptorProxy9InitProxyEv
KSe:__ZL20outputConvexToStreamPN5physx7PxShapeEPKNS_12PxRigidActorERKNS_11PxTransformERNS_6shdfnd5ArrayIjNS8_19ReflectionAllocatorIjEEEERNS_3Cct8TriArrayESD_RKNS_14PxExtendedVec3ERKNS_9PxBounds3ERKNSE_9CCTParamsEPNS_2Cm12RenderBufferERt
l9f:__ZNK5physx7Cooking14cookConvexMeshERKNS_16PxConvexMeshDescERNS_14PxOutputStreamEPNS_25PxConvexMeshCookingResult4EnumE
$na:__ZN24ProfilerCallbacksHandlerC2E10MemLabelId
wR:__ZNSt3__26vectorI24CompressedAnimationCurve13stl_allocatorIS1_L18MemLabelIdentifier27ELi16EEE10deallocateEv
LEa:__ZN9Scripting11UnityEngine6EventsL53__ManagedRegistrationHelperFunction_UnityEvent_3ProxyEPv
$Wq:_List_1_Add_mB45903B0ADC9BAA8E974D01A9894817563D035AD_gshared
B_a:__ZN9GfxDevice18AllocRenderSurfaceEb
san:_ReceiveRecordAsyncResult_get_CompletedWithError_mD22A109883359912DAC830091C0FD3CF583CC9A1
HDf:__ZN5physx7NpScene5flushEb
Ycd:__ZN10TagManager32GetSortingLayerUniqueIDFromValueEi
nCo:_TimeZone_GetLocalTimeDiff_mB475F60529D90694C45989FBEC625C7CDF676F8F
cma:__ZL27CleanupCoreScriptingClassesv
$Pr:__Z60Predicate_1_Invoke_m2D1864BA4C8F4A3274AD498BC4566EBD4A7FE08EP53Predicate_1_t533E04B7AB6EAAA194095BB2B2392EC2541EC585P12Il2CppObjectPK10MethodInfo
n9a:__ZN10TagManager8TransferI19StreamedBinaryWriteEEvRT_
i0n:_Double_System_IConvertible_ToByte_mD7C75732A605448D5F650582F6074322B24CDB87
h7l:__Z171RuntimeInvoker_TrueSByte_t50B643C59EE66E3364AED19D82E06B27BDE75268_IntPtr_t_Int32_tC16F64335CE8B56D99229DE94BB3A876ED55FE87_SByte_t50B643C59EE66E3364AED19D82E06B27BDE75268PFvvEPK10MethodInfoPvPS4_
oeg:__ZN5physx6pvdsdk23PvdDefaultFileTransport5writeEPKhj
U3s:__ZN6il2cpp6icalls8mscorlib6SystemL16CheckMemberMatchI12PropertyInfoNS_5utils10functional6FilterINSt3__212basic_stringIcNS8_11char_traitsIcEENS8_9allocatorIcEEEENS5_13VmStringUtils23CaseInsensitiveComparerEEEEEbPKT_PK11Il2CppClassSN_iRKT0_
G7t:_glUniform1uiv__wrapper
Bpe:__ZNK14b2PolygonShape5CloneEP16b2BlockAllocator
bdt:__ZN6il2cpp2vm10Reflection7IsEventEP12Il2CppObject
Yta:__ZN17PersistentManager26GetStreamNameSpaceInternalEi
Xle:__Z17UpdateSprites2TplILN8UVModule8TimeModeE0EL27ParticleSystemCurveEvalMode0ELS2_4EEvRKfRK11MinMaxCurveS7_RKN4math7_float2ERK23ParticleSystemParticlesPf
u_h:__ZL94GUIUtility_t943494CC50E876A4A08ECD471C06E23D52E5E5BA_CustomAttributesCacheGenerator_s_SkinModeP21CustomAttributesCache
B9:__ZN4FMOD6System11createSoundEPKcjP22FMOD_CREATESOUNDEXINFOPPNS_5SoundE
sEa:__ZN9Scripting11UnityEngineL54__ManagedRegistrationHelperFunction_ComputeBufferProxyEPv
Xl:FUNCTION_TABLE_iiifiiii
Qng:__ZN13SpeedTreeWind20AdvanceWithoutUpdateEd
AQl:_WebHeaderCollection_IsHeaderName_m62EA894F8D2A9A418B64C51545BC67F5AFFC6BC9
Tjt:__ZN6il2cpp2vm4Type14IsSystemDBNullEPK10Il2CppType
CTi:_ColorTween_set_targetColor_mA9B42BCD97F4DCA902A5F41B439E65276F1ADCAB
ifh:__ZN9Scripting11UnityEngine12Experimental2XR23XRDisplaySubsystemProxy9InitProxyEv
yqa:__ZN9ShaderLab19CommonPropertyNames13StaticCleanupEPv
kta:__Z31scripting_method_get_returntype18ScriptingMethodPtr
sPe:__ZN5physx2Gu26SweepConvexMeshHitCallback10processHitERKNS_12PxRaycastHitERKNS_6PxVec3ES7_S7_RfPKj
ZGb:__ZN15SerializeTraitsI12LightmapDataE8TransferI24GenerateTypeTreeTransferEEvRS0_RT_
w8t:_glStencilOpSeparate__wrapper
dyg:__ZN15TerrainCollider23VirtualRedirectTransferER24GenerateTypeTreeTransfer
Yld:__ZN4Mesh5SetUvEiPKfjj
$Db:__ZN7Texture13SetAnisoLimitENS_20AnisotropicFilteringE
ODo:_Type_MakeGenericType_mC4CFBBC7F84F497001347EAF84A94300DEE95222
Gda:__ZN11AudioModule16SetListenerPauseEb
ZE:__ZN21AnimationClipPlayable22PrepareAnimationEventsEfR13dynamic_arrayI22AnimationClipEventInfoLj0EE
JBi:_BaseInputModule_DetermineMoveDirection_m405D909925AE1C0008A90F0E9B71951BEA440610
zgd:__ZN15CameraScripting6RenderEP6Camera
Crc:__ZN13GfxDeviceGLES22MemoryBarrierImmediateEyN2gl17MemoryBarrierTypeE
Jf:_abort
$rt:__ZN6il2cpp6icalls8mscorlib6System4Type18internal_from_nameEP12Il2CppStringbb
Nyb:__ZN6prcoreL26RemapGenericFloatToIntegerI18TexFormatARGBFloat17TexFormatARGB8888EEvPKNS_9InnerInfoE
Kye:__ZN14qsort_internal5QSortIPN35b2SynchronizeContinuousFixturesTask14b2DeferredMoveEiPFbRKS2_S5_EEEvT_S8_T0_T1_
lCh:__ZL91ExtensionAttribute_t0E6139C632E11C90DF429B833B349A984AA71242_CustomAttributesCacheGeneratorP21CustomAttributesCache
rFs:__ZNK57ContactFilter2D_t1BEAE75CCD5614B40E8AD9031BBD72543E2C37B414get_useDepth_2Ev
spd:__Z46GetShaderModelNumericValueFromRequirementsMask18ShaderRequirements
uHg:_cff_ps_has_glyph_names
qip:__Z58Enumerator__ctor_m28E3AFFEFD78DF63E816DDF51ED899976D50C505P52Enumerator_t149A6AE504D5614BADD02839DC89FA009066E5A9P48List_1_t749ADA5233D9B421293A000DCB83608A24C3D5D5PK10MethodInfo
Awf:__ZN5physx14NpRigidDynamic18setKinematicTargetERKNS_11PxTransformE
oEp:_Int32_CheckStyle_m75F34EB0D25C3E351DAE95987D27455587AEF5BF
a$:__ZN13ProduceHelperI9AnimationLb0EE7ProduceE10MemLabelId18ObjectCreationMode
oA:__ZN17ConstraintManagerD2Ev
emm:__Z171RuntimeInvoker_FalseSByte_t50B643C59EE66E3364AED19D82E06B27BDE75268_VoidU2A_t8A995245462F8BDC7319CC68F09ACF295FDD2879_SpriteState_t58B9DD66A79CD69AB4CFC3AD0C41E45DC2192C0APFvvEPK10MethodInfoPvPS4_
Kwi:_MessageFormatter_WriteMethodResponse_mB4BA910198AB728F73D7300D37125CF3247BA941
RPd:__Z44Register_UnityEngine_GUIStyle_SetDefaultFontv
Mle:__Z17UpdateSprites2TplILN8UVModule8TimeModeE0EL27ParticleSystemCurveEvalMode2ELS2_3EEvRKfRK11MinMaxCurveS7_RKN4math7_float2ERK23ParticleSystemParticlesPf
FO:__Z19AddCurveToDenseClipI8Vector3fEvRN7mecanim9animation9DenseClipEiRK17AnimationCurveTplIT_E
vU:__ZN9BlobWrite8TransferI22OffsetPtrArrayTransferIKN4math7_float3EEEEvRT_PKc17TransferMetaFlags
f0n:_Double_System_IConvertible_ToType_mAB057D48D300A354F9B91B61F682C4BBA7F43E36_AdjustorThunk
p_i:_Action_2_Invoke_m711B3333CFBD3D6BE5D484E14D086BD458237550_gshared
jUa:__ZN9Scripting5Unity11Collections8LowLevel6Unsafe46NativeContainerIsAtomicWriteOnlyAttributeProxy12CleanupProxyEv
_af:__ZN5physx2Sc7BodySim37checkSleepReadinessBesidesWakeCounterEv
e7m:_HandshakeMessage_EncodeMessage_m863B615CBF2D5B047DAE5E6DC7952CDFE4923628
Osj:_Comparer_1_System_Collections_IComparer_Compare_m03D8CEA97D2AACF078520518F14BCED954670592_gshared
TNb:__ZN14SafeBinaryRead21TransferSTLStyleArrayI13dynamic_arrayI16SplashScreenLogoLj0EEEEvRT_17TransferMetaFlags
Hdj:_InternalEnumerator_1_System_Collections_IEnumerator_Reset_m8C7E29726F0B418B99BEA099B3FF2A2A81DFB5FE_AdjustorThunk
XNa:__ZN9Scripting11UnityEngine12Experimental10PlayerLoop13PreLateUpdate23AIUpdatePostScriptProxy12CleanupProxyEv
$Sa:__ZN9Scripting11UnityEngine14BoundsIntProxy12CleanupProxyEv
HKa:__ZN9Scripting11UnityEngine15RectOffsetProxy12CleanupProxyEv
Wis:_X509ExtensionCollection_get_Item_mF9CB19EA43F26742A0414EA82D9B7E8F3D19B867
Hsq:_Dictionary_2_System_Collections_Generic_ICollectionU3CSystem_Collections_Generic_KeyValuePairU3CTKeyU2CTValueU3EU3E_Remove_m6737E2F2525C2FBBAF8EEA3A7CCD1429B3440E61_gshared
tfh:__ZN9Scripting11UnityEngine12Experimental2XR18TrackingStateProxy12CleanupProxyEv
rsq:_Dictionary_2_U3CCopyToU3Em__0_mB7BB0EBD61DE2872506D13B28B6D8EAB28D7DD82_gshared
JEb:__ZL21SetAnisoLimitEnumImplN7Texture20AnisotropicFilteringEb
$7b:__Z18Transfer_BlittableI19StreamedBinaryWriteLb1EtEvRK29SerializationCommandArgumentsR31RuntimeSerializationCommandInfo
Cke:__Z19UpdateWholeSheetTplILN8UVModule8TimeModeE0EL27ParticleSystemCurveEvalMode0EEvfRK11MinMaxCurveS5_RKN4math7_float2ERK23ParticleSystemParticlesPf
Z6c:__ZZL23RegisterLightPropertiesR23GenericPropertyBindingTILj16EEEN20Wrapper_LightColorr013GetFloatValueEPv
WJf:__ZN5physx13PxsCCDContextD2Ev
HBs:_SpringJoint_set_maxDistance_mE5D08B1CD7CBA9293113BECFEA7A617C4C8C48CD
hUq:_PlatformerCharacter2D_Awake_m03BAFF89DACB3A3EF0BA632360527EFF2D295675
N4m:_Array_InternalArray__RemoveAt_m25AC9689DEF89C8F62E08A58DBB58C9EB2C7BD5B
Olo:_Single_IsInfinity_mE162A9FB1BC90A760555DF9F1B3C1948AC269F91
Z4k:__ZN62OpCodes_t68E6B52B0B80EC63090337A0C70E8CD9CC57F560_StaticFields13set_Ldarg_2_4E48OpCode_tFBF4FC2990E657EA00DA0BB36BE0CC73515E6511
xGd:__Z29Input_CUSTOM_GetMouseButtonUpi
kNe:__ZN5physx2Gu12selectNormalEhff
g$g:__ZN11UnityEngine9Analytics18ConnectSessionInfo12ToJsonStringERN4core12basic_stringIcNS2_20StringStorageDefaultIcEEEE
Y3s:__ZN6il2cpp6icalls8mscorlib6System8MonoType16InternalGetEventEP20Il2CppReflectionTypeP12Il2CppStringi
Ypk:_CrossPlatformInputManager_GetButton_m9386E1BF0FA9E6A38812CC6E9CB4823B373CA568
lJg:_UNITY_tt_face_load_maxp
dPd:__Z39Register_UnityEngine_Event_Internal_Usev
xE:__ZN7mecanim5human12FullBodyMaskEv
gKt:__ZN6il2cpp6icalls8mscorlib6System9Threading10WaitHandle16WaitAny_internalEP11Il2CppArrayib
iFa:__ZN9Scripting11UnityEngine12Experimental10PlayerLoop11EarlyUpdateL65__ManagedRegistrationHelperFunction_PollHtcsPlayerConnectionProxyEPv
LBc:__ZN13BatchRenderer15ApplyShaderPassER17ShaderPassContextPK18SharedMaterialDataP6ShaderPN9ShaderLab4PassEi13BatchingFlagsbbPKNS7_10GrabPassesEPK22DeviceRenderStateBlock
hwd:__Z36ComputeBuffer_CUSTOM_InternalSetDataP12Il2CppObjectP11Il2CppArrayiiii
qLb:__ZN19ShaderPropertySheet11ComputeHashEv
DFf:__ZN5physx2Sc5Scene21processLostTouchPairsEv
fqe:__ZN12b2EPCollider24ComputePolygonSeparationEv
IOg:__Z18RegisterUnityClassIN20TextRenderingPrivate7GUITextEEvPKc
nhj:__Z68InternalEnumerator_1__ctor_m58DA954C948BEBD0115D198B23A2BA564BBA2264P62InternalEnumerator_1_t7223F7737B68EE633A1ACE348FA263525E0D13E0P11Il2CppArrayPK10MethodInfo
WVk:_U3CMouseDragOutsideRectU3Ec__Iterator1_Dispose_mA14FEFFFE2EAC94C38A35D6CA0794AF68D1C2F2F
T0i:_ArrayReadOnlyList_1_ReadOnlyError_mCA859E1D56E3463D1FB777BCBDAA6B594CF14B4D_gshared
k3:__ZN9Scripting11UnityEngine5Audio24AudioPlayableOutputProxy9InitProxyEv
uHo:_SimpleCollator_GetSortKey_m4AD5FEA814E8ABF09E4007A42978E3FCD7243F97
Oj:_llvm_fabs_f32
Jrk:_StandaloneInput_SetAxisZero_mC253B988B8514702E798B92A97EF866DF465C380
mzg:__ZN9Scripting11UnityEngine8TextCore10GlyphProxy12CleanupProxyEv
WJp:_Quaternion_Equals_m099618C36B86DC63B2E7C89673C8566B18E5996E_AdjustorThunk
qQ:__ZN7mecanim9animation18ClipMuscleConstant8TransferI14SafeBinaryReadEEvRT_
FKa:__ZN9Scripting11UnityEngine14TransformProxy12CleanupProxyEv
mli:_ReturnMessage_get_LogicalCallContext_mFADE421CE9C21AA097AEFD8E4DA255315DDA7C22
k4p:_IntervalCollection_GetEnumerator_m1206CA7787AABFB13347878B61939B6A4953EA86
Gno:_String_Remove_m99567842E145237D4CFBEF7C8309EC76B505CC17
TVo:_SByte_System_IConvertible_ToUInt32_mADF3B516A406EBF24A65B2F9A898498754AF9DD0_AdjustorThunk
uIs:_ParticleSystem_get_main_m360B0AA57C71DE0358B6B07133C68B5FD88C742F
vJl:_ListDictionary_GetEnumerator_mF382B495EF2B1E9738149C054E46A7D1B7E39047
nui:_BinaryFormatter_ReadBinaryHeader_m84490DD813B0295D91C3975C898A3E88FA92F456
Yw:__ZN13dynamic_arrayIN14NavMeshCarving17ObstacleCarveInfoELj0EE4growEv
nup:_Directory_GetFiles_m9A34D2E2801DB893F9454FCA52BA6BC7269C8F87
vsa:__ZN14SafeBinaryReadD2Ev
w7q:_Queue_1_GetEnumerator_mEBEDCAA095CFB4E673604E41467C09F3881446BA_gshared
Yzg:__ZN14SafeBinaryRead21TransferSTLStyleArrayI13dynamic_arrayIN20TextRenderingPrivate8FontImpl13CharacterInfoELj0EEEEvRT_17TransferMetaFlags
PFa:__ZN9Scripting11UnityEngine12Experimental10PlayerLoop11FixedUpdateL71__ManagedRegistrationHelperFunction_ScriptRunDelayedFixedFrameRateProxyEPv
S8l:__Z128RuntimeInvoker_TrueRuntimeObject_SByte_t50B643C59EE66E3364AED19D82E06B27BDE75268_SByte_t50B643C59EE66E3364AED19D82E06B27BDE75268PFvvEPK10MethodInfoPvPS4_
fXo:_CryptographicUnexpectedOperationException__ctor_m1DFD509FFA69012AAC25FB59F4966C000CD970D2
Z6k:__ZN62OpCodes_t68E6B52B0B80EC63090337A0C70E8CD9CC57F560_StaticFields13set_Ldobj_112E48OpCode_tFBF4FC2990E657EA00DA0BB36BE0CC73515E6511
wTp:_Texture_get_wrapMode_mC21054C7BC6E958937B7459DAF1D17654284B07A
uYd:__ZN5Unity9rapidjson8internal6Grisu2EdPcPiS3_
oRa:__ZN9Scripting11UnityEngine12Experimental10PlayerLoop11EarlyUpdate29DispatchEventQueueEventsProxy9InitProxyEv
HRh:__ZL152RenderTexture_tBC47D853E3DA6511CD6C49DBF78D47B890FCD2F6_CustomAttributesCacheGenerator_RenderTexture_set_depth_mD4BCB0A9251B7FCF570459A705E03FFFEA4DB3B0P21CustomAttributesCache
eNs:__ZN6il2cpp2vmL17SetupEventsLockedEP11Il2CppClassRKNS_2os12FastAutoLockE
zIm:_MonoType_get_Module_mF7FB23CEB58E84A996771EABA6DBEF0183F39413
me:_SDL_PauseAudio
MDl:_Mesh_Internal_Create_mF1F8E9F726EAC9A087D49C81E2F1609E8266649E
wAo:_WaitHandle_WaitOne_internal_m7541446B3AE9B4FA16EBF8800E1A4CB5D4949B58
KMt:_GC_clear_mark_bit
r4s:__ZN6il2cpp2os4File11GetStdErrorEv
BBd:__Z48Register_UnityEngine_Camera_set_orthographicSizev
_Vb:__ZN2UI13RectTransform8TransferI18StreamedBinaryReadEEvRT_
xqa:__ZN9ShaderLab19CommonPropertyNames16StaticInitializeEPv
p$m:_X509CertificateCollection_GetEnumerator_mB7F5D16636BFF4C3B875E15F09665ABF8A416B3F
r0f:__ZN5physx2Cm12DelegateTaskINS_2Sc5SceneEXadL_ZNS3_13postIslandGenEPNS_10PxBaseTaskEEEE11runInternalEv
lJb:__ZN21BillboardBatchManager15BatchBillboardsERK15RenderNodeQueueRK18RenderMultipleData16VertexInputMasks
r8s:__ZN14dense_hash_mapI10KeyWrapperINSt3__24pairIPK10MethodInfoP11Il2CppClassEEEj17ReflectionMapHashIS8_ENS9_14EqualsComparerINS1_8equal_toIS8_EEEENS1_9allocatorINS2_IKS9_jEEEEE4findERSH_
jQd:__Z45GUIUtility_CUSTOM_Internal_GetKeyboardControlv
w3d:__Z14UpdateSpeedTplIL27ParticleSystemCurveEvalMode1EEvRK11MinMaxCurveR23ParticleSystemParticlesjj
mzr:_Array_InternalArray__get_Item_TisKeyValuePair_2_tBD8091BD89F483CBD8755E2773EDFBA8C8637ECD_m02B696302EC763EEF1EC45F5A8DDFC691D937E80_gshared
Yvt:__ZN6il2cpp2vmL14FindNestedTypeEP11Il2CppClassPKc
MMl:_WebHeaderCollection__ctor_m08BCE3C70DB92DE40498895E29417E8B3AC04EDB
Ljn:_X501__cctor_m1492FD77159BE5EAF1A78EE25E4B2D1F76D69340
G8:__ZN11AudioSource23VirtualRedirectTransferER24GenerateTypeTreeTransfer
fld:__ZN7Texture11SetWrapModeE15TextureWrapMode
zyq:_Array_InternalArray__Insert_TisUInt16_t1FF1E02102FB09D5656DF30E5299DD359E497E9B_mA35D2F3F069D0B57934F9FE9A346472F764F1FE8_gshared
fGb:__ZN14Texture2DArray23VirtualRedirectTransferER14SafeBinaryRead
OEc:__ZNK6Camera21CalculateCanDoShadowsEv
pEf:__ZNK5physx2Sc5Scene17getBroadPhaseCapsERNS_16PxBroadPhaseCapsE
nEp:_Int32_Parse_m9B7F80C8533F29E03AFBFAE38E826F94ECBAF289
pjf:__ZN5physx9NpFactory14onActorReleaseEPNS_7PxActorE
BZg:__ZN11UnityEngine9Analytics14DataDispatcher23PerformRetryWebDispatchEv
ZFa:__ZN9Scripting11UnityEngine12Experimental10PlayerLoop14PostLateUpdateL64__ManagedRegistrationHelperFunction_ClearImmediateRenderersProxyEPv
tlm:__Z176RuntimeInvoker_TrueInt32_tC16F64335CE8B56D99229DE94BB3A876ED55FE87_Int32_tC16F64335CE8B56D99229DE94BB3A876ED55FE87_Int32_tC16F64335CE8B56D99229DE94BB3A876ED55FE87_RuntimeObjectPFvvEPK10MethodInfoPvPS4_
JWj:_Byte_System_IConvertible_ToUInt16_m2C609D1B820DC2F054E3A33B5F5D5E85FC9B6C2A_AdjustorThunk
GEt:__ZN6il2cpp2os6Thread12SetStackSizeEj
PMp:_RectTransform_set_anchorMax_m55EEF00D9E42FE542B5346D7CEDAF9248736F7D3
xFq:_Tonemapping_UpdateCurve_m416712497023EFF5FC51BC65FD32F11881C27872
HIt:__ZN6il2cpp2vm8Profiler10AllocationEP12Il2CppObjectP11Il2CppClass
eOh:__ZL141GameObject_tBD1244AD56B4E59AAD76E5E7C9282EC5CE434F0F_CustomAttributesCacheGenerator_GameObject_Find_m1470FB04EB6DB15CCC0D9745B70EE987B318E9BDP21CustomAttributesCache
vKd:__ZN13dynamic_arrayIN14CrashReporting10LogMessageELj0EE21resize_buffer_nocheckEj12ResizePolicy
I_k:_ILGenerator_target_len_m3A567F32710B2EBA1CD64671D8ADBB1172920D6C
h2t:dynCall_viffii
Y4m:_SimpleEnumerator__ctor_m14F134C043641EE1D13B3DB54DCA0B4858770FF0
bGl:__Z124Enumerable_Any_TisMessageTypeSubscribers_t2B83CF84645921BDEF2A06A3CCCC0F9ECDC107FE_mDF138A9E8575D9886D338FB73C0529C13FF3E1AEP12Il2CppObjectP48Func_2_t428F5375D8F477CB1709D4643857D6E6E3982BBBPK10MethodInfo
sVd:__ZN8JSONRead8TransferINSt3__26vectorI8GUIStyle13stl_allocatorIS3_L18MemLabelIdentifier1ELi16EEEEEEvRT_PKc17TransferMetaFlagsb
dWp:_Transform_InverseTransformPoint_Injected_m320ED08EABA9713FDF7BDAD425630D567D39AB1D
K6k:__ZN62OpCodes_t68E6B52B0B80EC63090337A0C70E8CD9CC57F560_StaticFields10set_Shl_97E48OpCode_tFBF4FC2990E657EA00DA0BB36BE0CC73515E6511
F$g:__ZN11UnityEngine9Analytics13ConnectConfig13SessionConfig8TransferI8JSONReadEEvRT_
b3c:__Z18RegisterUnityClassI7TextureEvPKc
Aok:_VirtualInput_RegisterVirtualAxis_m2D8E08EA47856D147519D7864E55BFC2B530AE32
Xkj:__Z68InternalEnumerator_1__ctor_m1C177772E2A0A59F88534482D538B34E96A9B587P62InternalEnumerator_1_tEE60FEAF257605F355CF57FED042474FA4E0565EP11Il2CppArrayPK10MethodInfo
sxb:__ZN6prcoreL27StretchGenericFloatBilinearI15TexFormatRFloatEEvPKNS_9InnerInfoE
K$t:___uremdi3
hAf:__ZN5physx2Sc16ShapeInteraction10onActivateEPv
VSf:__ZNK5physx2Dy17SolverCoreGeneral26solveVParallelAndWriteBackERNS0_18SolverIslandParamsE
mum:_Array_Exists_TisRuntimeObject_m5350FD0CD3FFD0698D0863C9481AA4E636ABF835_gshared
Est:__ZN14dense_hash_mapI10KeyWrapperIP14Il2CppIUnknownEjN6il2cpp5utils11PointerHashIS1_EENS3_14EqualsComparerINSt3__28equal_toIS2_EEEENS9_9allocatorINS9_4pairIKS3_jEEEEE13set_empty_keyERSF_
s5d:__Z22UpdateOrbitalOffsetTplIL27ParticleSystemCurveEvalMode3ELS0_0EEvRK11MinMaxCurveS3_S3_S3_S3_S3_S3_R23ParticleSystemParticlesjjRKN4math8float3x3ERKNS6_7affineXERKNS6_7_float4E
F7f:__ZN5physx2Gu17RTreeTriangleMesh15exportExtraDataERNS_22PxSerializationContextE
WCt:__ZN24dense_hashtable_iteratorINSt3__24pairIK10KeyWrapperIPcES3_EES4_N6il2cpp5utils15PassThroughHashIS3_EEN14dense_hash_mapIS4_S3_SA_NS4_14EqualsComparerINS0_8equal_toIS3_EEEENS0_9allocatorIS6_EEE9SelectKeyESF_SH_EppEv
sVq:_RijndaelTransform_Decrypt192_m692CD9767898B03428F605DFBBBEFA9C0B97174A
$3j:_Hashtable_CopyToArray_m994F2B5428BB9FDAF86A5B88420D4D8A0CF37C4A
zBb:__Z14PadImageBorderR14ImageReferenceii
Ryj:__Z103Enumerator_System_Collections_IDictionaryEnumerator_get_Entry_m91D0070D4A7701C087D471276BB07DEB84D292B0P52Enumerator_t5DE3D636A6596D8B2CAB473CE8F848FC269A03A3PK10MethodInfo
ZYs:__ZN6il2cpp2vm13MetadataCache28GetFieldDefaultValueForFieldEPK9FieldInfo
bEr:__ZNK58ExperimentConfig_tF8A252D18E9539CE5F548DEFCA7E19EFCD2A9E4D23get_getReadyDuration_52Ev
q6o:_EqualityComparer_1__cctor_mBA63721EDF9FD1C5A8AF12F6C1D9FC6F7B610125_gshared
uI:__ZN27AnimationLayerMixerPlayableD2Ev
ddg:__ZN5physx2Gu8BV32Tree17calculateLeafNodeERNS0_8BV32DataE
$0s:__ZN6il2cpp2vm8basepathEPKc
JQt:__ZN6il2cpp6icalls8mscorlib6System4Text8Encoding16InternalCodePageEPi
lLd:__ZN8JSONRead8TransferIN4core12basic_stringIcNS1_20StringStorageDefaultIcEEEEEEvRT_PKc17TransferMetaFlagsb
XFe:__ZN9Rigidbody14SetIsKinematicEb
UEh:__ZL81GUILayer_tB8A4E9CCC2977F6691AEBB96DE1C13681634063D_CustomAttributesCacheGeneratorP21CustomAttributesCache
YWp:_UnitySynchronizationContext_Exec_m07342201E337E047B73C8B3259710820EFF75A9C
r4:__ZN12AudioManager39HandlePendingAudioConfigurationCallbackEv
ORc:__ZN12_GLOBAL__N_16qAtan2Eff
Bd:_JS_Sound_SetLoopPoints
Ytf:__ZNK5physx2Sc9ClothCore27getNbVirtualParticleWeightsEv
Bmd:__Z8GetIWindv
Afd:__ZN12BaseRenderer20SetLightmapSTNoDirtyERK8Vector4f12LightmapType
SRt:__ZN6il2cpp2vm26MetadataAllocGenericMethodEv
Vtc:__ZN19ConstantBuffersGLES12RecordRenderEv
ZJo:_Context_t17CA1E94637270710B51CC402AB0DD913FE795DD_marshal_pinvoke
Jqj:_InternalEnumerator_1_System_Collections_IEnumerator_Reset_mE2D4025E0A9D79641C23A16E3E7726BF9C8A1B00_AdjustorThunk
lXa:__ZN11TimeManager23VirtualRedirectTransferER18StreamedBinaryRead
MSd:__ZN9JSONWrite8TransferI10RectOffsetEEvRT_PKc17TransferMetaFlags
fBb:__ZN4crnd12symbol_codec11decode_bitsEj
twd:__Z46QualitySettings_Get_Custom_PropPixelLightCountv
gqe:__ZN15b2CircleContact8EvaluateEP10b2ManifoldRK11b2TransformS4_
xLf:__ZN5physx6shdfnd5ArrayIPNS_2Sq17AABBTreeBuildNodeENS0_19ReflectionAllocatorIS4_EEE15growAndPushBackERKS4_
SDq:_ScreenSpaceAmbientOcclusion__ctor_m64D0D08733B3C2333D9BF25C476B9CA918CACF26
CBo:__Z37il2cpp_codegen_check_mul_overflow_i64xxxx
zdj:__Z71InternalEnumerator_1_MoveNext_mCDF9E931520B367638CF357263064F196A67370BP62InternalEnumerator_1_tDD1CDD2B9BB470368DC3DFDFB55ECE967B4B6799PK10MethodInfo
Flb:__ZN10Matrix3x4f8TransferI24GenerateTypeTreeTransferEEvRT_
p$r:_GUIStyle_Draw_mAC1BB37A9DA0C304A5A70A9CFDB097C8D9C90FFF
F6l:__Z225RuntimeInvoker_FalseInt32_tC16F64335CE8B56D99229DE94BB3A876ED55FE87_RuntimeObject_Int32_tC16F64335CE8B56D99229DE94BB3A876ED55FE87_Int32_tC16F64335CE8B56D99229DE94BB3A876ED55FE87_Int32_tC16F64335CE8B56D99229DE94BB3A876ED55FE87PFvvEPK10MethodInfoPvPS4_
BLf:__ZNK5physx2Sq20ExtendedBucketPruner9visualizeERNS_2Cm12RenderOutputEj
rSd:__ZL17Transfer_GUIStyleI9JSONWriteLb0EEvRK29SerializationCommandArgumentsR31RuntimeSerializationCommandInfo
Q2m:_AttrListImpl_get_Values_mDEA7A2DCC37764A054B907A0275D111E97C85C15
DJt:__ZN6il2cpp2vm6String21InitializeEmptyStringEP11Il2CppClass
mzd:__Z51Register_UnityEngine_AnimationCurve_Internal_Createv
Ycp:_KeyValuePair_2_ToString_m53A2C9796A4B3C9DBD7AB0D48CBD03FE897CF08A_AdjustorThunk
hcp:_HashSet_1_Clear_m762D1D0CF8F3F39F364FF77607F8017BB9EE9114_gshared
fI:__ZN7mecanim19ValueArrayBlendNodeILb1EEEvRKNS_10ValueArrayERKNS_14ValueArrayMaskERS1_RS4_RNS_16ValueArrayWeightEf
ATb:__Z16MarkDependenciesR27GarbageCollectorThreadStatej
RAt:__ZN6il2cpp2osL21IsSpecialZeroSizeFileEP4stat
VAn:__ZNK48Slider_t0654A41304B5CE7074CA86F4E66CB681D0D52C0921get_m_WholeNumbers_23Ev
_pr:_ReadOnlyCollection_1_System_Collections_IEnumerable_GetEnumerator_m330C33026C7C04696CE9983764C47C06608F2FE3_gshared
f3l:__Z223RuntimeInvoker_TrueVoid_tDB81A15FA2AB53E2401A76B745D215397B29F783_RuntimeObject_Int32_tC16F64335CE8B56D99229DE94BB3A876ED55FE87_SByte_t50B643C59EE66E3364AED19D82E06B27BDE75268_SByte_t50B643C59EE66E3364AED19D82E06B27BDE75268PFvvEPK10MethodInfoPvPS4_
Gsd:__ZN9Scripting26DestroyObjectFromScriptingE4PPtrI6ObjectEfP21ScriptingExceptionPtr
ALi:_RaycastResult_get_isValid_mEF9C1AA69A007B373CF7112EF0AB46E6846DF59E_AdjustorThunk
tDa:__ZNK9Transform11GetPositionEv
dDf:__ZN5physx7NpScene23setSceneQueryUpdateModeENS_22PxSceneQueryUpdateMode4EnumE
G8b:__Z35Transfer_Blittable_FixedBufferFieldI19StreamedBinaryWritedEvRK29SerializationCommandArgumentsR31RuntimeSerializationCommandInfo
ffb:__ZN23SharedMeshRenderingData18UnloadVertexStreamEi
FDp:_Int16_System_IConvertible_ToDouble_mBDB9145395D91EB20018F35FCA4D20BA5BB5C724
jJe:__ZN5physx3Cct13HandleManager3AddEPv
bTg:__ZN31CanvasBatchIntermediateRenderer11AddSubBatchERK16DrawBuffersRangePK19ShaderPropertySheet
GSm:_ConstructorBuilder_GetParameters_m91F7B0B5EDFC3B98A8FF197055B2CF84C7D52CCB
F7c:__ZN19RenderEventsContextC2Ei
qXo:_CspParameters__ctor_m2CF7C694544272149E00F6E2B1059BD9EA928242
W6n:_CultureInfo_construct_number_format_m4CE607E7DBF3802F9271674280AA62956525C189
nch:__GLOBAL__sub_I_Runtime_VR_PluginInterface_0_cpp
Rzn:_Shadow_set_effectColor_m73C48D317DC07054A1B639D5A8AC5FD412A7D3AD
Fme:__ZNK14ParticleSystem16GetParticleCountEv
V8a:__ZN10TagManager23VirtualRedirectTransferER14SafeBinaryRead
Eit:__ZN6il2cpp2vm14TypeNameParser16InitializeParserEv
b5f:__ZNK5physx2Sc15ClothFabricCore9getNbSetsEv
skt:__ZN6il2cpp2vm6Thread16RequestInterruptEP12Il2CppThread
jOc:__Z15InitLightMeshesv
Wah:__Z60Register_UnityEngine_Networking_DownloadHandlerBuffer_Createv
z4l:__Z236RuntimeInvoker_TrueRuntimeObject_Int32_tC16F64335CE8B56D99229DE94BB3A876ED55FE87_RuntimeObject_VoidU2A_t8A995245462F8BDC7319CC68F09ACF295FDD2879_RuntimeObject_RuntimeObject_RuntimeObject_VoidU2A_t8A995245462F8BDC7319CC68F09ACF295FDD2879PFvvEPK10MethodInfoPvPS4_
yDf:__ZNK5physx7NpScene26getNbContactDataBlocksUsedEv
Nl:FUNCTION_TABLE_iifiii
QWn:_DateTimeOffset_get_UtcDateTime_m90434167379F4BEEA4FDC7D9EABD90122FFD9B1D_AdjustorThunk
Ilb:__ZN15SerializeTraitsIN11LightProbes14LightProbeDataEE8TransferI18StreamedBinaryReadEEvRS1_RT_
eXe:__ZN5physx23PxcPCMContactSphereMeshERKNS_2Gu13GeometryUnionES3_RKNS_11PxTransformES6_RKNS0_17NarrowPhaseParamsERNS0_5CacheERNS0_13ContactBufferEPNS_2Cm12RenderOutputE
_1j:__ZN6il2cpp2vm3CCW11GetOrCreateEP12Il2CppObjectRK10Il2CppGuid
x6f:__ZN5physx2Gu11HeightField15exportExtraDataERNS_22PxSerializationContextE
FSh:__ZL237ScriptableRuntimeReflectionSystemSettings_t93C07D988FA304DFB8B0F4FC99243FCD19945D84_CustomAttributesCacheGenerator_ScriptableRuntimeReflectionSystemSettings_ScriptingDirtyReflectionSystemInstance_m02B2FCD9BBCFA4ECC1D91A0B5B8B83856AC55718P21CustomAttributesCache
ZEg:_cf2_arrstack_init
Y2g:__ZThn4_N17DispatcherService31OnDataDispatcherPostRequestDoneERKN4core12basic_stringIcNS0_20StringStorageDefaultIcEEEES6_jj
ver:_Collection_1_Remove_mD93FC441D06CEFB6B5D1E97597F29EC0480DBE95_gshared
T3d:__ZL29ApplyOrbitalAndRadialVelocityR23ParticleSystemParticlesjRKN4math8float3x3ERKNS1_7affineXERKNS1_7_float4ESA_RKNS1_8floatNx3ESD_SA_
Wha:__Z15CleanLogHandler7LogTypePKcz
sbk:_Convert_ToInt32_mA9EE8EDF844B0E5783D28D11011E10C5FCE5E5A0
Feg:__ZN5physx6pvdsdk17NullFileTransportD2Ev
bZf:__ZN5physx9PxTaskMgr10resolveRowEjb
bec:__ZN6Camera17RemoveImageFilterERK11ImageFilter
t5a:__ZNSt3__218__insertion_sort_3IR25ValueParameterArraySorterPN20GpuProgramParameters14ValueParameterEEEvT0_S6_T_
kGd:__Z40Register_UnityEngine_Skybox_get_materialv
zse:__ZN10ClipperLib7Clipper27ProcessEdgesAtTopOfScanbeamEx
AMh:__ZL152AnimationCurve_tD2F265379583AAF1BF8D84F1BB8DB12980FA504C_CustomAttributesCacheGenerator_AnimationCurve_GetKeys_mC61A3A3E0D17E5849768B3AB3698F2139CF70EBEP21CustomAttributesCache
Wce:__ZN11ShapeModule17MainThreadCleanupEv
GUa:__ZNK22LocalFileSystemHandler13ToLogicalPathERKN4core12basic_stringIcNS0_20StringStorageDefaultIcEEEE
Ibf:__ZN5physx6shdfnd5ArrayINS_2IG26ConstraintOrContactManagerENS0_19ReflectionAllocatorIS3_EEE8recreateEj
mq:__ZN12NavMeshAgent13SetBaseOffsetEf
Fcg:__ZL16gReorderCallbackPKN5physx2Gu12AABBTreeNodeEjPv_517
tu:__ZN12NavMeshQuery20UpdateSlicedFindPathEiPi
wfp:_Enumerator_System_Collections_IEnumerator_Reset_mEEEB173A086A7E6C4F54AF2B2B02D226650978BD_AdjustorThunk
zR:__ZN17AnimationCurveTplI11QuaternionfE8TransferI14SafeBinaryReadEEvRT_
Lxp:_FileStreamAsyncResult_CBWrapper_m5E91DB22DA7FEEC35BDC17CA6B38AC81F9975C86
sUg:__ZN2UI26InitializeDeviceForOverlayEi
A4f:__ZNK5physx13NpClothFabric13getRestvaluesEPfj
Gna:__Z27LogRepeatingStringWithFlagsRKN4core12basic_stringIcNS_20StringStorageDefaultIcEEEE15LogMessageFlagsi
VCe:__ZZN10Collider2D15InitializeClassEvEN27FunctorImpl_77kLayerChanged4CallEPviR11MessageData
dF:__ZN17AnimationPlayable28ComputeNeedsBindingRebuildedEv
E1f:__ZN5physx2Sc7BodySim12updateForcesEfPPNS_12PxsRigidBodyEPjRjPNS_2Cm13SpatialVectorEb
YD:__ZN17AnimationPlayable23RequestAllocateBindingsEv
sfh:__ZN9Scripting11UnityEngine12Experimental2XR18TrackingStateProxy9InitProxyEv
iWg:__Z53RectTransformUtility_CUSTOM_PixelAdjustPoint_InjectedRK8Vector2fP12Il2CppObjectS3_RS_
WWj:_Byte_CompareTo_m7E4A28125AC0374248C7C82B6AECF3AA90048396
t1h:__ZL169Physics2D_tB21970F986016656D66D2922594F336E1EE7D5C7_CustomAttributesCacheGenerator_Physics2D_tB21970F986016656D66D2922594F336E1EE7D5C7____queriesHitTriggers_PropertyInfoP21CustomAttributesCache
f4h:__ZL78g_UnityEngine_UnityWebRequestWWWModule_Assembly_CustomAttributesCacheGeneratorP21CustomAttributesCache
Ilp:_Enumerator_VerifyState_m3D78804C5C60466BB41CA68586BD1BFE9616ECEA_AdjustorThunk
MXc:__ZN20DiagnosticSwitchBase27ReadSwitchesFromCommandLineEiPPKc
Gxe:__ZN19ProcessContactsDataD2Ev
Hug:__ZN14TerrainManager27UnloadTerrainsFromGfxDeviceEv
GWe:__ZNK5physx2Gu20HeightFieldTraceUtil12traceSegmentI21BoxTraceSegmentReportLb0ELb1EEEvRKNS_6PxVec3ES6_fPT_RKNS_9PxBounds3EbPS5_
O7n:_DateTimeFormatInfo_PopulateCombinedList_mA2B1939CF2172C741A00CB29B3B350BC6894E1C9
UJf:__ZN5physx2IG19SimpleIslandManagerD2Ev
voc:__ZN7ApiGLES4LoadE16GfxDeviceLevelGL
pur:__ZN23GenericVirtFuncInvoker2Ii49Color32_t23ABC4AE0E0BDFD2E22EE1FA0DA3904FFE5F6E23S0_E6InvokeEPK10MethodInfoP12Il2CppObjectS0_S0_
j7c:__ZZL23RegisterLightPropertiesR23GenericPropertyBindingTILj16EEEN22Wrapper_LightIntensity13GetFloatValueEPv
Plf:__ZN5physx9NpPhysics15createAggregateEjb
$Ab:__ZN4crnd12crn_unpacker22decode_color_endpointsEv
bq:__ZL19ProjectToPolyDetailPK11NavMeshTilePK11NavMeshPolyRK8Vector3fPf
zyp:_MemoryStream_Seek_m4BEB6FF738C7725EDE49F367AEBD8E0D8E7DE7A2
D1e:__ZN9Rigidbody5ResetEv
Lrg:__ZN13SplatDatabase8TransferI19StreamedBinaryWriteEEvRT_
MCb:__ZN17SharedTextureDataC2E10MemLabelIdii13TextureFormatjiibb
Dun:__ZN52ScrollRect_tAD21D8FB1D33789C39BF4E4CD5CD012D9BD7DD5123set_m_PrevViewBounds_29E48Bounds_tA2716F5212749C61B0E7B7B77E0CD3D79B742890
abn:_SslCipherSuite_ComputeServerRecordMAC_mF1E825A4C83CE8A8B3375D68AB8CC46D8170E094
BEe:__ZN13RuntimeStaticI21PhysicsManagerStaticsLb0EE13StaticDestroyEPv
Heq:_Enumerator_Dispose_m1E08DE98B1354EA910E444BEDB58F552E4084C2D_AdjustorThunk
xSa:__ZN9Scripting11UnityEngine17CullingGroupProxy12CleanupProxyEv
qIf:__ZN5physx7NpScene24updateScbStateAndSetupSqERKNS_12PxRigidActorERNS_3Scb5ActorERNS_14NpShapeManagerEbPKNS_9PxBounds3Eb
Hme:__ZN22ParticleSystemTempData11SetMatricesERK10Matrix4x4fRK11QuaternionfS2_S5_
T9p:_Assertion_GetWidth_m543F1BE0C0888D097017CE3EC29556799C9902E4
Ann:_MaskableGraphic_SetClipRect_m624289BDDF45D4224950ED069A3FC4FCFFAF2B15
Kza:__Z18GetITerrainManagerv
gMk:_GridLayoutGroup_SetLayoutVertical_m259437B4AD0423867491AA6E0E19151D07D02B61
XYf:__ZN5physx9PxTaskMgr12addReferenceEj
$0c:__ZN19StreamedBinaryWrite21TransferSTLStyleArrayINSt3__26vectorIN9ShaderLab20SerializedSubProgram12UAVParameterENS1_9allocatorIS5_EEEEEEvRT_17TransferMetaFlags
nxa:__ZN20GlobalCachingManager7DisposeEv
TAc:__Z12SetupLODFadeR9GfxDeviceR17ShaderPassContextf
TJb:__ZNK14PlayableOutput7GetTypeEv
yTd:__ZN9JSONWrite8TransferI13dynamic_arrayI4AABBLj0EEEEvRT_PKc17TransferMetaFlags
Bke:__Z18UpdateSingleRowTplILN8UVModule8TimeModeE0EL27ParticleSystemCurveEvalMode4EEvfRK11MinMaxCurveS5_RKN4math7_float2ERK23ParticleSystemParticlesPfbiii
kw:__ZNSt3__27__sort4IR17DetailNodeZSorterP16DetailMeshBVNodeEEjT0_S5_S5_S5_T_
Byt:__ZN6il2cpp2gc8GCHandle13GetHandleTypeEj
Rhr:_Collection_1_IsValidItem_m34B108779DD6C266FB7E02A449B86EDDC45A2434_gshared
YNc:__ZL24CollectForwardObjectsJobP27CollectForwardObjectsHeader
ken:_SslStreamBase_Flush_mE5F3862DD71F4556B8B7B91C2CD12919AD1954F0
$mp:__Z64Enumerator_get_Current_mB491E6CAB0215B59815CA3420447EE81D9029B94P52Enumerator_tE65C11556BBD9F798E087A6E883C54806FBF0EABPK10MethodInfo
DVd:__ZN8JSONRead21TransferSTLStyleArrayI13dynamic_arrayIdLj0EEEEvRT_17TransferMetaFlags
Psr:_ReadOnlyCollection_1_System_Collections_Generic_ICollectionU3CTU3E_Clear_mD9A962FB36CE7E4DBF3E405D9673DF5FF4CDAD2B_gshared
Apq:_ValueCollection__ctor_m983D049062B7D198F13C48882950410B326EACEA_gshared
A0a:__ZN9GfxDevice23SyncAsyncResourceUploadE10AsyncFenceRK26AsyncUploadManagerSettings
FJi:_PointerEventData_get_scrollDelta_m7F3FD249A5E9A3F7441FECE3EE18BFECC565EB09
bqf:__ZN5physx2Sq8AABBTree9buildInitERNS0_19AABBTreeBuildParamsERNS0_10BuildStatsE
UMs:__ZN15dense_hashtableINSt3__24pairIK10KeyWrapperIPK22Il2CppGenericParameterEP11Il2CppClassEES6_N6il2cpp5utils11PointerHashIS4_EEN14dense_hash_mapIS6_S9_SE_NS6_14EqualsComparerINS0_8equal_toIS5_EEEENS0_9allocatorISA_EEE9SelectKeyESJ_SL_E3endEv
YVj:_Buffer_ByteLength_m235425FB9C8EDBE751DA1547863ED7B6EC455CA1
hWs:__ZN15dense_hashtableINSt3__24pairIK10KeyWrapperIN6il2cpp5utils13dynamic_arrayIPK10Il2CppTypeLj4EEEEPFvvEEESA_NS3_8metadata19Il2CppSignatureHashEN14dense_hash_mapISA_SD_SG_NSA_14EqualsComparerINSF_22Il2CppSignatureCompareEEENS0_9allocatorISE_EEE9SelectKeyESK_SM_EC2EjRKSG_RKSK_RKSO_
cVk:_InputField_get_preferredWidth_mF18A23A94855B4ACAF18473199AB50F0629F1DBD
HEe:__ZN16NovodexAllocator8allocateEjPKcS1_i
_Kc:__Z17PrepareShadowMapsRK11CullResultsRK11ActiveLightRK10MinMaxAABB
$zl:_Input_get_acceleration_m053AF82D2844276A2E896A87EB70F6F4ABBBCF7B
P5l:__Z211RuntimeInvoker_TrueVoid_tDB81A15FA2AB53E2401A76B745D215397B29F783_RuntimeObject_RuntimeObject_Int64_tF61270729FC90F8A705A5FA6FE222C9644374ADF_RuntimeObject_RuntimeObject_RuntimeObject_RuntimeObject_RuntimeObjectPFvvEPK10MethodInfoPvPS4_
sat:__ZN30dense_hashtable_const_iteratorINSt3__24pairIK10KeyWrapperINS1_IPK11Il2CppImageP11Il2CppClassEEEjEES9_17ReflectionMapHashIS8_EN14dense_hash_mapIS9_jSD_NS9_14EqualsComparerINS0_8equal_toIS8_EEEENS0_9allocatorISB_EEE9SelectKeyESI_SK_EppEv
vci:__ZL78Bloom_tB9FD2F828A08C51224BD697744E5C70146A6C4DC_CustomAttributesCacheGeneratorP21CustomAttributesCache
x5g:__ZN11UnityEngine9Analytics15ContinuousEvent26FactoryForScriptingObjectTIdE15CreateEventDataERKN4core12basic_stringIcNS4_20StringStorageDefaultIcEEEE
TNc:__ZN9ShaderLab10GrabPassesD2Ev
gtg:__ZN12TreeRenderer13RenderRecurseEP14TreeBinaryTreePK5PlaneR13dynamic_arrayIjLj0EERK8Vector3fff
rGb:__ZN14Texture2DArray13UploadTextureEv
pxg:__ZN9HeightmapC2EP11TerrainData
TJg:_tt_cmap14_done
wRb:__ZN18AwakeFromLoadQueue25RegisterObjectInstanceIDsEv
LKa:__ZN9Scripting11UnityEngine9RectProxy12CleanupProxyEv
bD:__ZN9Scripting11UnityEngine10Animations21LookAtConstraintProxy12CleanupProxyEv
g1t:dynCall_iiifiiii
BLr:__ZNK56GameController_t8BB0D3CE8992C95BED5FB508588730F0A74009A331get_FLAG_fullScreenModeError_75Ev
G$g:__ZN8JSONRead8TransferIN11UnityEngine9Analytics13ConnectConfig14GroupingConfigEEEvRT_PKc17TransferMetaFlagsb
wEj:_ConstructionLevelActivator_Activate_m1246275C22EE821B4D1CB9D1B5F7C59EF8E063B8
cH:__ZNK21AnimationPosePlayable7GetTypeEv
zI:__ZNK27AnimationLayerMixerPlayable11DerivesFromE17ScriptingClassPtr
qBg:__ZN20TextRenderingPrivate19NativeTextGenerator15InsertCharacterEiPj
hEf:__ZN5physx2Sc5Scene22removeBroadPhaseRegionEj
AJe:__ZN5physx2Cm12RenderBuffer5clearEv
lpt:__ZNSt3__26vectorIN6il2cpp2vm22EmbeddedResourceRecordENS_9allocatorIS3_EEE21__push_back_slow_pathIS3_EEvOT_
f9j:_Convert_ToChar_mDA6F83AFEEFB9E7F7B7A6EE8DCC293D55B0273D4
$uf:__ZNK5physx2Sc9ClothCore21getStiffnessFrequencyEv
gre:__ZN11b2RopeJoint24SolveVelocityConstraintsERK12b2SolverData
dFi:_ExecuteEvents_get_pointerUpHandler_m7EDDD1128DC04344CECEBCB9B6B7CD064F7FAED2
mZd:__ZN24OptimizedPolynomialCurve19BuildOptimizedCurveERK17AnimationCurveTplIfEf
YNf:__ZN5physx13PxsCCDContext14postCCDAdvanceEPNS_10PxBaseTaskE
Zxn:_Selectable_GetPointOnRectEdge_m8596C7C83FA78419A6FCAFDB64DFF9F7F99172A6
JRi:_CanvasUpdateRegistry_UnRegisterCanvasElementForRebuild_mA600C1B4AC0D08675F45C90CC77BE23EBECF9854
J7p:_Assertion_get_FalseExpression_mA24D6AB2CCA791171E780CAC22FB35A550E4355E
Ofa:__GLOBAL__sub_I_Runtime_Burst_0_cpp
yFc:__Z19GetReflectionSampleRK23ReflectionProbesContextRK22ActiveReflectionProbesRK27PerObjectLightCullingOutputRK10RenderNodejP16ReflectionSample
V5p:_PatternCompiler_EmitJump_m1828A222DB13001A59BA2C98E2DB3D49DC9B92F1
zxm:_SetPropertyUtility_SetStruct_TisChar_t2AF4E0DF8B57497BF49A6A8822F574113ADA8432_mBEFEFC9427C29CDCA96742770C96F842DEBC6073_gshared
KPr:_Nullable_1_GetHashCode_mC0F687AEE12902511DFEC187063DA10334244144_AdjustorThunk
Vqt:__ZN6il2cpp6icalls8mscorlib6System2IO6MonoIO20GetFileSystemEntriesEP12Il2CppStringS6_iiPi
iTp:_SystemInfo_get_supportedRandomWriteTargetCount_m9E23D7F4FF8881B3FBC198CC45D81972C129B120
COf:__ZNK5physx2Gu12_GLOBAL__N_115ConvexTriangles9getBoundsERNS_9PxBounds3ERKNS_11PxTransformE
Wzd:__Z41MonoBehaviour_Set_Custom_PropUseGUILayoutP12Il2CppObjecth
F1i:_InternalEnumerator_1_Dispose_m19F4C66AA52F12340FE4CF76B373047BDEF03DCE_AdjustorThunk
yqp:_List_1_System_Collections_IList_IndexOf_m9291EB8D3EC38749C4CE0D035F5189CB1E9A4F6C_gshared
fHd:__Z52Register_UnityEngine_Input_get_acceleration_Injectedv
Q6t:_glGenRenderbuffers__wrapper
Q3k:_ModuleBuilder_GetMaybeNested_mE11240FAF8263DCA8D7AB48A7E6992B76302CFD1
P_b:__ZN16ScriptingManagerD0Ev
Q$:__ZN7mecanim12statemachine20StateMachineConstant15InitializeClassEv
oDd:__Z29Register_UnityEngine_GL_Beginv
n2g:__ZN11UnityEngine9Analytics14DataDispatcherD2Ev
HJp:_Quaternion_Internal_MakePositive_mC458BD7036703798B11C6C46675814B57E236597
bDm:_Array_InternalArray__ICollection_Add_TisMonoWin32Resource_tB534786235BD6A3F2D3F4867D1C3018892F05833_m722A144981FAC5F6F377DB24EB6C7EFDEAC93FBD_gshared
hQc:__ZN13dynamic_arrayI11ActiveLightLj0EE4growEv
e6d:__Z25UpdateOrbitalAndRadialTplIL27ParticleSystemCurveEvalMode0ELS0_1ELS0_0EEvRK11MinMaxCurveS3_S3_S3_S3_S3_S3_R23ParticleSystemParticlesjjRKN4math8float3x3ERKNS6_7affineXERKNS6_7_float4E
ovt:__ZN30dense_hashtable_const_iteratorINSt3__24pairIK10KeyWrapperINS1_IPKcS4_EEEiEES6_24NamespaceAndNamePairHashN14dense_hash_mapIS6_iS9_NS6_14EqualsComparerI26NamespaceAndNamePairEqualsEENS0_9allocatorIS8_EEE9SelectKeyESD_SF_EppEv
pTm:_DerivedType_GetConstructorImpl_m8343551ABC2AF5E68A2E925961412F45C96E3084
aud:__Z44Register_UnityEngine_Component_get_transformv
oPd:__Z35GUIStyle_Get_Custom_PropFixedHeightP12Il2CppObject
s8b:__ZL26Transfer_SimpleNativeClassI19StreamedBinaryWrite8GradientLb1EEvRK29SerializationCommandArgumentsR31RuntimeSerializationCommandInfo
wV:__ZN12_GLOBAL__N_120ProcessPlayableGraphERN8Animator11AnimatorJobER35AnimationPlayableEvaluationConstantR32AnimationPlayableEvaluationInputR33AnimationPlayableEvaluationOutputPFvS4_R17AnimationPlayableEPFvS4_S6_S8_EPFvS8_S4_S6_S8_fESE_MS9_FvPS3_PS5_PS7_E
Z9n:__ZNK46Data_t1A887404FF0C7ECA906E4BE148A318DE5EFB167614get_list_sep_4Ev
msn:_GetRaycastNonAllocCallback_BeginInvoke_mDBE7E69D77ED2B0AF5B590E725DC0BC7FA84E3A7
kvc:__ZN17ArchiveFileSystem12MountArchiveEPKcS1_
sCd:__Z34Graphics_CUSTOM_Internal_SetNullRTv
oJs:_MainModule_get_startLifetime_m6DF13640A9E75365A4E3CC629790069E41D182C4
ORd:__Z18Transfer_BlittableI9JSONWriteLb1E8Vector4fEvRK29SerializationCommandArgumentsR31RuntimeSerializationCommandInfo
lVp:_Transform_set_localPosition_m275F5550DD939F83AFEB5E8D681131172E2E1728
Zls:_AudioExtensionManager_WriteExtensionProperties_m445848E71B4139FEE237367139F75751A0425974
fma:__Z11RequireTypePKcS0_S0_
$Qg:__ZN2UI13CanvasManagerD0Ev
$Fn:_BigInteger_op_Multiply_m27B0292BC550D7BD328295C96175D3C8B63C3F36
qJr:_ExperimentConfig_GenerateRandomTrialPositions_mA265B96CE4F0458C4C2174805034125E3A817051
bzl:_Graphics_SetRenderTargetImpl_m39FAEAC34E8A95FE3CF86488C4D5D699AFC5C0D8
p8k:__ZN62OpCodes_t68E6B52B0B80EC63090337A0C70E8CD9CC57F560_StaticFields15set_Sub_Ovf_184E48OpCode_tFBF4FC2990E657EA00DA0BB36BE0CC73515E6511
kmp:_Enumerator_Dispose_m9C0D6ED53D26B10977E6192F54125DE229B76FED_AdjustorThunk
Tyj:__Z67Enumerator_get_CurrentKey_m2EC32BC5D59C458B5B9F5EA99505698DD3856B47P52Enumerator_t5DE3D636A6596D8B2CAB473CE8F848FC269A03A3PK10MethodInfo
CJn:_MD4Managed_Decode_mE062645C245AFF5A00EA8CF7DCAA72F908C7CD36
SMt:_GC_find_header
avm:_Array_InternalArray__ICollection_Contains_TisUInt16_t1FF1E02102FB09D5656DF30E5299DD359E497E9B_m9F56EA2F6899588A5585A522B4A4CDCD6B84E398_gshared
p4a:__ZN9GfxDevice15ImmediateVertexEfff
vch:__ZNSt3__26vectorI23UnityVRDeviceDefinition13stl_allocatorIS1_L18MemLabelIdentifier91ELi16EEE21__push_back_slow_pathIRKS1_EEvOT_
BGb:__ZNK16LightmapSettings22GetTypeVirtualInternalEv
fCe:__ZN17Physics2DSettings8TransferI19StreamedBinaryWriteEEvRT_
det:__ZN30dense_hashtable_const_iteratorINSt3__24pairIK10KeyWrapperIPK14Il2CppAssemblyEPK22Il2CppMonoAssemblyNameEES6_N6il2cpp5utils11PointerHashIS4_EEN14dense_hash_mapIS6_SA_SF_NS6_14EqualsComparerINS0_8equal_toIS5_EEEENS0_9allocatorISB_EEE9SelectKeyESK_SM_EppEv
BAs:_Physics_SphereCastAll_m30813767B905D3E6D32E14BAE55D07B4E93587D0
gQm:_Default_ChangeType_m665E5AF4A510450F659CBC471F8742066334824A
Mkc:__ZN13GfxDeviceGLES15SetStencilStateEPK18DeviceStencilStatei
bWo:_SByte_CompareTo_mD6666DF7276B5E1186BE9B6EC9473704BCCF94A7_AdjustorThunk
ONp:_RenderSettings_get_fogDensity_m1187FA152B89D3A1AB61DB7B54E195C27E662096
aYp:_Vector3__ctor_m6AD8F21FFCC7723C6F507CCF2E4E2EFFC4871584
oto:_Latin1Encoding_GetByteCount_mCBA9CF0D7124C2AA985DCA8FCD811C02399BF0A9
jXt:_cycle
IIt:__ZN6il2cpp2vm8Profiler7GCEventE13Il2CppGCEvent
IQl:_WebHeaderCollection_get_Keys_m7CF3925DFAC9927D96A4300C7053B32717265798
r7a:__ZN11SpriteAtlas23VirtualRedirectTransferER18StreamedBinaryRead
Xns:_Enumerator__ctor_mE90274D68218FACBF1EC2BBB177244F49E446E11
kip:__Z64Enumerator_get_Current_m5D491EA4536545C222F6C44DCC404F4814312F1FP52Enumerator_tB7DCB5B52B488F4BCAC79D289A0FC79C2E68C15BPK10MethodInfo
k2a:__ZN13ComputeShader14SetBufferParamEjRKN9ShaderLab16FastPropertyNameE15ComputeBufferIDb
kqt:__ZN6il2cpp6icalls8mscorlib6SystemL16ThrowInvalidCastEPK11Il2CppClassS5_
Ive:__ZN15b2DistanceProxy3SetEPK7b2Shapei
kpl:_Camera_RaycastTry2D_m5C5FE62B732A123048EBFA3241BBBEC7BA409C0F
Vzq:_Array_InternalArray__set_Item_TisTileCoord_t51EDF1EA1A3A7F9C1D85C186E7A7954535C225BA_m657DD9ADF5FF3A6C3944C61D2482657C561F41D5_gshared
BZb:__ZN16MemoryFileSystemD2Ev
hMd:__ZN9Scripting11UnityEngine13GUIStyleProxy12CleanupProxyEv
isr:_ReadOnlyCollection_1_System_Collections_Generic_ICollectionU3CTU3E_Add_m1BCB9AA826972DB1C4AFC63CC5FD6A2E8B3E46B4_gshared
OZe:__ZN5physx21PxcContactPlaneConvexERKNS_2Gu13GeometryUnionES3_RKNS_11PxTransformES6_RKNS0_17NarrowPhaseParamsERNS0_5CacheERNS0_13ContactBufferEPNS_2Cm12RenderOutputE
N0l:__Z142RuntimeInvoker_FalseVoid_tDB81A15FA2AB53E2401A76B745D215397B29F783_RuntimeObject_RuntimeObject_Int64_tF61270729FC90F8A705A5FA6FE222C9644374ADFPFvvEPK10MethodInfoPvPS4_
mcg:__ZNK5physx20BigConvexDataBuilder4saveERNS_14PxOutputStreamEb
PTf:__ZN5physx2Dy20copyToSolverBodyDataERKNS_6PxVec3ES3_fS3_RKNS_11PxTransformEffjfRNS_16PxSolverBodyDataEj
EBd:__Z37Register_UnityEngine_Camera_get_depthv
ELn:_RSAManaged_ToXmlString_mAE2183F267F1B294F2C24B747D422DE6BDD6A435
d$:__ZN13AnimationClip24SetDidModifyClipCallbackEPFvPS_R4ListI8ListNodeI14AnimationStateEEE
sRg:__ZN2UI6CanvasD2Ev
sBt:__ZN6il2cpp2os5posix15PosixWaitObject4WaitEjb
Lwj:_Enumerator_System_Collections_IDictionaryEnumerator_get_Value_mACFEDB33A355127EC902E4C6CE4675C9101D5771_gshared
t2m:_Array_FastCopy_mCD1A675213DC20740F1D24CAD9CCAE01616A7C61
oOf:__ZN5physx10PxsCCDPair17sweepAdvanceToToiEfb
MWc:__Z23ConvertIntegerToTypePtrItEbPvR14SafeBinaryRead
$zn:__ZN48Slider_t0654A41304B5CE7074CA86F4E66CB681D0D52C0921set_m_WholeNumbers_23Eb
noq:_Enumerator_get_Current_m2FB872488EDDBB768B675F4AA4D22D43FE5C6FD8_gshared
Frp:_GuidParser_ParseGuid1_mE90D2F82E246296D996241AA0254E1438BB621F3
y7d:__ZL23CalculateMultiModeValueILN11ShapeModule14MultiModeValueE1EEKN4math7_float4ER5RandNRKfS8_S8_S8_RS4_S8_S9_
nW:__ZN7mecanim5human29HumanGetGoalOrientationOffsetENS0_4GoalE
V_b:__ZNK11MonoManager22GetTypeVirtualInternalEv
b$r:_GUI_get_skin_mF6804BE33CFD74FF0665C1185AC7B5C1687AE866
l_p:_MathfInternal__cctor_m885D4921B8E928763E7ABB4466659665780F860F
lra:__ZN18AwakeFromLoadQueueD2Ev
vLi:__Z46il2cpp_codegen_get_marshal_directive_exceptionPKc
gpg:__ZN7Terrain31GetHeightmapRenderTextureFormatEv
_1c:__ZN9ShaderLab20SerializedSubProgram14AddMatrixParamEPKcii15ShaderParamTypei
CLl:_WebRequest__ctor_mE761C7C0C8766EE2815FB671A2E01682BF3D4F53
ki:_glGetActiveUniformBlockName
z3e:__ZThn12_N5physx3Ext13DistanceJointD0Ev
pH:__ZN7mecanim13CopyValueMaskILb0EEEvPKNS_14ValueArrayMaskEPS1_
ttt:__ZN24dense_hashtable_iteratorINSt3__24pairIK10KeyWrapperIP14Il2CppIUnknownEjEES5_N6il2cpp5utils11PointerHashIS3_EEN14dense_hash_mapIS5_jSB_NS5_14EqualsComparerINS0_8equal_toIS4_EEEENS0_9allocatorIS7_EEE9SelectKeyESG_SI_EC2EPK15dense_hashtableIS7_S5_SB_SK_SG_SI_EPS7_SQ_b
tZ:__ZN9Animation20GetClipLegacyWarningEP13AnimationClip
d8g:__GLOBAL__sub_I_UnityWebRequestScriptingClasses_cpp
g3m:_AppDomain_add_UnhandledException_mBF7EA2ED7610E0AB81989141D6094C5B3F35C566
VLf:__ZNK5physx2Sq20ExtendedBucketPruner7overlapERKNS_2Gu9ShapeDataERNS0_14PrunerCallbackE
kQl:_WebHeaderCollection__cctor_m651B603F06CFEDC9F4435DFC4A3FCAFCA224FBA0
OOp:_RenderTexture_GetTemporary_Internal_Injected_m120A90D9E06335E3DED4581D48BC18F0E9F1006A
Bee:__ZN31CollisionModulePropertyBindings13GetFloatValueERK14ParticleSystemi
NIg:_psnames_get_service
uPm:_AssemblyName_set_Version_mD81AE23F0DFF8E4BC28E3E5C94F684F53ED24C03
cqk:_CrossPlatformInputManager_SetVirtualMousePositionX_m4C8109BCE844F63C0F283C8F29E97E7FCF5078EB
gas:_UInt64_ToString_mDDB657B6C06A57D111E9C9BB89D15199F9CE0D30
t5:__ZN4FMOD7Channel20set3DConeOrientationEP11FMOD_VECTOR
Ul:FUNCTION_TABLE_iiifii
tS:__ZN7mecanim5human9HumanPose8TransferI18StreamedBinaryReadEEvRT_
eBt:__ZN6il2cpp2vm12GenericClass11SetupEventsEP11Il2CppClass
pCg:_ft_open_face_internal
qKg:_tt_cmap12_get_info
ter:_Collection_1_InsertItem_mA411332B2FFCE156085C141F649C38E49D59027E_gshared
e1r:_GUILayoutOption__ctor_m965FDA1345FD7146596EFA90F03D0C645FB3FD5D
O7l:__Z115RuntimeInvoker_FalseInt64_tF61270729FC90F8A705A5FA6FE222C9644374ADF_Int32_tC16F64335CE8B56D99229DE94BB3A876ED55FE87PFvvEPK10MethodInfoPvPS4_
Dtt:__ZN6il2cpp2vm15ReboxIReferenceEP14Il2CppIUnknownP11Il2CppClass
qOp:_Texture_ValidateFormat_m12332BF76D9B5BBFFCE74D855928AEA01984DF6C
mBt:__ZN6il2cpp2os5posix15PosixWaitObjectD2Ev
Fch:__ZN9Scripting11UnityEngine5VideoL57__ManagedRegistrationHelperFunction_VideoAspectRatioProxyEPv
xHs:__ZN6il2cpp6icalls8mscorlib6System7Decimal14decimalCompareEP19il2cpp_decimal_reprS5_
k$:__ZN29AnimationStateNetworkProvider24GetNetworkAnimationStateER9AnimationP24AnimationStateForNetworki
FFt:__ZN6il2cpp2vm12AssemblyName20AssemblyNameToStringERK18Il2CppAssemblyName
izf:__ZN5physx6shdfnd8SyncImpl7getSizeEv
YWs:__ZL29ConvertPackingSizeEnumToValue11PackingSize
k5d:__Z25UpdateOrbitalAndRadialTplIL27ParticleSystemCurveEvalMode2ELS0_3ELS0_2EEvRK11MinMaxCurveS3_S3_S3_S3_S3_S3_R23ParticleSystemParticlesjjRKN4math8float3x3ERKNS6_7affineXERKNS6_7_float4E
uUo:_StreamingContext__ctor_m832A85026F51EE3F34EB80E7BB9E124288671E0F
i9t:_glCopyTexImage2D__wrapper
Iol:_Camera_get_pixelRect_Injected_mDE6A7F125BC1DD2BCFEA3CB03DFA948E5635E631
ihs:_UploadHandler_Finalize_m68B0CC0B647B11B53908CA4E577AEA5DBA31E4D8
Bxo:_Mutex_ReleaseMutex_internal_m30B89F352411C2034D70398866D93C033A44B869
l1q:_List_1_set_Capacity_mC5713EFB84772FAF1A7AF111C5E6C9C34AC1439C_gshared
Tjp:_Enumerator_MoveNext_mA20EC9F84EC1FB16B5718339EABFC7453625EF01_gshared
qHl:_U3CUnregisterManagedCallbackU3Ec__AnonStorey2_U3CU3Em__0_mD582BCF419AFA0D9F2DF2F7847933C570A8B9C2A
yTe:__ZN5physx11PxHitBufferINS_12PxRaycastHitEED0Ev
nzl:_Graphics_BlitMultiTap_m68957C274C362CD59546AA69740397EA196AEB98
Ave:__ZN14PhysicsQuery2D25FindParticleIntersectionsEiRKfRK13dynamic_arrayI15BatchedRaycastsLj0EEjRK24BatchedRaycastParametersRS2_I20BatchedRaycastResultLj0EERS2_I21BatchedColliderResultLj0EE
Kne:__Z61Register_UnityEngine_ParticleSystem_EmissionModule_SetEnabledv
Bhc:__Z18ClearByDrawingQuad13GfxClearFlagsRK10ColorRGBAffjR17ShaderPassContext
zzb:__ZN6prcoreL17RemapGenericFloatI14TexFormatRHalf15TexFormatRFloatEEvPKNS_9InnerInfoE
D1s:__ZN6il2cpp2os6Atomic10Exchange64EPVyy
j_l:__Z143RuntimeInvoker_FalseInt16_tBFC41132AB8E6B4E1F9D4A1E3CC46422BF453F3C_RuntimeObject_Int32_tC16F64335CE8B56D99229DE94BB3A876ED55FE87_RuntimeObjectPFvvEPK10MethodInfoPvPS4_
dla:__ZN15DirectorManager21RebuildStageCallbacksEv
bsi:_SingleCallIdentity_AsyncObjectProcessMessage_mA19A4DB422C81C1CB447DD91E5C6B8B52CA2ACF0
Dch:__ZN9Scripting11UnityEngine12Experimental5VideoL58__ManagedRegistrationHelperFunction_VideoClipPlayableProxyEPv
rQg:__ZN9Scripting11UnityEngine8Tilemaps22TileAnimationDataProxy9InitProxyEv
vnc:__ZN7ApiGLES10DrawArraysE16GfxPrimitiveTypejjj
OCl:_Matrix4x4_get_inverse_mBD3145C0D7977962E18C8B3BF63DD671F7917166
u9:__ZN10SampleClip13LoadBaseSoundEv
xl:FUNCTION_TABLE_iffi
hHd:__Z40SystemInfo_CUSTOM_GetGraphicsShaderLevelv
wBe:__ZN10Collider2D15DeallocateShapeEP14PhysicsScene2DPK7b2Shape
Zxp:_MemoryStream_InternalConstructor_m95191BDC19B26F840A44B97BC41FEF490046BC93
CQp:_SceneManager_get_sceneCountInBuildSettings_mDEF095420E9AC2FDA96136F51B55254CE11ED529
y2b:__ZN14SafeBinaryRead21TransferSTLStyleArrayI13dynamic_arrayI10Matrix4x4fLj0EEEEvRT_17TransferMetaFlags
bIa:__ZN9Scripting11UnityEngine9PlayablesL49__ManagedRegistrationHelperFunction_PlayableProxyEPv
bHd:__Z60Register_UnityEngine_Input_set_compositionCursorPos_Injectedv
S8f:__ZN5physx6shdfnd5ArrayIPvNS0_19ReflectionAllocatorINS_12NpConstraintEEEE15growAndPushBackERKS2_
fda:__Z57AudioSource_CUSTOM_INTERNAL_CALL_ClearExtensionPropertiesP12Il2CppObjectRK12PropertyName
KBd:__Z56Register_UnityEngine_Camera_get_backgroundColor_Injectedv
zhe:__ZL17DrawMeshParticlesILb0EL25ParticleSystemRenderSpace3EEvRK26ParticleSystemTempMeshDataRK22ParticleSystemTempDataRK23ParticleSystemParticlesRK31ParticleSystemParticlesTempDataRK26ParticleSystemRendererDataRK21ParticleSystemModulesPfPv
Uxb:__ZN6prcoreL19RemapGenericIntegerI11TexFormatI817TexFormatARGB4444EEvPKNS_9InnerInfoE
Fmo:_String_Split_m6EED47A3B94129373A4DBD9C514B3B9C8BC21FE0
jPt:_GC_get_push_other_roots
lYd:__ZN5Unity9rapidjson12PrettyWriterI16TempBufferWriterNS0_4UTF8IcEES4_13JSONAllocatorE9EndObjectEj
Btb:__ZN22DeviceMVPMatricesStateC2ER9GfxDevice
K2d:__Z9UpdateTplIL27ParticleSystemCurveEvalMode1EEvRK11MinMaxCurveS3_S3_R23ParticleSystemParticlesjjRKN4math8float3x3ERKNS6_7_float4E
Rlf:__ZN5physx9NpPhysics18createTriangleMeshERNS_13PxInputStreamE
gm:FUNCTION_TABLE_iiiiifiiiif
Ll:FUNCTION_TABLE_iifii
YHe:__ZN5physx2Cm18CompleteBoxPruningEPKNS_9PxBounds3EjRNS_6shdfnd5ArrayIjNS4_19ReflectionAllocatorIjEEEERKNS_2Gu4AxesE
Spo:_DecoderFallbackException__ctor_m98C244353E6C48ECB08E3ADDD263F83BDE2013FA
rvm:_Array_InternalArray__ICollection_Contains_TisContentType_t8F7DB5382A51BC2D99814DEB6BCD904D5E5B2048_mBA012056D36E1ECDB597ACFDBD1645C58E8981EC_gshared
com:__Z117RuntimeInvoker_TrueInt32_tC16F64335CE8B56D99229DE94BB3A876ED55FE87_UIVertex_t0583C35B730B218B542E80203F5F4BC6F1E9E577PFvvEPK10MethodInfoPvPS4_
wsk:_TouchPad_OnPointerDown_m9427928BF56139DB4DEFC507CAE86DB2C3DCDB67
Dc:invoke_viiifi
rui:_ObjectReader_ReadObjectGraph_mDEC54AA91D593F68881387F1F2EF5D3334596D5D
dzp:_NullStream__ctor_m85BBF85BF358A1A777D15999012FEB6155DA9DBA
kRm:_CustomAttributeTypedArgument_GetHashCode_mE5F2DA98AD379405F1CB0E661C4D2E1749E6EF80_AdjustorThunk
joe:__ZN13JSONAllocator6MallocEj
Gfi:__ZL84Twirl_t537751DDD1DB2000A1553CD782C7258B27949EEF_CustomAttributesCacheGenerator_angleP21CustomAttributesCache
yOj:_ArgInfo_GetInOutArgs_mEC799F8608C01E4B10104D81986E656561086A2E
$Hs:_Particle_set_lifetime_m0DB60575386F2D365BCCCAB07538FC2BFF81EC17
Kym:_Array_InternalArray__IEnumerable_GetEnumerator_TisInt32_tC16F64335CE8B56D99229DE94BB3A876ED55FE87_m212D1839D1062D1CF5812D4FA937BBDBD3C6CD40_gshared
lIf:__ZN5physx6shdfnd5ArrayIPNS_7PxActorENS0_19ReflectionAllocatorIS3_EEE8recreateEj
mhr:__ZN18VirtActionInvoker2Ii50UIVertex_t0583C35B730B218B542E80203F5F4BC6F1E9E577E6InvokeEjP12Il2CppObjectiS0_
ywm:_Array_InternalArray__ICollection_Remove_TisRaycastHit2D_t5E8A7F96317BAF2033362FC780F4D72DC72764BE_m7217739987C5A00FB8FB8DC7A4A6CC5CB66CF75F_gshared
P9p:__ZNK52AnchorInfo_t82C2F6B32A20B889C741097F41349F0B8FE172139get_pos_1Ev
CUn:_DateTimeOffset_GetHashCode_m797B98B56749E3638A833CBC4E2115292457147C_AdjustorThunk
n6i:__Z68InternalEnumerator_1__ctor_mB6538C7DBA6B0CED2F78553EC3811DFDB4A6F412P62InternalEnumerator_1_t115F479D7C94C7DF823466AF50B0BD646945DE25P11Il2CppArrayPK10MethodInfo
fSb:__ZL19BlendLightProbesJobP19BlendProbesJobInputj
l4j:_Enumerator_MoveNext_mA8B81225A557F9DFB44641A327378FB243AFCE16
ZHi:_PhysicsRaycaster_get_eventCamera_mAFA0D5F17761DBDDC9BD06135CF444758BCC4B90
qvb:__ZN10Matrix4x4f8TransferI19StreamedBinaryWriteEEvRT_
Dd:_JS_Sound_SetPosition
HFp:_Int64_System_IConvertible_ToByte_m0049CB7E201BC45B015245178D44856BB5237290_AdjustorThunk
cfb:__Z27ConvertSubMeshesToTrianglesIjEvR13dynamic_arrayI7SubMeshLj0EERS0_IhLj0EE
odk:_CurrentSystemTimeZone_GetDaylightChanges_m3FDB4BC22E46EDBE06810CFEE93E0504BCDC2BA0
Vxj:__Z103Enumerator_System_Collections_IDictionaryEnumerator_get_Value_m219EC21F00E651FDE5532A35B3D84F8262A47E3FP52Enumerator_tBA5711AFB9BE004958CE6BD544CE7F7A23A4BF0DPK10MethodInfo
D4p:_Mark_get_IsDefined_mFF8080FBDC2FD46FCC6C62FD47D50A3A69D435AC_AdjustorThunk
Udo:_SHA512Managed_Sigma1_m651CBCB374224734C39D1880A02013A3409490EB
okp:__Z89Enumerator_System_Collections_IEnumerator_Reset_m7AFD913E52C28823B2B05E4C09CBE746F4DD2B08P52Enumerator_t7025A36595BD7B957856BD345EB3B2CF7AEA1CA5PK10MethodInfo
DTa:__ZN9Scripting11UnityEngine7Android15PermissionProxy12CleanupProxyEv
jfh:__ZN9Scripting11UnityEngine12Experimental2XR23XRDisplaySubsystemProxy12CleanupProxyEv
VFp:_Int64_System_IConvertible_ToInt64_mD40E48973C3DA2E1C0F83CBF7553DA72B4B7233D_AdjustorThunk
crf:__ZNK5physx7NpCloth14getNbParticlesEv
RHi:__Z52List_1_Add_m557392B1BBDDADF50646146EB714C7D7B7801D07P48List_1_tB291263EEE72B9F137CA4DC19F039DE672D0802855RaycastResult_t991BCED43A91EDD8580F39631DA07B1F88C58B91PK10MethodInfo
sXs:__ZN24dense_hashtable_iteratorINSt3__24pairIK10KeyWrapperIPK11Il2CppClassEPKcEES6_N6il2cpp5utils11PointerHashIS3_EEN14dense_hash_mapIS6_S9_SE_NS6_14EqualsComparerINS0_8equal_toIS5_EEEENS0_9allocatorISA_EEE9SelectKeyESJ_SL_E30advance_past_empty_and_deletedEv
XId:__Z57Register_UnityEngine_RectTransform_set_sizeDelta_Injectedv
s$m:_X509CertificateEnumerator_MoveNext_m499AC694169B1B66BBFCAE87873239BBDB5935A7
Uqd:__ZN9TextAsset7SetTextERKN4core12basic_stringIcNS0_20StringStorageDefaultIcEEEE
$hb:__ZN6Camera8TransferI24GenerateTypeTreeTransferEEvRT_
Dea:__Z18RegisterUnityClassI12AudioManagerEvPKc
jen:_SslStreamBase_Close_m43FC67E0097E632E13326B6AB7C3CD8CEB390A06
So:__Z12TransferPPtrI19StreamedBinaryWriteEvRiRT_
zb:invoke_iiiiiiii
x6q:_Enumerator_System_Collections_IEnumerator_Reset_m79B8CA82F3257D0D2F72644A6D40A236903F6130_gshared
pAd:__Z56Register_UnityEngine_MonoBehaviour_IsObjectMonoBehaviourv
UYq:_List_1__ctor_mC2A5C3670544842E3932A92E88363321EF137795_gshared
mG:__ZN7mecanim9animation15ClearClipOutputEPNS0_10ClipOutputEi
rSf:__ZN5physx2DyL32solveContactCoulomb4_StaticBlockEPKNS_22PxSolverConstraintDescERNS0_13SolverContextE
uLr:__ZNK56GameController_t8BB0D3CE8992C95BED5FB508588730F0A74009A321get_giftWrapState_101Ev
A6t:b121
Zxc:__ZN8Renderer17PendingAddToSceneEv
Kjf:__ZN5physx7NpActor18releaseConstraintsERNS_12PxRigidActorE
IJe:__ZN5physx6shdfnd5ArrayINS_11PxDebugLineENS0_19ReflectionAllocatorIS2_EEE8recreateEj
K3n:_CCGregorianCalendar_GetDayOfMonth_m14292F81304A44DDD0083E0081DFF84FE179950E
k7t:b127
l7t:b128
Lxd:__Z38Material_CUSTOM_SetMatrixImpl_InjectedP12Il2CppObjectiRK10Matrix4x4f
Rla:__Z21PostprocessStacktracePKcRN4core12basic_stringIcNS1_20StringStorageDefaultIcEEEE
LUr:_UnityAction_1_BeginInvoke_m5DEFA82EDDF619690E524720C4128D58F303EBCB_gshared
vkp:_Enumerator_Dispose_m5BE5EE7E16764EFAE31FC10BEE1739F9D67DA6A2_AdjustorThunk
K1q:_List_1_System_Collections_IList_get_Item_mBE82B8E5E491704EE08B0F3CF843E489F5791B20_gshared
qYp:_Vector3_set_Item_m89FF112CEC0D9ED43F1C4FE01522C75394B30AE6_AdjustorThunk
DLd:__ZN9Scripting11UnityEngine15GridLayoutProxy12CleanupProxyEv
Wwf:__ZNK5physx14NpRigidDynamic25getContactReportThresholdEv
mPf:__ZN5physx6shdfnd5ArrayIjNS0_15InlineAllocatorILj256ENS0_19ReflectionAllocatorIjEEEEE6resizeEjRKj
lun:_ScrollRect_set_verticalScrollbarSpacing_mA03A396F29DD92C6410157997C4F173851B6EF24
jBm:_Array_InternalArray__IndexOf_TisTypeTag_t627F1F47026B116EDA89872C1D940B005B9CAAB2_m0BCAD94B4A08A43FEE1F566020283F545ADC841B_gshared
Dmi:___clang_call_terminate
Umq:_Enumerator__ctor_mA9AF025A2A86661DC6A3A951807E52F656893E77_AdjustorThunk
BNa:__ZN9Scripting11UnityEngine12Experimental10PlayerLoop13PreLateUpdate25UpdateNetworkManagerProxy12CleanupProxyEv
x_:__ZN16MecanimAnimation25RegisterIAnimationBindingEPKN5Unity4TypeEiP17IAnimationBinding
fmd:__ZNSt3__26vectorIj13stl_allocatorIjL18MemLabelIdentifier1ELi16EEE6assignIPKtEENS_9enable_ifIXaasr21__is_forward_iteratorIT_EE5valuesr16is_constructibleIjNS_15iterator_traitsIS9_E9referenceEEE5valueEvE4typeES9_S9_
MU:__ZN7mecanim9animation16EvaluateAvatarIKEPKNS0_14AvatarConstantEPKNS0_11AvatarInputEPNS0_12AvatarOutputEPNS0_12AvatarMemoryEPNS0_15AvatarWorkspaceEb
PJ:__ZN26AnimatorControllerPlayable10GetIntegerEiRi
Ibs:_Version_CompareTo_m4F37357349BB41DAC8C61271CBBF52F6B7A3D55A
lbm:__Z162RuntimeInvoker_TrueRay_tE2163D4CB3E6B267E29F8ABE41684490E4A614B2_Vector3_tDCF05E21F632FE2BA260C06E0D10CA81513E6720_Int32_tC16F64335CE8B56D99229DE94BB3A876ED55FE87PFvvEPK10MethodInfoPvPS4_
Zgg:__ZN12PhysicsScene19ProcessTriggerStaysEv
OLs:__ZN15dense_hashtableINSt3__24pairIK10KeyWrapperIPK22Il2CppGenericParameterEP11Il2CppClassEES6_N6il2cpp5utils11PointerHashIS4_EEN14dense_hash_mapIS6_S9_SE_NS6_14EqualsComparerINS0_8equal_toIS5_EEEENS0_9allocatorISA_EEE9SelectKeyESJ_SL_E14squash_deletedEv
_Hl:_Plane__ctor_m6535EAD5E675627C2533962F1F7890CBFA2BA44A_AdjustorThunk
XWj:_Byte_CompareTo_m7E4A28125AC0374248C7C82B6AECF3AA90048396_AdjustorThunk
kok:_AxisTouchButton_OnEnable_mD4230CCB662191A7B9407716CE3D2E90E292020B
L$e:__ZN8Collider30GetRelativePositionAndRotationERK9TransformR10Matrix4x4f
Qll:_UnityAction_Invoke_mC9FF5AA1F82FDE635B3B6644CE71C94C31C3E71A
s8s:__ZN14dense_hash_mapI10KeyWrapperINSt3__24pairIPK10MethodInfoP11Il2CppClassEEEj17ReflectionMapHashIS8_ENS9_14EqualsComparerINS1_8equal_toIS8_EEEENS1_9allocatorINS2_IKS9_jEEEEE3endEv
RTe:__ZN5physx3Cct13BoxControllerC2ERKNS_16PxControllerDescERNS_9PxPhysicsEPNS_7PxSceneE
Jrn:_ReflectionMethodsCache_get_Singleton_m6C50C55DEEA425161B73545918267BB90B7FCB9B
nzm:_Array_InternalArray__IEnumerable_GetEnumerator_TisTileCoord_t51EDF1EA1A3A7F9C1D85C186E7A7954535C225BA_mFAD2090010EEF93DC604633C9BAC1B9F55B6B42C_gshared
vXt:___munmap
bym:_Enumerable_CreateRepeatIterator_TisRuntimeObject_mD9F2924F7BA7EB9B07F1CF2329F8C93B32DFA2E1_gshared
vAc:__ZN21CameraProjectionCacheC2ERK6Camera21MonoOrStereoscopicEye
Wj:_localtime_r
j5c:__ZN13ProduceHelperI7CubemapLb0EE7ProduceE10MemLabelId18ObjectCreationMode
GBr:_DataController_GetCurrentTrialData_mF514A6C16A670AAC92A43738BDD3A4DE418569A8
Afl:_MonoMethod_GetGenericArguments_m0D2CCEB1C61B7A01F825BBF37FAA5D2FAC3F7060
uub:__ZN14SafeBinaryRead21TransferSTLStyleArrayI13dynamic_arrayI12BoneWeights4Lj0EEEEvRT_17TransferMetaFlags
Sha:__Z19free_alloc_internalPv10MemLabelId
vlp:_Enumerator_VerifyState_m3D78804C5C60466BB41CA68586BD1BFE9616ECEA_gshared
QJs:_Particle_set_startSize_m45B6CD1480219E30A96317D654B9439C8DB2DF87_AdjustorThunk
DSp:_Sprite_get_associatedAlphaSplitTexture_m2EF38CF62616FBBBBAE7876ECBCC596DB3F42156
yk:_strftime
uSj:_MethodCall_get_ArgCount_mDE18B7CAE9ABEF56D8115A6373F938D116FC3C62
Eva:__ZN12FileAccessorD2Ev
Jna:__ZNSt3__26__treeI19RepeatingLogMessageNS_4lessIS1_EE13stl_allocatorIS1_L18MemLabelIdentifier75ELi16EEE25__emplace_unique_key_argsIS1_JRKS1_EEENS_4pairINS_15__tree_iteratorIS1_PNS_11__tree_nodeIS1_PvEEiEEbEERKT_DpOT0_
xfb:__ZN14VertexDataInfoC2Ev
dDt:__ZN6il2cpp2gc16GarbageCollector14CollectALittleEv
Ccp:_KeyValuePair_2_get_Value_m3ABCC740085F64D6034C00060C73B3C59DC6DEDC_AdjustorThunk
xmo:_String_System_Collections_IEnumerable_GetEnumerator_mD0CA467BFA8E0355BF69C774AA719CFB0983B8A7
H6k:__ZN62OpCodes_t68E6B52B0B80EC63090337A0C70E8CD9CC57F560_StaticFields10set_And_94E48OpCode_tFBF4FC2990E657EA00DA0BB36BE0CC73515E6511
x1d:__ZNSt3__227__insertion_sort_incompleteIR31SortCollisionEventsByGameObjectP22ParticleCollisionEventEEbT0_S5_T_
fYp:_Vector3_MoveTowards_mA288BB5AA73DDA9CA76EDC11F339BAFDA1E4FF45
EN:__Z26AddScaleCurveToClipBuilderR17AnimationCurveTplI8Vector3fERKN4core12basic_stringIcNS3_20StringStorageDefaultIcEEEER18MecanimClipBuilderb
gao:_Guid__ctor_m6DCF6B4A64BC45573D0A1826A966E522CB3F242D
sqa:__ZN9shadertag10InitializeEv
qhg:__ZN5physx24NpPtrTableStorageManager8canReuseEjj
vng:__GLOBAL__sub_I_Modules_Terrain_Public_1_cpp
TDb:__ZN15QualitySettings14QualitySetting8TransferI24GenerateTypeTreeTransferEEvRT_
ntq:_Dictionary_2_Add_m6B49CBBA9928D53786A1710B97F9899523B6ED2D_gshared
KAf:__ZN5physx2Sc27ConstraintProjectionManager33processConstraintForGroupBuildingEPNS0_13ConstraintSimERNS0_20ScratchAllocatorListIS3_Lj64EEE
szj:_Enumerator_Dispose_m0E4B9B992DECEC9374AC79F9051ED1D27138923A_AdjustorThunk
a2e:__ZN5Unity11SpringJoint5ResetEv
EIs:_ParticleSystem_Emit_Injected_mB34A23399928EDC3111C060A2346A1EF63E1B9CC
uHc:__ZN13dynamic_arrayIS_I16ShadowCasterDataLj0EELj0EE18resize_initializedEj12ResizePolicy
s7l:__Z115RuntimeInvoker_FalseInt16_tBFC41132AB8E6B4E1F9D4A1E3CC46422BF453F3C_Int32_tC16F64335CE8B56D99229DE94BB3A876ED55FE87PFvvEPK10MethodInfoPvPS4_
RPg:__Z28Font_Get_Custom_PropMaterialP12Il2CppObject
V4h:__ZL80Outline_tB750E496976B072E79142D51C0A991AC20183095_CustomAttributesCacheGeneratorP21CustomAttributesCache
ndd:__ZN22BlockMemoryCacheWriter14LockCacheBlockEjPPhS1_
N6k:__ZN62OpCodes_t68E6B52B0B80EC63090337A0C70E8CD9CC57F560_StaticFields11set_Neg_100E48OpCode_tFBF4FC2990E657EA00DA0BB36BE0CC73515E6511
Scg:__ZN5physx19TriangleMeshBuilder20createSharedEdgeDataEbb
Eiq:__ZNK56ShimEnumerator_t6EB3963CBDCBE290EC7F791F696591450CBE759821get_host_enumerator_0Ev
dBf:__ZN5physx2Cm29ConstraintImmediateVisualizer19visualizeDoubleConeERKNS_11PxTransformEfb
AVd:__Z22TransferField_NonArrayI8JSONRead27Converter_SimpleNativeClassI8GUIStyleEEvRK23StaticTransferFieldInfoR31RuntimeSerializationCommandInfoRT0_
fLe:__ZN5physx6shdfnd5ArrayINS_13PxExtendedBoxENS0_19ReflectionAllocatorIS2_EEE8recreateEj
Wwk:__ZN58CameraMotionBlur_tF82F63FD6B834CC3808A243F8D9537907DDB4EA025set_currentViewProjMat_30E51Matrix4x4_t6BF60F70C9169DF14C9D2577672A44224B236ECA
Mj:_llvm_eh_typeid_for
Rr:__ZN8FreeListI17OffMeshConnectionE4GrowEj
sEl:_Mesh_SetNormals_m76D71A949B9288FA8ED17DDADC530365307B9797
x4t:_glGetUniformLocation__wrapper
zYs:__ZN15dense_hashtableINSt3__24pairIK10KeyWrapperIPK19Il2CppGenericMethodEPK26Il2CppGenericMethodIndicesEES6_N6il2cpp8metadata23Il2CppGenericMethodHashEN14dense_hash_mapIS6_SA_SE_NS6_14EqualsComparerINSD_26Il2CppGenericMethodCompareEEENS0_9allocatorISB_EEE9SelectKeyESI_SK_E3endEv
fL:__ZNK23AnimationPlayableOutput7GetTypeEv
QBf:__ZN5physx7NpScene19getActiveTransformsERjh
EFp:_Int64_System_IConvertible_ToBoolean_m0B721CA4072E4335D8C6FA5BBC663F9536AED611
PQp:__Z62UnityAction_2_Invoke_m3F07731E46F777E93F9D08DD46CEB7BDE625238AP55UnityAction_2_t34FACA3D608984EE7CF1EE51BBFA450D2DB6230547Scene_t942E023788C2BC9FBB7EC8356B4FB0088B2CFED2iPK10MethodInfo
mVf:__ZN5physx6shdfnd5ArrayIPKNS_24PxsIndexedContactManagerENS0_19ReflectionAllocatorIS4_EEE8recreateEj
SQe:__ZNK5physx2Gu11LocalConvexINS0_4BoxVEE7supportERKNS_6shdfnd3aos5Vec3VE
Fmg:__Z57Register_UnityEngine_Physics_Internal_RaycastAll_Injectedv
zbk:_Convert_ToInt64_mA78EACF5E556C7023DA93DF368553FFEE8CA3C90
i1:__Z50Register_UnityEngine_Animator_GetAnimatorStateInfov
G3l:__Z170RuntimeInvoker_TrueRuntimeObject_RuntimeObject_Int32_tC16F64335CE8B56D99229DE94BB3A876ED55FE87_Int32_tC16F64335CE8B56D99229DE94BB3A876ED55FE87_RuntimeObject_RuntimeObjectPFvvEPK10MethodInfoPvPS4_
KQa:__ZN9Scripting11UnityEngine12Experimental10PlayerLoop11EarlyUpdate16TangoUpdateProxy9InitProxyEv
BO:__ZN9BlobWrite8TransferIN7mecanim5human9HumanGoalEEEvRT_PKc17TransferMetaFlags
Cyr:_BaseInvokableCall_ThrowOnInvalidArg_TisRuntimeObject_m6619B9B55C395AA6ED186844492F95CA172E4162_gshared
Fdg:__ZN5physx6shdfnd5ArrayINS_11RTreeNodeNQENS0_19ReflectionAllocatorIS2_EEE19resizeUninitializedEj
q9p:_Alternation_GetWidth_m5615A5238FF097E7C2C53DE1FF9C5E4EAA604117
EZj:_ArrayList_Contains_m7A6DD8941AF3C9891E1756E0F168C69ED1B5A23A
Rrb:__ZN8Material8TransferI14SafeBinaryReadEEvRT_
VUf:__ZN5physx17PxcNpMemBlockPool34acquireExceptionalConstraintMemoryEj
nwb:__ZN12CubemapArray17UploadToGfxDeviceEv
OT:__ZN8Animator9BuildJobsERK13dynamic_arrayIP14PlayableOutputLj0EERS0_INS_11AnimatorJobELj0EEPS7_PS0_IbLj0EESB_bb
Ufc:__ZN18ScreenManagerWebGL13SetShowCursorEb
HDo:_Type_ToString_mCF564191710287906F6A361A9577E68682203DDD
hRs:__ZN15dense_hashtableINSt3__24pairIK10KeyWrapperIP9FieldInfoEiEES5_N6il2cpp5utils11PointerHashIS3_EEN14dense_hash_mapIS5_iSB_NS5_14EqualsComparerINS0_8equal_toIS4_EEEENS0_9allocatorIS7_EEE9SelectKeyESG_SI_E4swapERSL_
_Vp:_Transform_InverseTransformDirection_m6F0513F2EC19C204F2077E3C68DD1D45317CB5F2
g7e:__ZNK5physx7NpShape16getPlaneGeometryERNS_15PxPlaneGeometryE
H0s:__ZN6il2cpp2vm19SocketPollingThread9WritePipeEic
YFp:_Int64_System_IConvertible_ToSingle_mB183CE7D5EA2AD4FFA076F1EFA26068F8BAD529B
_7i:__Z74InternalEnumerator_1_get_Current_mFD0289A9A90450DA89BC4B6A63416FFA9DF6B694P62InternalEnumerator_1_t100AE03F6D89037A4B895A2C2A97E95301F767A1PK10MethodInfo
f6:__ZN11AudioSource4StopEb
xnq:__Z60Enumerator_Dispose_m115CD4627496AB8B9E77CA7AB2C5FD9C10AF89B5P52Enumerator_tA873393540CCCCCAC659B46D658F7FE6143954D2PK10MethodInfo
Phj:_InternalEnumerator_1_get_Current_m22872355B2C6EAFBCC15E5FED1AF7459E3822C70_gshared
Thg:__ZN5physx13GuMeshFactory17createHeightFieldEPv
uWt:_fmt_x
q3f:__ZN5physx2Cm12DelegateTaskINS_2Sc5SceneEXadL_ZNS3_19updateCCDSinglePassEPNS_10PxBaseTaskEEEE11runInternalEv
irg:__ZN14SafeBinaryRead21TransferSTLStyleArrayINSt3__26vectorI4PPtrI12TerrainLayerENS1_9allocatorIS5_EEEEEEvRT_17TransferMetaFlags
Z5a:__ZN18GlslGpuProgramGLESD2Ev
pTc:__ZN13RenderTexture14SetVolumeDepthEi
D8:__ZN11AudioSource23VirtualRedirectTransferER19StreamedBinaryWrite
LRe:__ZNK5physx2Gu11LocalConvexINS0_10ShrunkBoxVEE7supportERKNS_6shdfnd3aos5Vec3VE
svn:_ScrollRect_OnDisable_m8E8408F6F5E498D38986E057EEC3C30CC8E14713
QPk:__ZN52InputField_t533609195B110760BCFF00B746C87D81969CB00521set_caretRectTrans_42EP55RectTransform_t285CBD8775B25174B75164F10618F8B9728E1B20
b$n:_DebuggerDisplayAttribute__ctor_mA8CD14440A9F9D24CB7E160AE57BB14A61ED814E
O1c:__Z22LoadGpuProgramFromDataPKhS0_Rj
oWd:__ZN10Matrix4x4f8TransferI8JSONReadEEvRT_
llc:__ZN13GfxDeviceGLES22AllocateBufferInternalERK13GfxBufferDesc
xah:__ZN15UnityWebRequest19GetHTTPStatusStringEl
M4i:__Z74InternalEnumerator_1_get_Current_m81524D6B52821650B2366460E0AA9125962BACA6P62InternalEnumerator_1_t57931F860926787F2B4146C8E9DFDFBFF2134C11PK10MethodInfo
fji:_MonoMethodMessage_get_OutArgs_m22B956DEAE4707D191E782408609B891A4204B90
FHl:_Object_CheckNullArgument_m8D42F516655D770DFEEAA13CF86A2612214AAA9B
KTl:_X500DistinguishedName_DecodeRawData_m5E0CB3FF53D701448D2DE8255E0E4E87B9FFE508
bQf:__ZN5physx2Sc20SimulationController23udpateScBodyAndShapeSimERNS_17PxsTransformCacheERNS_2Bp11BoundsArrayEPNS_10PxBaseTaskE
VFm:_Object_GetType_m993E65F4E4457CE1761C49B188A6CF858597BDDE
uxq:_Array_InternalArray__ICollection_CopyTo_TisColor_t119BCA590009762C7223FDD3AF9706653AC84ED2_mAC4E1F307F999E781F0A539D0A356BD693BE5149_gshared
WUb:__ZN13stl_allocatorINSt3__23mapIN9ShaderLab16FastPropertyNameEN13ComputeShader11ParamStructENS0_4lessIS3_EES_INS0_4pairIKS3_S5_EEL18MemLabelIdentifier22ELi16EEEELSB_22ELi16EE9constructEPSD_RKSD_
Hu:__Z55Register_UnityEngine_AI_NavMeshAgent_set_updateRotationv
vsc:__ZN25TransformFeedbackSkinning31CleanupTransformFeedbackShadersEv
Dib:__Z22scripting_object_unbox18ScriptingObjectPtr
sBg:__ZNK20TextRenderingPrivate8FontImpl19GetCharacterAdvanceEjijfPj
Jtq:_Dictionary_2_System_Collections_IDictionary_get_Item_mBC657BC176FFDD2B7D90AA9FB8CDEF968205AD7A_gshared
fRt:__ZNSt3__210__list_impIPN6il2cpp5utils10MemoryPool6RegionENS_9allocatorIS5_EEED2Ev
P3k:_ModuleBuilder_create_modified_type_m50F63D3C871BF59CC2470697ED5E3FCFFCAD0DD5
wWt:_fmt_u
kUj:_BitConverter_DoubleWordsAreSwapped_m76B814866FE5D551F92410638D629EE10B4E8DB2
_Ee:__ZN9Scripting11UnityEngineL53__ManagedRegistrationHelperFunction_ContactPointProxyEPv
hRg:__ZN2UI11CanvasGroup23VirtualRedirectTransferER19StreamedBinaryWrite
XSg:__ZN2UI29ResetVRScreenSpaceWarningFlagEv
A$h:__ZL153GUIStyle_t671F175A201A19166385EE3392292A5F50070572_CustomAttributesCacheGenerator_GUIStyle_t671F175A201A19166385EE3392292A5F50070572____name_PropertyInfoP21CustomAttributesCache
Tnq:_Enumerator_MoveNext_mF958B2A86EFE61447415E2F9576CE56BDFD34834_AdjustorThunk
v2c:__ZN9ShaderLab7ProgramC2E10MemLabelIdi10ShaderType
BTc:__ZN14PreloadManager16UpdatePreloadingEv
abb:__ZN12BaseRendererD2Ev
jlb:__ZN14SafeBinaryRead21TransferSTLStyleArrayI19StaticArrayTransferIiLi4EEEEvRT_17TransferMetaFlags
J_d:__ZN11NoiseModule8TransferI14SafeBinaryReadEEvRT_
Smj:_InternalEnumerator_1_MoveNext_m04A526206047F12484FADB0644EEB3A7C8E841AD_AdjustorThunk
hIn:_ARC4Managed_get_Key_m6602780F68C00DD1EB9D6DBB48B0DBACEFD1A221
PA:__ZN13ConstraintJob23ConstraintComponentDataC2ERK16LookAtConstraint
nUa:__ZN9Scripting5Unity11Collections39DeallocateOnJobCompletionAttributeProxy12CleanupProxyEv
FPl:_IPv6Address_SwapUShort_mD6F21FA9C584A6C989E6043153E1F3829C264CEE
wHt:__ZN14dense_hash_mapI10KeyWrapperIPK19Il2CppGenericMethodEP10MethodInfoN6il2cpp8metadata23Il2CppGenericMethodHashENS4_14EqualsComparerINS8_26Il2CppGenericMethodCompareEEENSt3__29allocatorINSD_4pairIKS4_S6_EEEEEC2EjRKS9_RKSC_
zSb:__ZN19RenderBufferManager7Buffers14GarbageCollectEi
CXc:__ZNK21UnityDefaultAllocatorI17LowLevelAllocatorE8ContainsEPKv
Wf:_emscripten_get_main_loop_timing
gVf:__ZN5physx2Dy18PxsSolverStartTask16articulationTaskEv
T_k:__ZN59LocalVariableInfo_tF663D40557F61DEFBEDF82DD4388B27D8C9E292714set_position_2Et
lb:invoke_iiiii
Qop:_List_1_GetEnumerator_m83178F038A7D4A7E9B0731B7D3078EDCF6FFD0EC_gshared
SDb:__ZN24GenerateTypeTreeTransfer21TransferSTLStyleArrayINSt3__26vectorIN15QualitySettings14QualitySettingENS1_9allocatorIS4_EEEEEEvRT_17TransferMetaFlags
lVr:__ZN18VirtActionInvoker2I47Scene_t942E023788C2BC9FBB7EC8356B4FB0088B2CFED2S0_E6InvokeEjP12Il2CppObjectS0_S0_
Zyl:_Graphics_Internal_DrawProceduralIndirect_mA37DD203476303F1DEE401F9F912B10113E61A2D
I6m:_TlsStream__ctor_mD66F73DF02D27BCE84E6AB0045A9C4B289DA0F4F
nAr:_Array_InternalArray__get_Item_TisVector4_tD148D6428C3F8FF6CD998F82090113C2B490B76E_m841A34B6B87A7B60073D92074225C45126C429DF_gshared
l9r:_UInt32_ToString_mB9E6EE2E0633BB6D2E46B9BB44049640734C3982_AdjustorThunk
BYa:__Z10AddGUIAxesR13dynamic_arrayI9InputAxisLj0EE
QAc:__ZN13BatchRendererC2ER15RenderLoopStatsRK15RenderNodeQueuebbb
bOk:_Image_get_eventAlphaThreshold_mF11A61B3F7A15AF69697817C977F729410A6D79F
ega:__GLOBAL__sub_I_Runtime_Graphics_0_cpp
EVb:__ZNK2UI13RectTransform22GetTypeVirtualInternalEv
g_d:__ZNK15PolynomialCurve18EvaluateIntegratedERKN4math7_float4E
go:getTempRet0
$ch:__ZN9Scripting11UnityEngine5Video23VideoTimeReferenceProxy9InitProxyEv
e4l:__Z162RuntimeInvoker_TrueVoid_tDB81A15FA2AB53E2401A76B745D215397B29F783_OpCode_tFBF4FC2990E657EA00DA0BB36BE0CC73515E6511_SByte_t50B643C59EE66E3364AED19D82E06B27BDE75268PFvvEPK10MethodInfoPvPS4_
kOq:_WaypointList__ctor_mF1D83C6765425C442B6010F580C7B78EAC189592
uZl:__Z109RuntimeInvoker_FalseRuntimeObject_RuntimeObject_RuntimeObject_SByte_t50B643C59EE66E3364AED19D82E06B27BDE75268PFvvEPK10MethodInfoPvPS4_
DKm:_NumberFormatter_Append_mCA0E47A8629960A7AA03E8FC85E55A4EE8472C6E
pee:__ZN26SizeModulePropertyBindings13GetFloatValueERK14ParticleSystemi
Yxr:_Dictionary_2_Do_ICollectionCopyTo_TisInt32_tC16F64335CE8B56D99229DE94BB3A876ED55FE87_m1D83E228F6F1143D81A8D433D9C6AE9ACA87453E_gshared
ZSf:__ZN5physx2Dy34solveContact_BStaticBlockWriteBackEPKNS_22PxSolverConstraintDescEjRNS0_13SolverContextE
iyg:__ZN15TerrainCollider6CreateEPK9Rigidbody
XLt:_GC_min
OCm:_Array_InternalArray__ICollection_Add_TisSlot_t3BA7C05A3FC790E1C3AA70E131A5B5B417983A31_mE8BDBE4C5F14E32114D71E2D2FADA2360026B756_gshared
ngr:_Collection_1_IsFixedSize_mE8743F6E64AF542E733015F4217E63E2CA561674_gshared
JSo:_ObjectManager_RecordArrayElementFixup_mB304C55CFC343B5DEC67F9CA48116DECB121E1F3
$Vd:__ZN8JSONRead8TransferI17AnimationCurveTplIfEEEvRT_PKc17TransferMetaFlagsb
ZCs:_TextGenerator_GetVertices_m6FA34586541514ED7396990542BDAC536C10A4F2
PSr:_InvokableCall_1__ctor_mEA71CD97C06BC20B042E4FCC98301DA7F96D2301_gshared
Qpt:__ZN6il2cpp6icalls8mscorlib6System9ThreadingL21lookup_cached_cultureEP12Il2CppThreadi
YOc:__ZN18DeferredRenderLoopD2Ev
Gll:_Debug_get_unityLogger_mFA75EC397E067D09FD66D56B4E7692C3FCC3E960
xXa:__ZNK16TypeTreeIterator4NameEv
q7s:__ZN15dense_hashtableINSt3__24pairIK10KeyWrapperIPK10Il2CppTypeEjEES6_N6il2cpp8metadata14Il2CppTypeHashEN14dense_hash_mapIS6_jSB_NS6_14EqualsComparerINSA_26Il2CppTypeEqualityComparerEEENS0_9allocatorIS8_EEE9SelectKeyESF_SH_E15insert_noresizeERKS8_
dva:__ZN15FileSystemEntry3SetEPKc
p1f:__ZN5physx6shdfnd5ArrayIPNS_13PxcNpMemBlockENS0_19ReflectionAllocatorIS3_EEE6resizeEjRKS3_
Q4r:_GUISkin_set_font_m2602A62DF6F035C7DA9BF4411C5F117022B5C07F
Uhp:__Z89Enumerator_System_Collections_IEnumerator_Reset_mF5DA07DB7977E782C75468DAD7A4E5C304AF7479P52Enumerator_tB7DCB5B52B488F4BCAC79D289A0FC79C2E68C15BPK10MethodInfo
Kpk:_VirtualInput_ButtonExists_mEA3C6450C48E909D4C85AA1F960B6C92125E72F4
Oyg:__ZN9Scripting11UnityEngine8TextCore8LowLevelL62__ManagedRegistrationHelperFunction_GlyphAdjustmentRecordProxyEPv
L6d:__ZN14ParticleSystem13StartVelocityERS_R23ParticleSystemParticlesjjRKN4math7_float3ERKNS3_7_float4Ebb
b5:__ZN20SoundChannelInstance15ParameterBuffer5ApplyEPN4FMOD7ChannelE
Wve:__ZN23b2ChainAndCircleContact6CreateEP9b2FixtureiS1_iP16b2BlockAllocator
ANs:__ZN6il2cpp5utils13dynamic_arrayIP11Il2CppClassLj4EE9push_backERKS3_
pBg:__ZN20TextRenderingPrivate19NativeTextGenerator9InsertTabEv
y2d:__Z13DragUpdateTplIL27ParticleSystemCurveEvalMode2EEvRK11MinMaxCurvebbR23ParticleSystemParticlesjjRKN4math7_float4E
zIk:_Graphic_CacheCanvas_mEB2D840C9F337E74B03E044E5451C65213FDF939
dac:__Z18Transfer_BlittableI18StreamedBinaryReadLb1E4AABBEvRK29SerializationCommandArgumentsR31RuntimeSerializationCommandInfo
O4h:__ZL86LayoutElement_tD503826DB41B6EA85AC689292F8B2661B3C1048B_CustomAttributesCacheGeneratorP21CustomAttributesCache
A6g:__ZN11UnityEngine15PlatformWrapper24GetRuntimePlatformStringEv
Ji:_glIsEnabled
XJe:__ZN5physx3Cct17CapsuleController15setFootPositionERKNS_14PxExtendedVec3E
dSe:__ZN5physx2Gu33PCMCapsuleVsMeshContactGeneration13generateEEMTDERKNS_6shdfnd3aos5Vec3VES6_RKNS3_6FloatVES6_jS6_S6_PNS0_21MeshPersistentContactERj
Sqq:_Dictionary_2_ContainsKey_mEA17439EB85F7F5A9BFB82AC827B949FCC488937_gshared
k1b:__Z25scripting_class_get_image17ScriptingClassPtr
pTi:_ContentSizeFitter_SetLayoutVertical_mE17A4D49E0D7E1845D465943A26AC39CE0260092
FPb:__ZNSt3__26vectorIN4core12basic_stringIcNS1_20StringStorageDefaultIcEEEE13stl_allocatorIS5_L18MemLabelIdentifier13ELi16EEEC2INS_11__wrap_iterIPS5_EEEET_SE_RKS8_PNS_9enable_ifIXaasr21__is_forward_iteratorISE_EE5valuesr16is_constructibleIS5_NS_15iterator_traitsISE_E9referenceEEE5valueEvE4typeE
KJ:__ZN26AnimatorControllerPlayable27SetupStateMachineBehavioursEv
vBm:_Array_InternalArray__IndexOf_TisColor_t119BCA590009762C7223FDD3AF9706653AC84ED2_m49219B90F8F282B7B3BF37B90B6E978231733828_gshared
Ael:_MonoField_GetCustomAttributes_m53189E8D5BF7CA3F300FC2AA065D5D171C87B55F
zVb:__ZN9Transform17MainThreadCleanupEv
cis:_X509CertificateEnumerator_MoveNext_m8F37FA272D0F2E22FE55815A8B631CFA7D091262
PNt:_GC_clear_hdr_marks
jPj:_CADMethodCallMessage_GetArguments_m98DEFC3504A6EB823CA3DFB0498B439462B55217
$6c:__ZZL23RegisterLightPropertiesR23GenericPropertyBindingTILj16EEEN20Wrapper_LightColorg113GetFloatValueEPv
rDl:_Matrix4x4_op_Multiply_mF6693A950E1917204E356366892C3CCB0553436E
rMc:__ZmiRK8Vector3fS1_
Mrr:_ReadOnlyCollection_1_System_Collections_ICollection_CopyTo_m1BFDEAB5DCB682AA47CF0A670381F0A6FD509265_gshared
L8l:__Z128RuntimeInvoker_FalseVoid_tDB81A15FA2AB53E2401A76B745D215397B29F783_RuntimeObject_Int16_tBFC41132AB8E6B4E1F9D4A1E3CC46422BF453F3CPFvvEPK10MethodInfoPvPS4_
HIk:_Graphic_get_depth_m5361FEBC0B269A9FEE17B2517AEBCF327AFE59F4
Mup:_MonoIO_Open_m248321796039CAEAE0777C30EC8484AA275B1C89
v6g:__ZN11UnityEngine15PlatformWrapper23GetApplicationBuildGUIDEv
WDl:_Mesh_RecalculateBoundsImpl_m43DE3DEFC2DADC090DC6FD2C27F44D6DBB88CEF6
_yg:__ZN9Scripting11UnityEngine8TextCore8LowLevel30GlyphPairAdjustmentRecordProxy12CleanupProxyEv
Cpq:_ValueCollection_System_Collections_Generic_ICollectionU3CTValueU3E_Add_m9928C84CD7D9E97036A6DB98A813B3DA453E1658_gshared
A6:__ZN4FMOD6System10getVersionEPj
VNj:__ZN23GenericVirtFuncInvoker1I50TimeSpan_t26DE4373EA745C072A5FBDEAD8373348955FC374P12Il2CppObjectE6InvokeEPK10MethodInfoS2_S2_
vBb:__Z26GetDecompressTextureFormat13TextureFormat
eBq:_Array_Sort_TisCustomAttributeTypedArgument_t6BFE31718393511FACDC7899E1E6586C47110B01_m831A01DE5289D9D31BBB121216AA3AD3F59A0390_gshared
owg:__ZN20QuadTreeNodeRenderer17SetLightmapParamsEtRK8Vector4f12LightmapType
Zz:__ZN9Scripting11UnityEngine2XR5Tango13PoseDataProxy12CleanupProxyEv
vxn:_Scrollbar_OnDrag_m7AC63EE8BC0D90003E55946E7267DBEFD345C8DF
xHa:__ZN9Scripting11UnityEngine12Experimental9RenderingL53__ManagedRegistrationHelperFunction_VisibleLightProxyEPv
_1l:__Z374RuntimeInvoker_TrueSByte_t50B643C59EE66E3364AED19D82E06B27BDE75268_RuntimeObject_VoidU2A_t8A995245462F8BDC7319CC68F09ACF295FDD2879_Int32_tC16F64335CE8B56D99229DE94BB3A876ED55FE87_Int32_tC16F64335CE8B56D99229DE94BB3A876ED55FE87_VoidU2A_t8A995245462F8BDC7319CC68F09ACF295FDD2879_SByte_t50B643C59EE66E3364AED19D82E06B27BDE75268_VoidU2A_t8A995245462F8BDC7319CC68F09ACF295FDD2879PFvvEPK10MethodInfoPvPS4_
emp:_Enumerator_System_Collections_IEnumerator_get_Current_mFBB7B850F04467A7F66FF7207EAA6EB3A922B547_gshared
FTd:__ZN9JSONWrite8TransferIN4math12int2_storageEEEvRT_PKc17TransferMetaFlags
exn:_Scrollbar_OnEnable_m1CE8A8EAC515D4DE99E6D75ACD10BA85667949B4
i7r:_TypeLoadException_get_Message_m07F93E6EE189DFB146E3087BFDD91CA1450A209C
Ozg:__ZN13TextRendering4Font13AwakeFromLoadE17AwakeFromLoadMode
MZe:__ZN5physx22PxcContactPlaneCapsuleERKNS_2Gu13GeometryUnionES3_RKNS_11PxTransformES6_RKNS0_17NarrowPhaseParamsERNS0_5CacheERNS0_13ContactBufferEPNS_2Cm12RenderOutputE
b_a:__ZN9GfxDevice21ReleaseSharedMeshDataEP14SharedMeshData
yBd:__Z45Register_UnityEngine_Camera_set_renderingPathv
h4e:__ZN10RaycastHitC2Ev
Utt:__ZN15dense_hashtableINSt3__24pairIK10KeyWrapperIP14Il2CppIUnknownEjEES5_N6il2cpp5utils11PointerHashIS3_EEN14dense_hash_mapIS5_jSB_NS5_14EqualsComparerINS0_8equal_toIS4_EEEENS0_9allocatorIS7_EEE9SelectKeyESG_SI_E11set_deletedER30dense_hashtable_const_iteratorIS7_S5_SB_SK_SG_SI_E
Yxe:__ZN7b2World25SolveContinuousIslandTaskERK10b2TimeStep
OOb:__ZNSt3__27__sort5IRNS_6__lessINS_4pairIPKN5Unity4TypeE7Hash128EES8_EEPS8_EEjT0_SC_SC_SC_SC_T_
DCs:_TextGenerator__ctor_m86E01E7BB9DC1B28F04961E482ED4D7065062BCE
Fkp:_Enumerator_get_Current_m809FC200F675E6C37D5D3C0948C03AD5DE9044DF_AdjustorThunk
bIq:_DragRigidbody_DragObject_m948A88A1562E4D0DB2FF1C560E27ADE08CD06228
jEd:__Z39Mesh_CUSTOM_PrintErrorCantAccessChannelP12Il2CppObject13ShaderChannel
q_q:_List_1_System_Collections_IList_get_Item_mB4F257EB3EE86B74FC8971CF689E2CD42B2D622B_gshared
uae:__ZN11ShapeModule18MultiModeParameterIN25IParticleSystemProperties8PropertyIfNS1_5ClampILi0ELi360EEEEEE8TransferI24GenerateTypeTreeTransferEEvRT_
vof:__ZN5physx14NpShapeManagerC2Ev
E9k:_PropertyBuilder_GetValue_m8036B5703A3825E2D7636B3C18EA77139E69DF0C
nIn:_ARC4Managed_GenerateIV_mFB67348D25178397AEFAC172061AAF67E1F69D6F
Nmt:__ZNKSt3__26vectorIN6il2cpp8metadata18GenericArrayMethodENS_9allocatorIS3_EEE8max_sizeEv
N0c:__ZN6Shader8TransferI19StreamedBinaryWriteEEvRT_
qdb:__ZN8Material28UpdateHashesOnPropertyChangeEN9ShaderLab16FastPropertyNameE
CFm:_MissingMemberException_get_Message_m171346EF8FB55287EF4ABB4F4F4D83BAEA750C75
zPf:__ZNK5physx2Gu8CapsuleV15supportRelativeERKNS_6shdfnd3aos5Vec3VERKNS3_15PsMatTransformVES9_RiPNS3_6FloatVE
oLh:__ZL103ArgumentCache_t22D888CFC4D56B3F6BFB5EB6DBEB8996B857331C_CustomAttributesCacheGenerator_m_StringArgumentP21CustomAttributesCache
fId:__Z53Register_UnityEngine_SortingLayer_GetLayerValueFromIDv
L4k:_OpCode_ToString_mD1A88A317E57D890A0665F6A1AE0819EDA3D0A56_AdjustorThunk
d0b:__Z18Transfer_BlittableI14SafeBinaryReadLb1E8Vector4fEvRK29SerializationCommandArgumentsR31RuntimeSerializationCommandInfo
K8:__ZN11AudioSource12AddToManagerEv
Hlf:__ZN5physx7NpScene11addMaterialERKNS_10NpMaterialE
svt:__ZN6il2cpp2vm5Image13ClassFromNameEPK11Il2CppImagePKcS6_
KHn:_BitConverterLE_GetUIntBytes_mEFDAF202EA63F384EC9799DCA14D5DD62E7724C6
Hzr:_Array_InternalArray__get_Item_TisRefEmitPermissionSet_t2CF0C0AFD10ED998612D3D3D843A559C6E7C575F_m0D5DEAC5477E3D4A556491C07441570D8DFED396_gshared
_$c:__ZN24GenerateTypeTreeTransfer21TransferSTLStyleArrayINSt3__26vectorIN9ShaderLab14SerializedPassENS1_9allocatorIS4_EEEEEEvRT_17TransferMetaFlags
Xqa:__ZL32MarkLevelGameManagerDependenciesR27GarbageCollectorThreadState
Emc:__ZNK13GfxDeviceGLES26HasActiveRandomWriteTargetEv
BLh:__ZL105UnityEventBase_t6E0F7823762EE94BB8489B5AE41C7802A266D3D5_CustomAttributesCacheGenerator_m_PersistentCallsP21CustomAttributesCache
qCt:__ZN15dense_hashtableINSt3__24pairIK10KeyWrapperIPcES3_EES4_N6il2cpp5utils15PassThroughHashIS3_EEN14dense_hash_mapIS4_S3_SA_NS4_14EqualsComparerINS0_8equal_toIS3_EEEENS0_9allocatorIS6_EEE9SelectKeyESF_SH_E9copy_fromERKSK_j
RYt:___mmap
xzd:__Z29Matrix4x4_CUSTOM_TRS_InjectedRK8Vector3fRK11QuaternionfS1_R10Matrix4x4f
R8t:_glGetActiveUniformsiv__wrapper
KKe:__ZNK5physx3Cct10Controller16getInternalStateERNS_17PxControllerStateE
F_b:__ZNK17InstancingBatcher21CustomRenderInstancesEjPFvjjR8JobFencePPvRKS_S2_EPFvjjR9GfxDeviceS2_ES2_
kve:__ZN17Physics2DSettings21SetAutoSyncTransformsEbb
XV:__Z20AnimationEventToMonoRK14AnimationEventR18MonoAnimationEvent
E8b:__Z18Transfer_BlittableI19StreamedBinaryWriteLb0EdEvRK29SerializationCommandArgumentsR31RuntimeSerializationCommandInfo
U9r:_UInt64_CompareTo_m041E1FF06716F221CC5D9DCD9EB27C3C12F9EA70
Hmj:_InternalEnumerator_1_System_Collections_IEnumerator_get_Current_mAD1D2D3B48E11C11D158A068120B243FC6F9975C_gshared
XOa:__ZN9Scripting11UnityEngine12Experimental10PlayerLoop14PostLateUpdate31PlayerSendFramePostPresentProxy12CleanupProxyEv
BHf:__ZN5physx10PxsContext15setScratchBlockEPvj
Pka:__ZZN15DirectorManager15InitializeClassEvEN52PreLateUpdateDirectorUpdateAnimationBeginRegistrator7ForwardEv
Hrt:__ZN6il2cpp2vm13LivenessState18ShouldProcessValueEP12Il2CppObjectP11Il2CppClass
A3l:__Z67RuntimeInvoker_TrueSingle_tF2613CF3F3AF0E8BEBC3CE8AD41479C44E6075DBPFvvEPK10MethodInfoPvPS4_
COa:__ZN9Scripting11UnityEngine12Experimental10PlayerLoop14PostLateUpdate24SortingGroupsUpdateProxy9InitProxyEv
f8e:__ZN5physx2Cm27getDynamicGlobalPoseAlignedERKNS_11PxTransformES3_S3_RS1_
BTk:_InputField_MoveTextEnd_mAF0384456CE395DD15CBC9597BD9128D3B74912D
Hxn:_Selectable_IsPressed_m332040CFA7F7D9F5656703F8CB715BB0C0B07E68
o$c:__ZNSt3__26vectorIN9ShaderLab14SerializedPassENS_9allocatorIS2_EEE8__appendEj
ibc:__Z29Transfer_Blittable_ArrayFieldI18StreamedBinaryReaddEvRT_R9ArrayInfoRK23StaticTransferFieldInfo
fue:__ZNK16PhysicsManager2D21GetAutoSyncTransformsEv
WPj:_ConstructionCall_InitDictionary_m563F19B8C0CFAAE87C19C0F6998E5833478D4DC4
CMm:_NumberFormatter_NumberToString_m407A7CEBF89D9DB386AAF8F1410F5079A6161FDB
ese:__ZN12b2WheelJoint24SolveVelocityConstraintsERK12b2SolverData
f5m:_Array_GetValue_m18A3755F6E356DF57A11F536FE266C637900EDFA
tzm:_Array_InternalArray__IEnumerable_GetEnumerator_TisTouch_t806752C775BA713A91B6588A07CA98417CABC003_m11CDBEB6F2EDB1F351F45930DA480FE415CB02F0_gshared
c4p:_CostDelegate_Invoke_m1156A2BECF82860CCB5DC3E93285058810638090
Jfc:__ZNK25PathNamePersistentManager30PathIDToFileIdentifierInternalEi
gBd:__Z33Camera_CUSTOM_RaycastTry_InjectedP12Il2CppObjectRK3Rayfi
s7j:_Stack__ctor_m37BB29688D49BC349027DA4BAD58BFB8E93C6462
OW:__ZN7mecanim8skeleton18CreateSkeletonPoseIN4math7affineXEEEPNS0_13SkeletonPoseTIT_EEPKNS0_8SkeletonER20RuntimeBaseAllocator
ubh:__Z53Register_UnityEngine_Networking_UnityWebRequest_Abortv
v8l:__Z164RuntimeInvoker_TrueVoid_tDB81A15FA2AB53E2401A76B745D215397B29F783_Int64_tF61270729FC90F8A705A5FA6FE222C9644374ADF_TimeSpan_t26DE4373EA745C072A5FBDEAD8373348955FC374PFvvEPK10MethodInfoPvPS4_
E9r:_UInt64_System_IConvertible_ToInt32_mAB77BCAA67C83BFD65FBCEABC3C59A17B4B8C2D6
HQs:__ZN30dense_hashtable_const_iteratorINSt3__24pairIK10KeyWrapperIPKcEP11Il2CppClassEES5_N6il2cpp5utils11StringUtils12StringHasherIS4_EEN14dense_hash_mapIS5_S8_SE_NS5_14EqualsComparerINSB_13VmStringUtils21CaseSensitiveComparerEEENS0_9allocatorIS9_EEE9SelectKeyESJ_SL_E30advance_past_empty_and_deletedEv
pXh:__ZL73g_UnityEngine_TextRenderingModule_Assembly_CustomAttributesCacheGeneratorP21CustomAttributesCache
e3g:__ZNSt3__26__treeINS_12__value_typeIN4core12basic_stringIcNS2_20StringStorageDefaultIcEEEEjEENS_19__map_value_compareIS6_S7_NS_4lessIS6_EELb1EEE13stl_allocatorIS7_L18MemLabelIdentifier6ELi16EEE7destroyEPNS_11__tree_nodeIS7_PvEE
sta:__ZN16ScriptingManager27NativeTypeForScriptingClassE17ScriptingClassPtr
SHg:_otv_x_ux
qEm:_InvalidCastException__ctor_m39A1789B40ED8BB513DF43093F8A4602343DDC44
MPf:__ZNK5physx2Bp18FinalizeUpdateTask7getNameEv
bJg:_get_sfnt_table
Uzr:_Array_InternalArray__get_Item_TisUriScheme_tAC5BAEC36F275C5986740C3BE3FE2BEA8B512BDE_m5DE74EF2861E1A122E6426FE0F3562635B6330CA_gshared
lTo:_StreamingContext_t6B0A404807D43232E95DD1A784BF4BA30FADBCC1_marshal_pinvoke
W0n:_FormatException__ctor_m04A1971496749B738A99FC3EDE3BD629EC3482D3
f4l:__Z128RuntimeInvoker_TrueVoid_tDB81A15FA2AB53E2401A76B745D215397B29F783_OpCode_tFBF4FC2990E657EA00DA0BB36BE0CC73515E6511_RuntimeObjectPFvvEPK10MethodInfoPvPS4_
fVe:__ZN5physx2Gu20registerHeightFieldsEv
cIb:__ZN8Renderer20RendererAddedToSceneEv
Nhb:__ZN6Camera23VirtualRedirectTransferER18StreamedBinaryRead
DQc:__ZL22ScheduleSceneNodesJobsP25ScheduleSceneNodesJobDataj
ig:_emscripten_set_canvas_size
Fah:__ZN15DownloadHandler20InternalGetByteArrayEPS_P21ScriptingExceptionPtr
Qsn:_ScrollRect__ctor_mF52021678539C2E3BDCBF413CB692A9B92A86B01
aYr:_TweenRunner_1_Start_m2CFC7722714F904EC8123AA4B7DCB974E466FD83_gshared
z6c:__ZN12MeshRenderer27PrepareSingleRendererUpdateER13RendererSceneRS_10MemLabelId
W_c:__ZNSt3__26vectorIN9ShaderLab20SerializedSubProgramENS_9allocatorIS2_EEE8__appendEj
cia:__ZN20DynamicHeapAllocatorI17LowLevelAllocatorE8AllocateEji
TXg:__ZN11UnityEngine9Analytics15UserCustomEvent12ToJsonStringER9JSONWrite
QBc:__ZN20DynamicPropertySheet15SetVectorQueuedERKN9ShaderLab16FastPropertyNameERK8Vector4fN19ShaderPropertySheet8SetFlagsE
xQd:__ZN9Scripting19UnityEngineInternal5InputL58__ManagedRegistrationHelperFunction_NativeInputSystemProxyEPv
cU:__ZN7mecanim9animation22EvaluateAvatarRetargetEPKNS0_14AvatarConstantEPKNS0_11AvatarInputEPNS0_12AvatarOutputEPNS0_12AvatarMemoryEPNS0_15AvatarWorkspaceEb
vKj:_Context_UnregisterDynamicProperty_m93B63A27ED27E3F55D08FAA755D118ED3C83D230
tXq:_List_1_Insert_m25B3976E84ED85D40848C6FFFFA63C876A6D6F20_gshared
dSd:__ZL26Transfer_SimpleNativeClassI9JSONWrite10RectOffsetLb0EEvRK29SerializationCommandArgumentsR31RuntimeSerializationCommandInfo
Iwg:__ZNSt3__26vectorI12QuadTreeNodeNS_9allocatorIS1_EEE8__appendEj
eNt:_GC_push_conditional
DWq:_List_1_get_Item_mB29B157BCD2690158B5976A01FC83E2CC855C679_gshared
pAs:_Physics_Internal_RaycastAll_m366801D3E9D3DE8E9A94C5243D1FB2132DFDD851
wYp:_Vector3_GetHashCode_m6C42B4F413A489535D180E8A99BE0298AD078B0B_AdjustorThunk
g4n:_CultureInfo_construct_internal_locale_from_lcid_mD0020513EC356A58D2E2590FA71616E70918EAEE
x4s:__ZN6il2cpp2osL19StatToFileAttributeERKNSt3__212basic_stringIcNS1_11char_traitsIcEENS1_9allocatorIcEEEER4statPSA_
n5i:_InternalEnumerator_1_Dispose_m0FB31857D0AE20FBA6EBF7C8673536223482DC2B_AdjustorThunk
AXr:_U3CStartU3Ec__Iterator0_MoveNext_mB6BE65FBF43A13162E304F0F012BAA539F3D0C9F_gshared
DSg:__Z15GetUIModuleSpecv
tsr:_ReadOnlyCollection_1_System_Collections_IList_Add_m4D939ECC0DF07135BF3CF6DAEF670227F80BE82A_gshared
j5e:__ZN5physx13PxHitCallbackINS_12PxRaycastHitEEC2EPS1_j
jtc:__Z22TextureIdMapGLES_Alias9TextureIDS_
wGd:__Z31Input_CUSTOM_GetMouseButtonDowni
C1a:__ZN18AsyncUploadManager26ScheduleAsyncReadsInternalEv
Grf:__ZNK5physx7NpCloth23getExternalAccelerationEv
lWb:__ZNK9Transform16GetLocalPositionEv
EQb:__ZN13LoadOperation19IntegrateTimeSlicedEi
DAb:__ZN18AsyncUploadManager16QueueUploadAssetEPKcjjjRK18AsyncUploadHandler
uWa:__Z18IsDirectoryCreatedRKN4core12basic_stringIcNS_20StringStorageDefaultIcEEEE
Omc:__ZN13GfxDeviceGLES22DispatchComputeProgramE12ObjectHandleI18ComputeProgram_TagPvE15ComputeBufferIDj
uJt:___cxx_global_var_init_44267
DQk:_InputField_get_text_m83A3F1698F82ECB7B763E786D1FB1F04D767F1E7
wSb:__Z17TransformAABBSlowRK4AABBRK10Matrix4x4fRS_
zQc:__ZN13dynamic_arrayI13ShadowedLightLj0EE4growEv
x7:__ZN24AudioScriptBufferManager27InitialCompleteDomainReloadEv
$6k:__ZN62OpCodes_t68E6B52B0B80EC63090337A0C70E8CD9CC57F560_StaticFields14set_Newobj_114E48OpCode_tFBF4FC2990E657EA00DA0BB36BE0CC73515E6511
yZc:__ZN9ShaderLab21SerializedShaderState8TransferI14SafeBinaryReadEEvRT_
DZt:_ftruncate
OCn:_Text_OnEnable_mE4498B042D13B7E35B9E48161939783671D97260
h8g:__ZN24StaticInitializeInternal13ConstructTypeI22UnityWebRequestManagerLb0EEEPvS2_10MemLabelId
wFg:_cf2_stack_pushInt
GDg:__ZNSt3__26__treeINS_12__value_typeIN20TextRenderingPrivate7FontRefEP11FT_FaceRec_EENS_19__map_value_compareIS3_S6_NS_4lessIS3_EELb1EEENS_9allocatorIS6_EEE7destroyEPNS_11__tree_nodeIS6_PvEE
cYm:_SymmetricTransform_TransformFinalBlock_mDED26C6B19AFF018AC962F86BDF3DB2552041BF7
z4f:__ZNK5physx13NpClothFabric18getParticleIndicesEPjj
Jsb:__ZN15SerializeTraitsINSt3__24pairIN4core12basic_stringIcNS2_20StringStorageDefaultIcEEEES6_EEE8TransferI24GenerateTypeTreeTransferEEvRS7_RT_
arr:_ReadOnlyCollection_1_System_Collections_Generic_IListU3CTU3E_Insert_m87E6547099ED0CA05904A2B0813A6FFEA1E2A272_gshared
SYp:_Vector3_get_left_m74B52D8CFD8C62138067B2EB6846B6E9E51B7C20
TKd:__ZN9JSONWrite8TransferI13dynamic_arrayIN14CrashReporting6ThreadELj0EEEEvRT_PKc17TransferMetaFlags
B_f:__ZN5physx2Cm12DelegateTaskINS_2Sc5SceneEXadL_ZNS3_14postBroadPhaseEPNS_10PxBaseTaskEEEE11runInternalEv
f5t:b81
Xsc:__ZN7ApiGLES19CreateSparseTextureEjj14GraphicsFormatiiiiRiS1_S1_
fua:__ZN18ResourceImageGroup7CleanupEv
vqt:__ZN6il2cpp6icalls8mscorlib6SystemL12AssignSignedIxEEvNS2_17WidenedValueUnionEPv14Il2CppTypeEnumjj
i5t:b84
l5t:b87
oih:__ZL99DebuggerTypeProxyAttribute_t7A09D4C02FB4CE51D29F46C91000F370F4A263BA_CustomAttributesCacheGeneratorP21CustomAttributesCache
FOh:__ZL131GL_t9943600BC77EB1AC120CDD367ADE6F9F23888C99_CustomAttributesCacheGenerator_GL_PushMatrix_mE47A23F3A906899E88AC525FFE2C3C2BD834DFF9P21CustomAttributesCache
rHq:_CameraRefocus_GetFocusPoint_m8FCBC421A76846A436AB9D7BE9855748841BF50F
aPl:_IPv6Address_TryParse_mD57DEB89247C20FF368ED0A4B6DCACDEAE9DEA3D
Rgl:_ParameterInfo_GetPseudoCustomAttributes_m82D0A2CFFD27E5413338481B0F1899FD920D3B20
Snb:__ZN8Playable19SetOutputConnectionEPS_i
Ndb:__Z20RenderMultipleMeshesRK15RenderNodeQueueRK18RenderMultipleData16VertexInputMasks
rt:__ZN14SafeBinaryRead21TransferSTLStyleArrayINSt3__26vectorIN22NavMeshProjectSettings15NavMeshAreaDataENS1_9allocatorIS4_EEEEEEvRT_17TransferMetaFlags
Ah:_glDeleteShader
zpd:__ZN21ScriptingGraphicsCaps21SupportsTextureFormatE13TextureFormat
yJa:__ZN9Scripting11UnityEngine32UnitySynchronizationContextProxy9InitProxyEv
yRa:__ZN9Scripting11UnityEngine12Experimental10PlayerLoop11EarlyUpdate29AnalyticsCoreStatsUpdateProxy9InitProxyEv
Hzb:__ZN6prcoreL17RemapGenericFloatI15TexFormatRGHalf16TexFormatRGFloatEEvPKNS_9InnerInfoE
IHg:_otv_GSUB_validate
LKm:_NumberFormatter_RoundPos_mF8B3BF637A0C4F81C83CB002C19C748678C732E2
z8f:__ZN5physx6shdfnd8PoolBaseINS_10NpMaterialENS0_19ReflectionAllocatorIS2_EEE15disposeElementsEv
BSg:__ZN2UI14CanvasRenderer5ClearEv
$Ga:__ZN9Scripting11UnityEngine12Experimental10PlayerLoop9PreUpdateL59__ManagedRegistrationHelperFunction_CheckTexFieldInputProxyEPv
VIf:__ZN5physx6shdfnd8PoolBaseINS_2Sc5Scene5BlockIhLj128EEENS0_19ReflectionAllocatorIS5_EEE15disposeElementsEv
xHp:_PlayableHandle_GetPlayableType_m962BE384C093FF07EAF156DA373806C2D6EF1AD1
lek:_DateTime_System_IConvertible_ToBoolean_m111177952406970FD75A10F5F956F6894A575673
eA:__GLOBAL__sub_I_Runtime_Animation_3_cpp
z1g:__ZN11UnityEngine15PlatformWrapper20IsRootedOrJailbrokenEv
t5o:_EqualityComparer_1_System_Collections_IEqualityComparer_Equals_m6036C2CEB4F068EAA03C5CACDBB41D259D63DB83_gshared
cik:_ProtectCameraFromWallClip__ctor_mB58901AF4482BE08783EDA14E41754433BC74F68
ksd:__Z27scripting_add_internal_callPKcPKv
VQp:__Z62UnityAction_2_Invoke_m4E5A5335E63C942B335D047296080EB8DA73FB99P55UnityAction_2_t6FF15ABDB8C2C9E1BB0E5A79FEDA471C0679D51F47Scene_t942E023788C2BC9FBB7EC8356B4FB0088B2CFED2S1_PK10MethodInfo
FXp:_Vector2_get_sqrMagnitude_mAEE10A8ECE7D5754E10727BA8C9068A759AD7002
GMd:__ZN9Scripting11UnityEngine15GUIUtilityProxy14MarkGUIChangedEP21ScriptingExceptionPtr
R_f:__ZN5physx2Sc8ClothSim19addCollisionCapsuleEPKNS0_8ShapeSimE
_yt:__GLOBAL__sub_I_GarbageCollector_cpp
h$c:__ZNSt3__26vectorIN9ShaderLab20SerializedSubProgram16SamplerParameterENS_9allocatorIS3_EEE6assignIPS3_EENS_9enable_ifIXaasr21__is_forward_iteratorIT_EE5valuesr16is_constructibleIS3_NS_15iterator_traitsISA_E9referenceEEE5valueEvE4typeESA_SA_
Gzs:_ControllerColliderHit_get_point_m5AE3F967D98ECF24DD99C9F1147489D55BFB2810
B0n:_Double_System_IConvertible_ToSingle_m09CFB2E6352E29A07AF8AF6B9CA62B731328379F_AdjustorThunk
ofs:_WWWTranscoder_ByteSubArrayEquals_m268C2A9B31CCF4D81E7BEEF843DF5D477ECA9958
qZg:__ZN18AnalyticsCoreStats17InitConnectClientEv
jas:_UInt64_ToString_m58FD557196BB2440D450C98FF9DFDF3B310F67CF_AdjustorThunk
Ywg:__ZN29BillboardTreeInstanceRenderer10UpdateWindEv
bE:__ZN26AnimatorControllerPlayable18SetLayerAutoWeightEv
Mb:invoke_vffff
l_t:__ZNSt3__212basic_stringIcNS_11char_traitsIcEENS_9allocatorIcEEEC2ERKS5_jjRKS4_
zug:__ZN14TerrainManager15CullAllTerrainsERK27ScriptableCullingParametersRK17CullingParameters
Ldm:__Z223RuntimeInvoker_TrueVoid_tDB81A15FA2AB53E2401A76B745D215397B29F783_RuntimeObject_Int32_tC16F64335CE8B56D99229DE94BB3A876ED55FE87_SByte_t50B643C59EE66E3364AED19D82E06B27BDE75268_Int32_tC16F64335CE8B56D99229DE94BB3A876ED55FE87PFvvEPK10MethodInfoPvPS4_
QJj:_ConfigHandler_OnEndElement_m144D800525F80CCC122E68E76C0DA09044D5C798
eUg:__ZN2UI14CanvasRenderer12SyncMaterialENS0_8SyncFlagE
I_j:_ArrayListWrapper_CopyTo_mB323B8ACF6EB7C6A4B6D8E4AADF018176220A9D0
nVf:__ZN5physx2Dy15DynamicsContext18setDescFromIndicesERNS_22PxSolverConstraintDescEjRKNS_2IG19SimpleIslandManagerEPjj
FSt:__ZN6il2cpp2vm9Parameter30GetDefaultParameterValueObjectEPK10MethodInfoPK13ParameterInfoPb
BWf:__ZN5physx2Bp13BroadPhaseSap11batchRemoveEv
Urr:_ReadOnlyCollection_1_System_Collections_IList_Remove_m9D63603E417B23C28BA81195D154EB1AFD579841_gshared
RAq:_Array_Sort_TisInt32_tC16F64335CE8B56D99229DE94BB3A876ED55FE87_m0F4AA6120B0F664A3B68130F7C122FD0CF4FE760_gshared
qN:__ZN13dynamic_arrayI11KeyframeTplI8Vector3fELj0EE21resize_buffer_nocheckEj12ResizePolicy
vQd:__ZNSt3__26vectorIhNS_9allocatorIhEEE8__appendEj
KGp:__ZNK70PlayableBinding_t4D92F4CF16B8608DD83947E5D40CB7690F23F9C8_StaticFields21get_DefaultDuration_5Ev
X7q:__Z61Enumerator_MoveNext_mFAB44088609470D4846AE4C8BA145542116F0408P52Enumerator_t066A06872FDFE36439D1E1DB664D3357BAABC962PK10MethodInfo
uof:__ZN5physx2Sc9ActorCoreC2ENS_11PxActorType4EnumEhhhh
G6t:_glBindRenderbuffer__wrapper
bIl:_Plane_Raycast_m04E61D7C78A5DA70F4F73F9805ABB54177B799A9_AdjustorThunk
rDp:_UnmanagedMemoryStream_WriteByte_m069F7A817E682455889A3A7F12FE4A2A63A52588
_fb:__ZN12LightManager28IsLightTransformDataUpToDateEPK5Light
iUn:_DateTimeOffset__ctor_m9D266672B802464403005760BE4F45EAA237C00E_AdjustorThunk
Eyj:_Enumerator_System_Collections_IEnumerator_get_Current_m3BCC08D27313BCAB7CBA0D3F2FD859CF165D3E26_AdjustorThunk
Djb:__ZN14SafeBinaryRead21TransferSTLStyleArrayINSt3__26vectorI4PPtrI23ShaderVariantCollectionE13stl_allocatorIS5_L18MemLabelIdentifier54ELi16EEEEEEvRT_17TransferMetaFlags
K$j:_SynchronizedArrayListWrapper_RemoveAt_m3910288C4D1800A6CE899CCB0D613CB0E164F07A
pJt:__ZN6il2cpp5utils11StringUtils15StringDuplicateEPKDsj
F4d:__Z25UpdateOrbitalAndRadialTplIL27ParticleSystemCurveEvalMode1ELS0_2ELS0_4EEvRK11MinMaxCurveS3_S3_S3_S3_S3_S3_R23ParticleSystemParticlesjjRKN4math8float3x3ERKNS6_7affineXERKNS6_7_float4E
MPr:_Nullable_1_ToString_m192AAC293CB811EB5FE519FD974F7F131138AEEA_gshared
YLi:_StandaloneInputModule_get_inputActionsPerSecond_m410CAC6D0162C2DBCED4D387F1055D4EBFD3B908
T0j:_CaseInsensitiveHashCodeProvider__ctor_m47A7D81ADB44EC9F29AA4321BAEF79F10DE86E82
OSi:_ColorBlock_Equals_m6393CE86568CF89148754BCBB02A6D22D424BFEA
mgc:__Z19scripting_gc_enablev
Uvc:__ZZ23InitPlayerLoopCallbacksvEN41InitializationPlayerUpdateTimeRegistrator7ForwardEv
dqd:__ZN11UTF16StringC2ERKS_10MemLabelId
a4o:_EqualityComparer_1_System_Collections_IEqualityComparer_Equals_mF23FEADFEF1BC7B196A3B29251742CF2927D7B78_gshared
_Vg:__Z55Register_UnityEngine_CanvasRenderer_DisableRectClippingv
Iak:_Convert_ToDecimal_mBDBE303CF23DD76C4B2B9E4B4FC91305E9186440
fHa:__ZN9Scripting11UnityEngine12Experimental10PlayerLoop9PreUpdateL52__ManagedRegistrationHelperFunction_UpdateVideoProxyEPv
ptk:_Antialiasing_OnRenderImage_mAF48D457C5A3109FC4FB62CEE930923DA354D074
$lk:_RigidbodyFirstPersonController_Update_m6794E82CF39949FCA1BB714974F5630F3FE9AC36
SLt:_GC_should_collect
Noi:_RemotingServices_GetProxyForRemoteObject_m715595D2F9BE6C24AF8A273B9D9EF399661EF0C5
_ae:__ZN11ShapeModule8TransferI18StreamedBinaryReadEEvRT_
BJd:__Z40Register_UnityEngine_Sprite_get_verticesv
fPr:_U3CCreateWhereIteratorU3Ec__Iterator1D_1_MoveNext_m4301D4F0E3F820365A873879AE5135FB0833A307_gshared
rbq:_Uri__ctor_m94993D2B7E81FCD4A980C36F246A01A4614950A0
hT:__ZN15PackedIntVector8TransferI19StreamedBinaryWriteEEvRT_
N8e:__ZN5physx2Bp17SimpleAABBManager17reserveShapeSpaceEj
l2:__ZNSt3__27__sort4IRNS_6__lessIN4core12basic_stringIcNS2_20StringStorageDefaultIcEEEES6_EEPS6_EEjT0_SA_SA_SA_T_
Q2t:dynCall_viiiifii
tft:__ZN6il2cpp2gc19AppendOnlyGCHashMapINSt3__24pairIPK11Il2CppImageP11Il2CppClassEEP22Il2CppReflectionModule17ReflectionMapHashIS9_ENS2_8equal_toIS9_EEEC2Ev
Mra:__Z20GetPersistentManagerv
_Mg:_UNITY_TT_Set_Var_Design
qja:__ZN21SystemInfoStringCache16StaticInitializeEPv
rjp:__Z61Enumerator_MoveNext_m6B5BA55A1E77C78E6266DA8FEDDA3512A9D62708P52Enumerator_t87BDC5B449EE91BD72B682EB848367B92AC7A60BPK10MethodInfo
m9e:__ZN5physx2Sc7BodySim18internalWakeUpBaseEf
oAo:_WaitHandle__cctor_m48C71D424213DA53F6B64B8D18725AB1A149529A
fBc:__ZNK20DynamicPropertySheet19HasQueuedPropertiesEv
y_c:__ZNSt3__26vectorIN9ShaderLab20SerializedSubProgram15StructParameterENS_9allocatorIS3_EEE6assignIPS3_EENS_9enable_ifIXaasr21__is_forward_iteratorIT_EE5valuesr16is_constructibleIS3_NS_15iterator_traitsISA_E9referenceEEE5valueEvE4typeESA_SA_
Gbq:_Uri_Parse_m17C7D7554D04AF47A000D1A9731C2867E2F131D2
KAj:_ResourceSet_Dispose_mB31A8726BF31C947E132D4BBB4915E537592A1FE
Gdc:__ZNK13MonoBehaviour7GetNameEv
pNg:_ft_var_load_item_variation_store
xUf:__ZN5physx2Dy15extractContactsERNS_2Gu13ContactBufferERNS_23PxsContactManagerOutputERbS6_RfS7_S7_S7_f
nfo:_ToBase64Transform_TransformBlock_m6CED0B183C8C5D63AE22AF60ED0DEA3AF13E7240
Pzm:_Array_FindLastIndex_TisRuntimeObject_m57639176B145226D7BBF497B2CE61E14A3795A82_gshared
ayt:__ZN15dense_hashtableI10KeyWrapperIP18Il2CppGenericClassES3_N6il2cpp8metadata22Il2CppGenericClassHashEN14dense_hash_setIS3_S6_NS3_14EqualsComparerINS5_25Il2CppGenericClassCompareEEENSt3__29allocatorIS3_EEE8IdentityESA_SD_E6insertERKS3_
Igt:_il2cpp_get_corlib
i_f:__ZN5physx2Sc5Scene26preallocateContactManagersEPNS_10PxBaseTaskE
y4:__Z15_CheckFMODError11FMOD_RESULTPKciS1_
SXm:_SymmetricTransform_InternalTransformBlock_m15DB9E24BC0ADA889EA5EF414C9F2E20D4DAC78B
qKm:__ZNK57NumberFormatter_t68475AD595A7C11B0615994FBA7B580C52E6082419get__decPointPos_18Ev
Hqp:_List_1_System_Collections_IList_set_Item_m311A897483C18A76AA72F2DAC2C449CB76CBF9C3_gshared
$wj:__Z64Enumerator_get_Current_m00E35FD5C158071297A1FFF03670B9BB3EBC0B51P52Enumerator_t651CB08B76D84FE1355D9B3D694FF7F5B7AE7211PK10MethodInfo
hDj:_SafeHandle_Finalize_m45C5A7843F3381EB1E213DA180451C3A6C72F819
nce:__ZN11ShapeModule5ResetEv
sVg:__Z51Register_UnityEngine_CanvasGroup_get_blocksRaycastsv
xyf:__ZN5physx20NpRigidActorTemplateINS_13PxRigidStaticEE15exportExtraDataERNS_22PxSerializationContextE
gUk:_InputField_Delete_m709CE7426C8947964CB842F9FC0B7B2A3372E2FC
AJi:__ZN58PointerEventData_tC18994283B7753E430E316A62D9E45BA6D644C6339set_U3CworldNormalU3Ek__BackingField_16E49Vector3_tDCF05E21F632FE2BA260C06E0D10CA81513E6720
Run:_Scrollbar_UpdateVisuals_m1D878262ED9E2352A223212690C52E8CB6F2FAAB
zcq:_UriParser_CreateDefaults_m2CABED1E4723143115406B5EA352A313325CCB04
wqr:_ReadOnlyCollection_1_System_Collections_Generic_IListU3CTU3E_Insert_mB0AF81640802D1DCE92CA55F1C90B67C03266CD4_gshared
f0t:dynCall_diiii
x5f:__ZN5physx13BigConvexData5VLoadERNS_13PxInputStreamE
_kh:__ZL88DispIdAttribute_t31A32BA1B651C703D7B8BA57A8B79F36304EFC91_CustomAttributesCacheGeneratorP21CustomAttributesCache
cmj:_InternalEnumerator_1_get_Current_m81A453B54DC59AC9B6710A53B756FF2D2F68B81D_AdjustorThunk
yQ:__ZN7mecanim9animation10ValueDelta8TransferI14SafeBinaryReadEEvRT_
sok:_AxisTouchButton_FindPairedButton_mCE61874A535319334AA92437C927F8320B1F0F75
bDs:_TextGenerator_get_rectExtents_m55F6A6727406C54BEFB7628751555B7C58BEC9B1
qMt:_GC_finish_collection
Hue:__ZN10Effector2D25CheckEffectorColliderMaskEP10Collider2DS1_
Uxc:__ZN6Camera12RenderStereoENS_10RenderFlagE8CullFlagPNS_24PerformEyeRenderFunctionE
TVa:__ZN20LocalFileSystemPosix10ToAbsoluteEPKc
q6t:b111
aBo:_TimeSpan_get_TotalDays_mD468143B1A343E15162FE358A0CB58E9106CD2D6
ESb:__Z23CollectSceneGameObjectsR13dynamic_arrayIiLj0EE
cGt:__ZN6il2cpp2vm13ComObjectBase16DisconnectObjectEj
$Zd:__ZN15PolynomialCurve10BuildCurveERK17AnimationCurveTplIfEf
Fkh:__ZL106NeutralResourcesLanguageAttribute_tEEE468D2ADEF798C3138BE5EAEC689B7D40DF82C_CustomAttributesCacheGeneratorP21CustomAttributesCache
Pk:f0
GCs:__Z54List_1__ctor_m4B9E13C91ADA643CE531D7FE21CBC0BD4B8CFAC8P48List_1_t4CE16E1B496C9FE941554BB47727DFDD7C3D9554iPK10MethodInfo
Itl:_InvokableCall_add_Delegate_mCE91CE04CF7A8B962FF566B018C8C516351AD0F3
rcm:__Z128RuntimeInvoker_FalseVoid_tDB81A15FA2AB53E2401A76B745D215397B29F783_SByte_t50B643C59EE66E3364AED19D82E06B27BDE75268_RuntimeObjectPFvvEPK10MethodInfoPvPS4_
_Xt:_getcwd
_ve:__ZN16b2CapsuleContact6CreateEP9b2FixtureiS1_iP16b2BlockAllocator
x8a:__ZN25ThreadsafeLinearAllocatorD2Ev
Vkm:__Z173RuntimeInvoker_FalseMatrix4x4_t6BF60F70C9169DF14C9D2577672A44224B236ECA_Matrix4x4_t6BF60F70C9169DF14C9D2577672A44224B236ECA_Vector4_tD148D6428C3F8FF6CD998F82090113C2B490B76EPFvvEPK10MethodInfoPvPS4_
Vpd:__ZL50GetAndClearChangedTransformsForMultilpleSystemsJobP45GetChangedTransformsForMultipleSystemsJobDatajPK23TransformAccessReadOnlyPKyj
kLf:__ZN5physx2Sq10AABBPruner11preallocateEj
BRb:__Z21SendMessageToEveryoneRK17MessageIdentifier11MessageData
nQj:_ConstructionCall_get_ContextProperties_m4CBF7C9C9DE7524743F21D8C5F393A280B847C25
yya:__ZN21BillboardBatchManager16StaticInitializeEPv
CIp:_Texture2D_get_format_mF0EE5CEB9F84280D4E722B71546BBBA577101E9F
gIc:__ZNK15RenderNodeQueue7GetNodeEj
VHj:_CADObjRef__ctor_mFDBAC73FBFD20B3FF2A1ED9AABD695DD6062D270
MLn:_ContentInfo__ctor_m277A697EBE6210DBBEE7F76A04B3A614CE449584
Cpa:__ZN12_GLOBAL__N_138ArchiveRedirectFileSystemStaticDestroyEPv
rHa:__ZN9Scripting11UnityEngine12Experimental9RenderingL62__ManagedRegistrationHelperFunction_RenderPipelineManagerProxyEPv
Cqj:_InternalEnumerator_1_get_Current_mEF7B8AD5D0D5A4C00F2F72D971875C107A4FF133_AdjustorThunk
MUk:__ZNK52InputField_t533609195B110760BCFF00B746C87D81969CB00521get_m_CaretVisible_54Ev
c_r:_Event_get_type_mAABE4A35E5658E0079A1518D318AF2592F51D6FA
fSt:__GLOBAL__sub_I_Runtime_cpp_45043
dqt:__ZN6il2cpp6icalls8mscorlib6System5Array9GetLengthEP11Il2CppArrayi
qva:__ZN14FileCacherRead7RequestEiiRNS_10CacheBlockEb
Wsc:__Z23CreateSparseTextureGLES9TextureIDii14GraphicsFormati
DCr:_DataController_SaveData_mF73D10FAEA931566920C8DCCB0A7206AE19E8F51
oIg:_otv_Anchor_validate
IIc:__ZNK10RenderNode31GetCustomPropsFromMaterialIndexEi
EUf:__ZN5physx2Dy18getFrictionPatchesERNS0_17CorrelationBufferEPKhjRKNS_11PxTransformES7_f
gMo:_PrimalityTest_BeginInvoke_mF7D52E2A2A3D347F84DCDB33F5BDC4D9D72A349A
CZb:__ZN16MemoryFileSystemD0Ev
vuf:__ZN5physx2Sc9ClothCore16setStretchConfigENS_22PxClothFabricPhaseType4EnumERKNS_20PxClothStretchConfigE
nvq:_Dictionary_2_get_Item_m98F1ECE6D729B7822E988E8F6D5B59D9463CAD84_gshared
mMj:_SynchronizedContextReplySink_AsyncProcessMessage_m6B33E781BAEF93030ECA7B40578C964CEF3D85D0
MOf:__ZN5physx2Gu13SweepGeomGeomINS0_8CapsuleVES2_EEfRKNS0_8CCDShapeES5_RKNS_11PxTransformES8_S8_S8_fRNS_6PxVec3ESA_fRjf
tgg:_PxCreateFoundation
Cre:__ZNK12b2MotorJoint16GetReactionForceEf
zfh:__ZN9Scripting11UnityEngine12Experimental2XR19ReferencePointProxy12CleanupProxyEv
NNs:__ZN6il2cpp2vm5Class15GetEnumBaseTypeEP11Il2CppClass
Dj:_glVertexAttrib4fv
Q0f:__ZN5physx2Cm12DelegateTaskINS_2Sc5SceneEXadL_ZNS3_16lostTouchReportsEPNS_10PxBaseTaskEEEE11runInternalEv
ZJt:__ZNK6il2cpp5utils13VmStringUtils23CaseInsensitiveComparerclERKNSt3__212basic_stringIcNS3_11char_traitsIcEENS3_9allocatorIcEEEEPKc
J5k:__ZN62OpCodes_t68E6B52B0B80EC63090337A0C70E8CD9CC57F560_StaticFields11set_Br_S_42E48OpCode_tFBF4FC2990E657EA00DA0BB36BE0CC73515E6511
clr:_ReadOnlyCollection_1_System_Collections_Generic_ICollectionU3CTU3E_Clear_mF79858FC7357F4BBBA65A1B952919575894E0BE0_gshared
bCb:__ZNK9Texture2D16GetNpotTexelSizeEv
WWa:__ZL33FileEntryInfoListToFolderContentsRKN4core12basic_stringIcNS_20StringStorageDefaultIcEEEERK19dynamic_block_arrayI13FileEntryInfoLj32EERNSt3__23setIS3_NSB_4lessIS3_EENSB_9allocatorIS3_EEEE
eOk:_Image_set_eventAlphaThreshold_mFFEF42F7E06708898D84617AD540C6D07F99F0BC
e3d:__Z20EvaluateSlowThreadedRK11MinMaxCurveRNS_5CacheERKN4math7_float4ES7_
L6q:__Z95Enumerator_System_Collections_IEnumerator_get_Current_m8A16FC8F0125BE1B81EDCF2C0AD352A98644543FP52Enumerator_tED23FAD2E911479CAEF567A4D1DCDB73B5128FB7PK10MethodInfo
PZa:__ZN9GfxDevice22GetDefaultVertexBufferE26GfxDefaultVertexBufferTypej
UIe:__ZN5physx2Gu20intersectRayTriangleERKNS_6PxVec3ES3_S3_S3_S3_RfS4_S4_bf
uqr:_ReadOnlyCollection_1_System_Collections_Generic_ICollectionU3CTU3E_Add_mA8E012734F26B33B3ADE5023EC0A7C3503E612FC_gshared
Awj:_Enumerator_System_Collections_IDictionaryEnumerator_get_Entry_m2DA09D31461C86D90B249B4B92EA20FC031AE4B5_gshared
sKp:_Vector3_Normalize_mDEA51D0C131125535DA2B49B7281E0086ED583DC
rDd:__Z39Register_UnityEngine_GL_ClearWithSkyboxv
TPk:__ZN52InputField_t533609195B110760BCFF00B746C87D81969CB00519set_m_AllowInput_48Eb
BYt:___fseeko_unlocked
Thh:__ZL88DictionaryEntry_t47A30F2C77772C76487031F56F193D810A268E28_CustomAttributesCacheGeneratorP21CustomAttributesCache
xip:_Enumerator_System_Collections_IEnumerator_Reset_m86E6CCDC36548392F3565802C82EA49C61225F43_AdjustorThunk
rYt:_sscanf
NJe:__ZN5physx3Cct17CapsuleControllerC2ERKNS_16PxControllerDescERNS_9PxPhysicsEPNS_7PxSceneE
cMb:__ZN14SafeBinaryRead21TransferSTLStyleArrayINSt3__26vectorI17BlendShapeChannelNS1_9allocatorIS3_EEEEEEvRT_17TransferMetaFlags
YCc:__ZN29RenderNodeQueuePrepareContextD2Ev
Qub:__ZN10SpriteBone8TransferI24GenerateTypeTreeTransferEEvRT_
uXf:__ZN6Region12findOverlapsER15MBP_PairManager
ahn:_ExtendedKeyUsageExtension_Decode_m057362F95CB0194B19569F2EF0F03F584ADCBFDE
Rbk:_Convert_ToSByte_m9E583552072050BA9831E1FFDD6FCEE8A70DBE27
wzg:__ZN9Scripting11UnityEngineL54__ManagedRegistrationHelperFunction_TextGeneratorProxyEPv
bfr:_Collection_1_System_Collections_IList_set_Item_m94B91541879815B483EE1F28CA849DDC974A8DC0_gshared
fV:__ZN7mecanim8skeleton16SkeletonPoseCopyIN4math4trsXENS2_7affineXEEEvPKNS0_13SkeletonPoseTIT_EEPNS5_IT0_EE
ILf:__ZN5physx2Sq16BucketPrunerCore11shiftOriginERKNS_6PxVec3E
Spc:__ZN18GfxFramebufferGLES18GetFramebufferNameERK20GfxRenderTargetSetup
S0i:_ArrayReadOnlyList_1_RemoveAt_m06C17FD80EFDF537D88326121ACB406070F364AF_gshared
CNt:_GC_print_block_list
Wit:__ZN6il2cpp2vm14TypeNameParser12ParseVersionERKNSt3__212basic_stringIcNS2_11char_traitsIcEENS2_9allocatorIcEEEERtSB_SB_SB_
qPr:_Nullable_1__ctor_m76013822874DCED561CAA4F6418BCBE65D273DA7_gshared
ual:_TypeBuilder_GetEvent_m138FCC16E4E652FEAF929032E682DCC04E93C49C
NQa:__ZN9Scripting11UnityEngine12Experimental10PlayerLoop11EarlyUpdate29SpriteAtlasManagerUpdateProxy12CleanupProxyEv
Bub:__Z33BuildLegacyShaderChannelsFromMaskR13dynamic_arrayI17VertexChannelInfoLj0EEj
CJe:__ZN5physx6shdfnd5ArrayINS_12PxDebugPointENS0_19ReflectionAllocatorIS2_EEE15growAndPushBackERKS2_
DDp:_Int16_System_IConvertible_ToDecimal_mBC1096AB3FBDC5CE9861A5F9B9DDA6950A462796
_Vk:__Z29il2cpp_codegen_marshal_stringP8String_t
LXe:__ZN5physx2Gu22pcmContactConvexConvexERKNS0_13GeometryUnionES3_RKNS_11PxTransformES6_RKNS0_17NarrowPhaseParamsERNS0_5CacheERNS0_13ContactBufferEPNS_2Cm12RenderOutputE
mem:__Z209RuntimeInvoker_TrueVoid_tDB81A15FA2AB53E2401A76B745D215397B29F783_Int32_tC16F64335CE8B56D99229DE94BB3A876ED55FE87_Int32_tC16F64335CE8B56D99229DE94BB3A876ED55FE87_Color_t119BCA590009762C7223FDD3AF9706653AC84ED2PFvvEPK10MethodInfoPvPS4_
h1b:__Z22scripting_array_length17ScriptingArrayPtr
BXj:_Convert_ToByte_m106C768A65236A8DB65B59A43E0121FE9C7AC962
$im:__Z179RuntimeInvoker_FalseInt32_tC16F64335CE8B56D99229DE94BB3A876ED55FE87_RaycastResult_t991BCED43A91EDD8580F39631DA07B1F88C58B91_RaycastResult_t991BCED43A91EDD8580F39631DA07B1F88C58B91PFvvEPK10MethodInfoPvPS4_
j4f:__ZN5physx6shdfnd5ArrayINS_22PxClothFabricPhaseType4EnumENS0_19ReflectionAllocatorIS3_EEE8recreateEj
x0e:__ZN8Collider13AwakeFromLoadE17AwakeFromLoadMode
PUb:__ZN19StreamedBinaryWrite8TransferI15ComputeShaderCBEEvRT_PKc17TransferMetaFlags
ffr:_Collection_1_Contains_m6F70F635EAF84EC225889EEA724D10C392433DB1_gshared
uDm:_Array_InternalArray__ICollection_Add_TisRaycastResult_t991BCED43A91EDD8580F39631DA07B1F88C58B91_m4B07C537E767D4387DC47A4D68707387A855AAAE_gshared
IBn:_SpriteState_set_pressedSprite_mD78D10C0B5372329BB042932132416AD812C9BC5
ZYd:__ZN9Scripting11UnityEngine19ParticleSystemProxy9InitProxyEv
_0a:__Z19GetActiveColorSpacev
qJg:_UNITY_tt_face_load_kern
rmq:__Z60Transform_1_Invoke_m9E5CFB3297042034AB5BA9F35BF0F5A2408716EDP53Transform_1_tDCD41BB73BDB077B4400D0CDA28B886646BB1F0551TileCoord_t51EDF1EA1A3A7F9C1D85C186E7A7954535C225BAP12Il2CppObjectPK10MethodInfo
U3t:b35
Fna:__Z6StrCmpPKcS0_
uOp:_RenderTexture__ctor_m0FF5DDAB599ED301091CF23D4C76691D8EC70CA5
u2c:__Z21CheckGpuProgramUsable20ShaderGpuProgramType
h5c:__ZN13ProduceHelperI14Texture2DArrayLb0EE7ProduceE10MemLabelId18ObjectCreationMode
KFt:__ZN6il2cpp2os9Directory20GetFileSystemEntriesERKNSt3__212basic_stringIcNS2_11char_traitsIcEENS2_9allocatorIcEEEESA_iiPi
snf:__ZNK5physx14NpArticulation17releaseDriveCacheERNS_24PxArticulationDriveCacheE
CFe:__ZN5Unity5Joint7SetAxisERK8Vector3f
zJf:__ZN5physx2Sc15SqBoundsManagerD2Ev
_Ag:__ZN20TextRenderingPrivate19NativeTextGenerator5SetupEv
w2s:__ZN6il2cpp6icalls8mscorlib6SystemL12GetFieldImplINS_5utils10functional6FilterINSt3__212basic_stringIcNS7_11char_traitsIcEENS7_9allocatorIcEEEENS4_13VmStringUtils23CaseInsensitiveComparerEEEEEP21Il2CppReflectionFieldP11Il2CppClassiRKT_
Xbl:_MemberFilter_Invoke_m089BE09C95C2DE36A7AE8F81396C81C1EA07CF26
sNc:__ZNK15SharedLightData24GetFinalShadowResolutionEv
F8f:__ZN5physx6shdfnd8PoolBaseINS_16NpConnectorArrayENS0_19ReflectionAllocatorIS2_EEE15disposeElementsEv
Zfg:__ZN14PhysicsManager19CreatePvdConnectionEv
XEd:__Z43Transform_CUSTOM_set_localPosition_InjectedP12Il2CppObjectRK8Vector3f
Kdd:__ZN10GameObject14CopyPropertiesERS_
FPd:__Z44Register_UnityEngine_GUIStyle_get_fixedWidthv
Jpc:_glBlendEquationSeparatei
lBp:_StreamWriter_LowLevelWrite_mA06F89F761F5DB56FFB2CB5DB0942525F44CA96F
dZt:_rand
hmd:__ZN13MeshScripting10CreateMeshE21ScriptingObjectOfTypeI4MeshE
rBl:_Material_SetTextureImpl_mBCF204C1FAD811B00DBAE98847D6D533EE05B135
W3t:b37
VG:__ZN17AnimationPlayable22PrepareAnimationEventsEfR13dynamic_arrayI22AnimationClipEventInfoLj0EE
e2b:__ZN14SafeBinaryRead21TransferSTLStyleArrayINSt3__26vectorI17AnimationCurveTplIfE13stl_allocatorIS4_L18MemLabelIdentifier1ELi16EEEEEEvRT_17TransferMetaFlags
NZs:__ZN6il2cpp2vm13MetadataCache23GetCustomAttributeIndexEPK11Il2CppImagej
sZm:_PKCS12_set_Password_m77631220D946642FEBEDC7FEA721880F6EB3359E
aGe:__ZN9Rigidbody23UpdateInterpolationNodeEv
sPa:__ZN9Scripting11UnityEngine12Experimental10PlayerLoop14PostLateUpdate41EndGraphicsJobsAfterScriptLateUpdateProxy9InitProxyEv
oat:__ZN15dense_hashtableINSt3__24pairIK10KeyWrapperINS1_IPK11Il2CppImageP11Il2CppClassEEEjEES9_17ReflectionMapHashIS8_EN14dense_hash_mapIS9_jSD_NS9_14EqualsComparerINS0_8equal_toIS8_EEEENS0_9allocatorISB_EEE9SelectKeyESI_SK_E12expand_arrayEjN21dense_hash_map_traits17integral_constantIbLb0EEE
OJt:__ZN6il2cpp6icalls8mscorlib6System10ReflectionL40il2cpp_class_get_generic_type_definitionEP11Il2CppClass
z1l:__Z163RuntimeInvoker_FalseSByte_t50B643C59EE66E3364AED19D82E06B27BDE75268_Int32_tC16F64335CE8B56D99229DE94BB3A876ED55FE87_SByte_t50B643C59EE66E3364AED19D82E06B27BDE75268PFvvEPK10MethodInfoPvPS4_
eMc:__Z22PrepareOptimizedPlanesPK5PlaneiPKN4math7_float4E
vya:__ZN17UniqueIDGenerator15CreatePureIndexEv
sLi:_MouseState_AnyPressesThisFrame_m1EAB75B7C05EF268BC2C4606CDE9A10781FE5675
W5q:__Z58Enumerator__ctor_m5062D47A1E31541C155297D59AC2B163A0F67900P52Enumerator_t868738AF389089FC7F20E4A80B7F16BD42D7DD3AP49Queue_1_tC16D8F993D168A41927098BDB292D52D479F20F9PK10MethodInfo
dxm:__Z141PlayableHandle_IsPlayableOfType_TisAnimationMixerPlayable_tA71C834654979CF92B034B537EE5A3DA9713030A_m172B8D6DA48AD49F0740833F7D18CD468B072E5EP56PlayableHandle_t9D3B4E540D4413CED81DDD6A24C5373BEFA1D182PK10MethodInfo
Zak:_Convert_ToInt16_mE1B5B8E4395350017FFD10E796BBDAC48D98940D
s4c:__Z48InitializeRectTransformAnimationBindingInterfacev
GYm:_StrongName_set_RSA_m7A1A8BAC7EF5055FD57796028EFC6C1822168AA1
uXl:_X509Chain_SelectBestFromCollection_m2830E53E5ECE37A36BCB9235714B7CDFE803F6E4
GBf:__ZN5physx7NpScene8addActorERNS_7PxActorE
F7g:__ZN22UnityAnalyticsSettings10SetEnabledEb
myg:__ZN15TerrainCollider22FetchPoseFromTransformEv
a0m:_PKCS12_AddCertificate_m6CFDC8BEBB2917274310611A4A1090AE7A91BE65
jdj:__Z68InternalEnumerator_1__ctor_m4032C56F457C2B0D9FFAA52D6676CBE1C0A90C33P62InternalEnumerator_1_tDD1CDD2B9BB470368DC3DFDFB55ECE967B4B6799P11Il2CppArrayPK10MethodInfo
$Es:_RectTransformUtility_ScreenPointToRay_mB74CED011944E1E7CE3A24C433B9B660C5BADC73
aDq:_PostEffectsHelper_OnRenderImage_m29BE21BE871AFD588D64CE2B6FA023C59E4157A9
Vqb:__ZN9ShaderLabL27GetDesiredRenderTextureDescEPK6Camera
Lre:__ZNK12b2MouseJoint17GetReactionTorqueEf
ixb:__ZN6prcoreL29inner_stretch_rgb565_bilinearEPKNS_9InnerInfoE
lNd:__Z14GUIClipTextureP9Texture2DPhiiii
Aob:__ZN13RenderTexture21FixInvalidDescOptionsER17RenderTextureDesc
wMg:_Direct_Move_X
S6i:_InternalEnumerator_1_System_Collections_IEnumerator_get_Current_m9ECFA153779B69BA34823DFC8B5D39EC76044606_AdjustorThunk
pAc:__ZNK9Transform18TransformDirectionERK8Vector3f
Vak:_Convert_ToInt16_m0B9BF37EF668B3018A29C99DB18DD4CAF0457DFB
r3e:__ZThn12_N5physx3Ext5JointINS_15PxDistanceJointENS_30PxDistanceJointGeneratedValuesEE19onConstraintReleaseEv
$Hg:_otv_MarkLigPos_validate
H_q:_List_1_CheckMatch_m052E2FA149ED3EA98D77C5AAFAC9664BFF0876D2_gshared
XZf:__ZN5physx2IG9IslandSim11wakeIslandsEv
zLe:__ZL29GeomMTDCallback_CapsuleConvexRN5physx6PxVec3ERfRKNS_10PxGeometryERKNS_11PxTransformES5_S8_
jD:__ZN9Scripting11UnityEngine10Animations26AnimationPosePlayableProxy12CleanupProxyEv
axk:__ZN58CameraMotionBlur_tF82F63FD6B834CC3808A243F8D9537907DDB4EA022set_prevViewProjMat_31E51Matrix4x4_t6BF60F70C9169DF14C9D2577672A44224B236ECA
Dwr:_Array_qsort_TisRaycastResult_t991BCED43A91EDD8580F39631DA07B1F88C58B91_m163E0190F6C59E7070CDF4271CC461EBEC149DA5_gshared
wPi:_ColorBlock_get_fadeDuration_m01EEDBB4B16043DC079E5B486CADA136A24BFEA9
_Bs:_GUIText_set_text_m7DAD70F1027748FC4325223B682B57E6808AE523
Kt:__ZNSt3__26vectorIN22NavMeshProjectSettings15NavMeshAreaDataENS_9allocatorIS2_EEE8__appendEj
$Ya:__ZN13dynamic_arrayI9InputAxisLj0EED2Ev
XBm:_Array_compare_TisCustomAttributeTypedArgument_t6BFE31718393511FACDC7899E1E6586C47110B01_m91B7A3A9AAD2164E4E4F41668813A3C6D66D6D13_gshared
Wdb:__Z30AddDefaultStreamsToMeshBuffersR9GfxDeviceR11MeshBuffersj17ShaderChannelMaskS3_
Ioa:__ZL16GetInterfaceImpl18UnityInterfaceGUID
jpo:_ASCIIEncoding_GetDecoder_m51D109C82DF798A61116031472C27654204A5358
Ond:__Z15AngularDistanceRK11QuaternionfS1_
WBt:__GLOBAL__sub_I_BoehmGC_cpp
PJt:__ZN6il2cpp6icalls8mscorlib6System15MonoCustomAttrs27GetCustomAttributesInternalEP12Il2CppObjectP20Il2CppReflectionTypeb
vNg:_UNITY_TT_Set_MM_Blend
kni:_SoapServices_CodeXmlNamespaceForClrTypeNamespace_mFA61BAF067E6EC6505E161A1890200A9893365F3
ys:__ZN13sorted_vectorINSt3__24pairIiN14NavMeshManager15SurfaceInstanceEEEN10vector_mapIiS3_NS0_4lessIiEE13stl_allocatorIS4_L18MemLabelIdentifier78ELi16EEE13value_compareESA_E5eraseENS0_11__wrap_iterIPS4_EE
FHn:_ASN1_Element_m93424AFBA1CBC8857673AFBE7F47BE9AACC77162
hic:__ZN14PreloadManager35WaitForAllAsyncOperationsToCompleteEv
SQs:__ZN13Il2CppHashMapIP9FieldInfoiN6il2cpp5utils11PointerHashIS0_EENSt3__28equal_toIS1_EENS6_9allocatorINS6_4pairIK10KeyWrapperIS1_EiEEEEEC2EjRKS5_RKS8_
pqa:__ZNSt3__26__treeINS_12__value_typeIPKc11ShaderTagIDEENS_19__map_value_compareIS3_S5_27compare_tstring_insensitiveIS3_ELb1EEENS_9allocatorIS5_EEE7destroyEPNS_11__tree_nodeIS5_PvEE
dJo:_SimpleCollator_CompareQuick_m03DABE76931E6CAE351BBC7A9088D915BF56D5E4
u4:__ZL31InitializeAudioScriptingClassesv
Gzc:__Z14SortGUIByDepthP10GUIElementS0_
ojj:_InternalEnumerator_1__ctor_mA2722EAF89890FFCE441394723770814764D39E2_AdjustorThunk
t0d:__Z19UpdateProceduralTplIL27ParticleSystemCurveEvalMode0EEvRK20DualMinMaxPolyCurvesR23ParticleSystemParticlesPfRKN4math7_float4E
vke:__Z16UpdateSpritesTplILN8UVModule8TimeModeE0EL27ParticleSystemCurveEvalMode1EEvfRK11MinMaxCurveS5_RKN4math7_float2ERK23ParticleSystemParticlesPf
Ubc:__Z19TransferField_ArrayI18StreamedBinaryRead16Converter_StringEvRK23StaticTransferFieldInfoR31RuntimeSerializationCommandInfoRT0_
bW:__ZN12_GLOBAL__N_120ProcessRootMotionMixER33AnimationPlayableEvaluationOutputR35AnimationPlayableEvaluationConstantR32AnimationPlayableEvaluationInputS1_f
iLe:__ZN5physx3Cct9SweepTest18updateTouchedGeomsEPKNS0_30InternalCBData_FindTouchedGeomERKNS0_13UserObstaclesERKNS_17PxExtendedBounds3ERKNS_19PxControllerFiltersERKNS_6PxVec3E
bWt:___toread
_Ip:_PropertyName_op_Implicit_mAC7E93673BED899446D260154297F91C8D8EEF78
M0t:dynCall_ii
tbd:__ZZL24RegisterCameraPropertiesR23GenericPropertyBindingTILj16EEEN25Wrapper_CameraFieldOfView13GetFloatValueEPv
tWa:__ZNK20LocalFileSystemPosix21GetAvailableDiskSpaceEPKcRy
Y1:__ZNSt3__26__treeIiNS_4lessIiEENS_9allocatorIiEEE7destroyEPNS_11__tree_nodeIiPvEE
fJi:_PointerEventData_set_pointerCurrentRaycast_m49EA409CDFCDE80E197EF699BDFA76CEBD834CCB
zZa:__ZNK9GfxDevice14GetWorldMatrixEv
Sdb:__Z30ExtractMeshBuffersAndDrawRangeR11MeshBuffersR16DrawBuffersRangeRK9GfxDeviceRK17MeshRenderingData16VertexInputMasksib
eKo:_PreviousInfo__ctor_mC6C9D0A8AA26B7245196CBF6A3D32E8963EBA11A_AdjustorThunk
yYt:___string_read
dpg:__ZNK9Heightmap21BuildHeightmapTextureEiiii
I4k:_OpCode_Equals_m3B6047130E04DB1C4CCBBDE347934D367A8CFBDF
_Ht:__ZN15dense_hashtableINSt3__24pairIK10KeyWrapperIPK19Il2CppGenericMethodEP10MethodInfoEES6_N6il2cpp8metadata23Il2CppGenericMethodHashEN14dense_hash_mapIS6_S9_SD_NS6_14EqualsComparerINSC_26Il2CppGenericMethodCompareEEENS0_9allocatorISA_EEE9SelectKeyESH_SJ_E13set_empty_keyERKSA_
kJa:__Z19scripting_array_new17ScriptingClassPtrjj
U_j:_FixedSizeArrayListWrapper_set_Capacity_mB9CE357517376428D7BBE40101DFFA0E9BA6622C
Loi:_TrackingServices_NotifyUnmarshaledObject_mD187CEA27DBF81432A58309D4BA49971CBF12A93
Y9:__ZN11SoundHandle13CreateChannelEb
GWb:__Z30CreateBoxedObjectFromPrimitivei
DIa:__ZN9Scripting11UnityEngine9RenderingL65__ManagedRegistrationHelperFunction_ReflectionProbeBlendInfoProxyEPv
d$c:__ZNSt3__26vectorIN9ShaderLab20SerializedSubProgram16TextureParameterENS_9allocatorIS3_EEE6assignIPS3_EENS_9enable_ifIXaasr21__is_forward_iteratorIT_EE5valuesr16is_constructibleIS3_NS_15iterator_traitsISA_E9referenceEEE5valueEvE4typeESA_SA_
Tya:__Z30CreateBoxedObjectFromPrimitiveb
wBl:_Material_SetFloat_m4B7D3FAA00D20BCB3C487E72B7E4B2691D5ECAD2
B3m:_AppDomain_InvokeInDomainByID_mD7D7DAACD360663145B4465AB29EA335AC9E6795
vet:__ZN15dense_hashtableINSt3__24pairIK10KeyWrapperIPK22Il2CppGenericParameterEPK24MonoGenericParameterInfoEES6_N6il2cpp5utils11PointerHashIS4_EEN14dense_hash_mapIS6_SA_SF_NS6_14EqualsComparerINS0_8equal_toIS5_EEEENS0_9allocatorISB_EEE9SelectKeyESK_SM_E15set_deleted_keyERKSB_
ZAi:_BaseInput_GetTouch_mE216B2EE2C34A28BA06DF122E1601EE628178A0C
gRo:_ObjectIDGenerator_get_NextId_m28234E83C5306A6164D274D5FD2899BD58E09841
i4h:__ZL84EventSystem_t06ACEF1C8D95D44D3A7F57ED4BAA577101B4EA77_CustomAttributesCacheGeneratorP21CustomAttributesCache
cnb:__ZN6prcoreL11inner_clearILj2EEEvPhjjj
gzm:_Array_InternalArray__IEnumerable_GetEnumerator_TisUriScheme_tAC5BAEC36F275C5986740C3BE3FE2BEA8B512BDE_m1184D2009A144209CBC57BFEDC95A699A8F3B58E_gshared
fse:__ZN12b2WheelJoint24SolvePositionConstraintsERK12b2SolverData
zp:__ZNK14NavMeshManager25GetLoadedNavMeshDataCountEv
huf:__ZNK5physx2Sc9ClothCore20getNbCollisionPlanesEv
Rf:_emscripten_exit_fullscreen
yfh:__ZN9Scripting11UnityEngine12Experimental2XR19ReferencePointProxy9InitProxyEv
Z5f:__ZNK5physx13GuMeshFactory17getNbHeightFieldsEv
RTp:_Texture2D_GetPixels32_mD84F05C717774887B5EF65ADEE82045A3E2FBD75
n$s:_WWW_WaitUntilDoneIfPossible_mBCA182F05B2F71D4F1816951748AFAF1C4FFD5D0
Kcr:_Collection_1_Insert_m58C60116E7E62E08E9EEEBFA2384768800454DDA_gshared
qci:__ZL93ThirdPersonCharacter_tDBFC05073F5B954796E1FBCCC527274B734DE2E0_CustomAttributesCacheGeneratorP21CustomAttributesCache
eIc:__ZN20ShadowCasterSortData21InvalidKeyForBatchingEv
WSm:_ConstructorBuilder_IsDefined_mDEAD0477856ABB02F14DB3597779DBCA7FF2E7C7
YWd:__Z29Transfer_Blittable_ArrayFieldI8JSONRead11QuaternionfEvRT_R9ArrayInfoRK23StaticTransferFieldInfo
VBd:__Z45Register_UnityEngine_Camera_get_targetDisplayv
T9c:__ZNK24RendererAnimationBinding15GenerateBindingERKN4core12basic_stringIcNS0_20StringStorageDefaultIcEEEEbRN11UnityEngine9Animation14GenericBindingE
JKp:_Vector3_op_Addition_m929F9C17E5D11B94D50B4AFF1D730B70CB59B50E
uAp:_StreamReader_FindNextEOL_m998AE50B81D4BAFE155D344DED819E169416D828
vwq:_DefaultComparer_Equals_m37BB858979B22B8D77551D56E68188443A8FD410_gshared
$zc:__Z15GetFlareManagerv
Dld:__ZN4Mesh15AppendTrianglesERNSt3__26vectorIj13stl_allocatorIjL18MemLabelIdentifier1ELi16EEEEjRK13dynamic_arrayI7SubMeshLj0EEPK14SharedMeshDatab
Kj:_llvm_ceil_f32
Fak:_Convert_ToDecimal_m69D291CB318C1732670210845F32408FB4748908
wQd:__GLOBAL__sub_I_InputScriptingClasses_cpp
oHo:_SimpleCollator_GetExtenderType_m25643038771D497A2B51924A8D00C016E57E2E65
_Zj:_ArrayList_AddRange_m522E61A82134111673BBD441083F20D99D37A7E3
JNk:__ZN47Image_t18FED07D8646917E1C563745518CF3DD57FF0B3E30get_address_of_m_FillCenter_35Ev
miq:_ShimEnumerator_get_Value_m516228B84560A4DD8D18F696856693C570F260F9_gshared
rct:__ZN15dense_hashtableINSt3__24pairIK10KeyWrapperINS1_IPK9EventInfoP11Il2CppClassEEEjEES9_17ReflectionMapHashIS8_EN14dense_hash_mapIS9_jSD_NS9_14EqualsComparerINS0_8equal_toIS8_EEEENS0_9allocatorISB_EEE9SelectKeyESI_SK_E12maybe_shrinkEv
w0:__ZN8Animator22ScriptingStringToCRC32ERK11ICallString
dW:__ZN7mecanim9animation16EvaluateAvatarDXEPKNS0_14AvatarConstantEPKNS0_11AvatarInputEPNS0_12AvatarMemoryEPNS0_15AvatarWorkspaceEPNS0_12AvatarOutputE
Qrc:__ZN4gles20DestroyRenderSurfaceEP7ApiGLESP17RenderSurfaceGLES
q9r:_UInt64_System_IConvertible_ToBoolean_mC5B4822502427B3930661390097D9F495D655B21
nAt:__ZN6il2cpp2gcL24ShouldInsertIntoCCWCacheEP12Il2CppObject
uFd:__Z34Transform_CUSTOM_SetAsFirstSiblingP12Il2CppObject
oRp:_SendMouseEvents_HitTestLegacyGUI_mF845548CB3F7DD7C32AEA6AEB9E4EAD9F1A01CF8
Evj:__Z69Enumerator_get_CurrentValue_m141B9413F65375E42A22B6761E8C9F0A96E58FE4P52Enumerator_t72A8231827DB93FC8B25F08FF066377F7B773DA1PK10MethodInfo
Bek:_DateTime_System_IConvertible_ToInt64_m09E49F7DC10390A8A156C2FDAEDF65C5BB7CFC8D
MJn:_MD4Managed_Padding_mAA4560622AEF146F8985BD50E8A0216FDDF1CCBC
jIn:_ARC4Managed_KeySetup_m951BF876274763D36839F3BCF64066A070F8E79C
ZRr:__Z63StaticGetter_1_Invoke_mFA9EC130E64BC487C5CAF59373127D09A8CF1310P56StaticGetter_1_t97AC40F4BE7EB918E8C5B8647DBB60BF0FE27C2FPK10MethodInfo
Oql:_Component_CompareTag_mD074608D7FEC96A53C57A456BA613EE01C31D4B7
rHn:_ASN1_Decode_mB85114EEDD9EFE65BE038D5965EF393E419D2126
x7k:__ZN62OpCodes_t68E6B52B0B80EC63090337A0C70E8CD9CC57F560_StaticFields14set_Newarr_138E48OpCode_tFBF4FC2990E657EA00DA0BB36BE0CC73515E6511
shm:__Z330RuntimeInvoker_FalseInt32_tC16F64335CE8B56D99229DE94BB3A876ED55FE87_VoidU2A_t8A995245462F8BDC7319CC68F09ACF295FDD2879_VoidU2A_t8A995245462F8BDC7319CC68F09ACF295FDD2879_VoidU2A_t8A995245462F8BDC7319CC68F09ACF295FDD2879_Single_tF2613CF3F3AF0E8BEBC3CE8AD41479C44E6075DB_VoidU2A_t8A995245462F8BDC7319CC68F09ACF295FDD2879_RuntimeObjectPFvvEPK10MethodInfoPvPS4_
xoc:__ZN13TranslateGLES4InitERK12GraphicsCaps16GfxDeviceLevelGL
chr:_Collection_1_IsSynchronized_mD13DFA4CFAC330787B18D8D03540B9A9E07AF6CE_gshared
EYn:_Decimal_GetHashCode_m5DA44C4F42E640B93947810C11D31EC1BDA21F92_AdjustorThunk
v1e:__ZThn4_N12MemoryStream4readEPvj
Onq:__Z89Enumerator_System_Collections_IEnumerator_Reset_m63503F884A8ECCB15B3A49C12E5ACDA2CCC7E2FEP52Enumerator_tEAA30391AD3B522BB475B8C0E5FA9974F0E2386FPK10MethodInfo
Nqj:_InternalEnumerator_1_get_Current_m8013C9B8C6E372A3DF717A62801354C35B3D54FB_gshared
T0o:_RNGCryptoServiceProvider_Check_m9AEF9F2746A3B7BA0C93439C9FF10D3E7D8BCDF9
Duq:_Dictionary_2_GetObjectData_m244E43F8573EA77CD92D1C7A896A0F9FAF04D54C_gshared
DTp:_Texture_CreateNonReadableException_m66E69BE853119A5A9FE2C27EA788B62BF7CFE34D
i3:__ZN9Scripting11UnityEngine14AudioClipProxy9InitProxyEv
Mhn:_SubjectAltNameExtension_Decode_m95318214FA4B14BC025A012E64377DFB0C64E906
GLk:_GridLayoutGroup_set_constraintCount_mD5543F4340EF0EB00A858CDAA20133980A618535
QDg:__ZN20TextRenderingPrivate7GUIText23VirtualRedirectTransferER17RemapPPtrTransfer
a$q:_List_1_get_Item_mAC7E894471054D056D6CC62A0AE862D24F58D84A_gshared
qbe:__ZN12LightsModule8TransferI18StreamedBinaryReadEEvRT_
oTt:__ZN6il2cpp2os6Memory12AlignedAllocEjj
D$i:_U3CGetEnumeratorU3Ec__Iterator0_System_Collections_IEnumerator_get_Current_m23087049329964AF3807D413F5AE4C555023D7AA_gshared
J8a:__ZN25ThreadsafeLinearAllocator18OverflowDeallocateEPv
tim:__Z230RuntimeInvoker_FalseRuntimeObject_Vector3_tDCF05E21F632FE2BA260C06E0D10CA81513E6720_Vector3_tDCF05E21F632FE2BA260C06E0D10CA81513E6720_Single_tF2613CF3F3AF0E8BEBC3CE8AD41479C44E6075DB_Int32_tC16F64335CE8B56D99229DE94BB3A876ED55FE87PFvvEPK10MethodInfoPvPS4_
HTd:__ZN9JSONWrite8TransferI13dynamic_arrayIN4math12int3_storageELj0EEEEvRT_PKc17TransferMetaFlags
wVj:_Boolean_System_IConvertible_ToSingle_m1A15CA85FCFF13EC976AF33C165C4FCBC0F98CD1_AdjustorThunk
eLo:_Kernel_LeftShift_m77529D210846C21B0D1F837DF0535AE03A0EEC1F
k5m:_Array_SetValue_mEFEEAB4BF6597735BE4DE63B161D59DDC1587D9C
U6s:__ZN15dense_hashtableINSt3__24pairIK10KeyWrapperINS1_IPK9FieldInfoP11Il2CppClassEEEjEES9_17ReflectionMapHashIS8_EN14dense_hash_mapIS9_jSD_NS9_14EqualsComparerINS0_8equal_toIS8_EEEENS0_9allocatorISB_EEE9SelectKeyESI_SK_E9copy_fromERKSN_j
wVe:__ZL23intersectHeightFieldBoxRKN5physx2Gu20HeightFieldTraceUtilERKNS0_3BoxE
iC:__ZN9Scripting11UnityEngineL50__ManagedRegistrationHelperFunction_HumanBoneProxyEPv
b2a:__ZN21ScalableBufferManager11GetInstanceEv
aed:__ZN18BackgroundJobQueue19ScheduleJobInternalEPFvPvES0_RKNS_8JobFenceEN8JobQueue16JobQueuePriorityE
vSf:__ZN5physx2Dy23writeBackContactCoulombERKNS_22PxSolverConstraintDescERNS0_13SolverContextERNS_16PxSolverBodyDataES7_
kmg:__Z54Register_UnityEngine_CharacterController_Move_Injectedv
x4n:_NumberFormatInfo_get_InvariantInfo_mB5781B6509DA05F501160E9F2E75796BA9A25AA6
yec:__ZN9Scripting36IsSystemCollectionsGenericDictionaryE17ScriptingClassPtr
lYt:___ofl_unlock
Jai:__ZL145Graphic_tBA2C3EF11D3DAEBB57F6879AB0BB4F8BD40D00D8_CustomAttributesCacheGenerator_Graphic_OnPopulateMesh_m601B30C623889357FC8682C241FC1A853FAA8CB1P21CustomAttributesCache
Mjf:__ZN5physx12NpConstraint12actorDeletedEPNS_12PxRigidActorE
rbh:__Z54Register_UnityEngine_Networking_UnityWebRequest_Createv
hWj:_Byte_System_IConvertible_ToChar_m5F1671D33933A6A6D3DB6E2090AE8E4136A54AC9
Zua:__ZL16ReadTypeTreeImplILb0EEbR8TypeTreeRK16TypeTreeIteratorRPKhS6_i
Axp:_ReadDelegate_Invoke_mA5B176649EE77E77536FD708E1B4A1798310EE36
DY:__ZN25RuntimeAnimatorControllerD2Ev
BAt:___cxx_global_var_init_43667
A8e:__ZN5physx2Sc8ShapeSim18reinsertBroadPhaseEv
wmb:__ZNK22BuiltinResourceManager21GetResourceInstanceIDEPKN5Unity4TypeERKN4core12basic_stringIcNS4_20StringStorageDefaultIcEEEE
fdg:__ZN5physx2Gu8AABBTreeD2Ev
ODd:__Z42Register_UnityEngine_RectOffset_set_bottomv
XWt:_fstat
kPd:__Z28GUIStyleState_CUSTOM_CleanupP12Il2CppObject
Hrr:_ReadOnlyCollection_1_System_Collections_Generic_ICollectionU3CTU3E_Remove_m41A7011A870A77E639DAB6F127ACB6DC743E4190_gshared
qCc:__ZN28LightProbeProxyVolumeContext8CopyFromERKS_
tRj:_EnvoyTerminatorSink_SyncProcessMessage_m35716EC1140BB04395F8DA52E9665CD0136AE4BD
Lfm:__Z193RuntimeInvoker_FalseRuntimeObject_RuntimeObject_Int32_tC16F64335CE8B56D99229DE94BB3A876ED55FE87_VoidU2A_t8A995245462F8BDC7319CC68F09ACF295FDD2879_SByte_t50B643C59EE66E3364AED19D82E06B27BDE75268PFvvEPK10MethodInfoPvPS4_
OUl:_X509Certificate2_Find_mE07E2AFF694B4D8B17CD0F14B8F7AB37FB56760B
Pdd:__ZN23TransformChangeDispatch32QueueTransformChangeIfHasChangedER18TransformHierarchy
g$l:__Z115RuntimeInvoker_TrueInt32_tC16F64335CE8B56D99229DE94BB3A876ED55FE87_Single_tF2613CF3F3AF0E8BEBC3CE8AD41479C44E6075DBPFvvEPK10MethodInfoPvPS4_
Q9i:_InternalEnumerator_1_MoveNext_mE10355E7FA5D1A1A865E884FCD8350F8E0CF9AFB_AdjustorThunk
Mxq:_Array_InternalArray__ICollection_CopyTo_TisVector4_tD148D6428C3F8FF6CD998F82090113C2B490B76E_m7AAE9B0522AA3A5592E4AB82B06644F70F12193D_gshared
Wgl:_ParameterModifier_t8441DD80841BDDAAB0E4AC40DF62B202B485572D_marshal_pinvoke_back
z3a:__ZN4core8hash_setINS_4pairIKN19RenderBufferManager7Buffers3KeyEPNS3_11BufferEntryELb0EEENS_9hash_pairINS3_9KeyHasherES5_S7_EENS_10equal_pairINSt3__28equal_toIS4_EES5_S7_EEE4growEi
Rrc:__ZN7ApiGLES18DeleteRenderbufferERj
Laf:__ZN5physx6shdfnd5ArrayIPvNS0_15InlineAllocatorILj256ENS0_19ReflectionAllocatorINS_16NpConnectorArrayEEEEEE15growAndPushBackERKS2_
TLc:__ZNK15SharedLightData21GetCotanHalfSpotAngleEv
kkc:__ZN7ApiGLES13CreateTextureEjj14GraphicsFormatiiiii
VAq:_Array_Sort_TisRuntimeObject_TisRuntimeObject_m5281C8A51D6690212E39BD426746FF738CB1B23A_gshared
xgn:_TlsStream_ReadInt24_mE7CF1B1F9E9B9008A1D240AE4338EC27C522847C
K_c:__ZN9ShaderLab20SerializedSubProgram15MatrixParameter8TransferI14SafeBinaryReadEEvRT_
glo:_Single_System_IConvertible_ToDecimal_mB6B5E12396870F17490BE4C11886FF6A44F14F0E_AdjustorThunk
OIb:__ZN4core8hash_mapIiN28ReflectionProbeAnchorManager16CachedAnchorDataENS_4hashIiEENSt3__28equal_toIiEEEixERKi
YWg:__Z46Register_UnityEngine_Canvas_set_sortingLayerIDv
PQa:__ZN9Scripting11UnityEngine12Experimental10PlayerLoop11EarlyUpdate33ScriptRunDelayedStartupFrameProxy12CleanupProxyEv
pwm:_Array_InternalArray__ICollection_Remove_TisOrderBlock_t3B2BBCE8320FAEC3DB605F7DC9AB641102F53727_mEA1527C29AAD9988E02883BD4FF7448407C323A8_gshared
frd:__ZL27GetComponentsImplementationILb0ELi1EEbR10GameObjectbRK17CompareParametersRK39GetComponentsImplementation_ReturnValue
dhn:_ExtendedKeyUsageExtension_Encode_mC322CD871FBBA1DDE8E9D63DEA002D83B2F0EEE7
dZs:__ZN6il2cpp2vm13MetadataCache40AddThreadLocalStaticOffsetForFieldLockedEP9FieldInfoiRKNS_2os12FastAutoLockE
Qdg:__ZN5physx12storeIndicesEjjPKjRNS_14PxOutputStreamEb
Mib:__ZN13RenderTexture7ReleaseEv
hMa:__ZN9Scripting11UnityEngine12Hash128Proxy12CleanupProxyEv
aUd:__Z18Transfer_BlittableI8JSONReadLb1EN4math12int3_storageEEvRK29SerializationCommandArgumentsR31RuntimeSerializationCommandInfo
uNb:__ZN10MeshFilter23VirtualRedirectTransferER14SafeBinaryRead
NZl:__Z279RuntimeInvoker_FalseSByte_t50B643C59EE66E3364AED19D82E06B27BDE75268_VoidU2A_t8A995245462F8BDC7319CC68F09ACF295FDD2879_RuntimeObject_VoidU2A_t8A995245462F8BDC7319CC68F09ACF295FDD2879_SByte_t50B643C59EE66E3364AED19D82E06B27BDE75268_VoidU2A_t8A995245462F8BDC7319CC68F09ACF295FDD2879PFvvEPK10MethodInfoPvPS4_
wfh:__ZN9Scripting11UnityEngine12Experimental2XR16TrackableIdProxy9InitProxyEv
YN:__ZN7mecanim9animation18ClipMuscleConstant8TransferI8BlobSizeEEvRT_
syb:__ZN6prcoreL19RemapGenericIntegerI17TexFormatRGBA888817TexFormatARGB1555EEvPKNS_9InnerInfoE
zal:_TypeBuilder_GetMethodsByName_mE43651EF23B4DE3D49934C3C345161866453B746
_Jb:__ZN12MeshRenderer17MainThreadCleanupEv
SAf:__ZN5physx2Sc19ConstraintGroupNode18initProjectionDataEPS1_PNS0_13ConstraintSimE
m$r:_GUIStyle_SetMouseTooltip_Injected_m292443679DFA66800CA706CF3DA947365C1D46D7
cHq:_AutoMoveAndRotate_Update_m44F810AC8C62BB1447FBB7431767314B5A993700
M4a:__ZN22CreateGpuProgramOutput12CreateParamsEv
HXq:_List_1_get_Item_mFEB8126CE0335A2D500921D9BFF2AAA82B094C77_gshared
XBc:__ZN12fixed_bitsetILi256EjE5resetEj
xq:__Z23ReplacePathStartReverseR13dynamic_arrayIyLj0EEPKyi
D4q:_List_1_set_Capacity_mB10E9D15BA8100F3FE635663CB14EEA4FBC41B86_gshared
joc:__ZNK14GfxContextGLES13GetDefaultFBOEv
uVj:_Boolean_System_IConvertible_ToSingle_m1A15CA85FCFF13EC976AF33C165C4FCBC0F98CD1
qbh:__Z67Register_UnityEngine_Networking_UnityWebRequest_GetHTTPStatusStringv
xLt:_GC_promote_black_lists
CIk:_GraphicRegistry_RegisterGraphicForCanvas_mDD9DCBA00CC415C35567519A6108E8CADCB73F56
bjk:_FirstPersonController__ctor_mA8FDBF9E4C98257CE5D79462D6E0BD2A5E822534
tLt:_GC_unix_get_mem
sAd:__Z55Register_UnityEngine_MonoBehaviour_StopCoroutineManagedv
r1n:_Enum_System_IConvertible_ToBoolean_mA07450E3937171D76D9A76FD991B4C3A9216F6F7
PYh:__ZL112AnimatorTransitionInfo_t66D37578B8898C817BD5A5781B420BF92F60AA6B_CustomAttributesCacheGenerator_m_NormalizedTimeP21CustomAttributesCache
ejd:__Z13GetImagePixelI10ColorRGBAfET_PKhii13TextureFormat15TextureWrapModeS5_ii
xKo:_BigInteger_op_Equality_m286DCEB2B422ED23693E9B27E60FDBA7804084AB
kCc:__ZN19SharedRendererSceneC2E10MemLabelId
ukt:__ZN6il2cpp2vm6Thread49CheckCurrentThreadForInterruptAndThrowIfNecessaryEv
mRn:_Context_get_Protocol_m988562C19E70B03AC77AE95F3F65D95E6C4D9C50
lkc:__ZNK13TranslateGLES25GetTextureTargetDimensionEj
zjf:__ZN5physx11NpAggregate22removeActorAndReinsertERNS_7PxActorEb
XHp:_PlayableOutputHandle_Equals_m1FCA747BC3F69DC784912A932557EB3B24DC3F18
qrp:_List_1_get_Item_m2217EF6BD2F86767B03A620FE6B70712B37388AA_gshared
Zna:__ZN9profiling27GetBuiltinCategoryRgbaColorEt
izl:_Graphics_DrawMeshNow_m65719727D0812E6140C9DC6AF4A7BDBB72B69FD0
Uuo:_UTF7Encoding__cctor_m5ECCE72BB2A653225A3B592C1B75421F4B3A2299
Mla:__ZN9Scripting12LogExceptionE21ScriptingExceptionPtriPKcb
ZIm:_MulticastNotSupportedException__ctor_mBE56F47667F4735906B1EF8965A7823A6276133E
Fcj:_InternalEnumerator_1_Dispose_mFD28DC6DC86484EDAD34F52367090C132F4EB705_AdjustorThunk
k2n:_Enum_GetHashCode_m6CD8D8FE28B8C5B9A6AFCDAE2B77ADF15ABC942C
UWp:__Z55Queue_1__ctor_m1D0B3CE530D0868FE6EC47C9DEB8597E35F1FA02P49Queue_1_t5013087B759B43C61E25C7F29059343AA2B85B7AiPK10MethodInfo
QQa:__ZN9Scripting11UnityEngine12Experimental10PlayerLoop11EarlyUpdate32ResetFrameStatsAfterPresentProxy9InitProxyEv
feq:_UriScheme_tAC5BAEC36F275C5986740C3BE3FE2BEA8B512BDE_marshal_pinvoke
p3b:__ZN14SafeBinaryRead21TransferSTLStyleArrayI13dynamic_arrayIN4math12int3_storageELj0EEEEvRT_17TransferMetaFlags
cbc:__Z19TransferField_ArrayI18StreamedBinaryRead27Converter_UnityEngineObjectEvRK23StaticTransferFieldInfoR31RuntimeSerializationCommandInfoRT0_
gWi:_Dropdown_get_options_m936486EEAB117AAB3539EE9443D9EB099EDEE9FD
OIc:__Z33GenerateShadowCasterPartsSortDataRK16ShadowCasterDataRK15RenderNodeQueueRK13dynamic_arrayI20ShadowCasterPartDataLj0EERK10Matrix4x4fRjP20ShadowCasterSortDatab
RHk:_LayoutRebuilder_MarkLayoutRootForRebuild_mD80599A1B79ED484A44A602D0F13DFE487826414
GDo:_Type_GetConstructor_m8C7720752B5AF95F62F1EC13772DA210E4FD59C7
SMm:_ObjectDisposedException_GetObjectData_mBAD4ED0400FCCBACC59BB9F9F577FABE0AC487E4
FDs:_UIVertex__cctor_m86F60F5BB996D3C59B19B80C4BFB5770802BFB30
lrs:_SkeletonBone_tCDF297229129311214294465F3FA353DB09726F5_marshal_pinvoke
M7e:__ZN5physx9NpDestroyERNS_3Scb4BaseE
taq:_CapturingGroup_CompareTo_m267744317C742C47164795DD93087873F4CDA4A0
Smf:__ZN5physx14NpArticulation26setMaxProjectionIterationsEj
rIe:__ZN5physx3Cct15ObstacleContext14removeObstacleEj
qvg:__ZN17TerrainRenderData10GetPatchIBEi
DPg:__ZNK13TextRendering4Font10GetDynamicEv
r$a:__ZN9GfxDevice18SetGlobalDepthBiasEff
a2s:__ZN6il2cpp6icalls8mscorlib6System8MonoType12get_AssemblyEP20Il2CppReflectionType
cZh:__ZL151Animator_tF1A88E66B3B731DDA75A066DBAE9C55837660F5A_CustomAttributesCacheGenerator_Animator_ResetTriggerString_m31B233F948D7551D220FEDA56B002E6724B89851P21CustomAttributesCache
aad:__Z16BuildLineSegmentILb0EEvjRPhRKN4math8float4x4EPK15LineBuilderDataRKfSA_11ColorRGBA32
jZq:_List_1_System_Collections_IList_get_Item_m32DA45880899919C147163F6F665D31DF0FD8043_gshared
zfb:__ZN14SharedMeshData22ClearCachedBoneWeightsEv
dnk:_ThirdPersonCharacter_UpdateAnimator_mC272514ED58AEBB87D237EDCCA54120AF6DF5894
qgd:__ZN6Camera14SetCullingMaskEj
cAj:__Z69Enumerator_get_CurrentValue_m86FF31AC572A873D15339719BA72C5CA1BC54A6FP52Enumerator_t2EDE6E26336E2877DCC9EE6FEB16C78BB83848B4PK10MethodInfo
MV:__ZN8Animator22ApplyBuiltinRootMotionEv
iad:__Z14BezierExtractUfff
rhc:__Z26ApplyMaterialPassWithCacheRK18SharedMaterialDataR17ShaderPassContextP6ShaderPN9ShaderLab4PassEibPKNS6_10GrabPassesEPNS6_11SubProgramsEPK22DeviceRenderStateBlock
_Ij:_ConfigHandler_ReadCustomProviderData_m0B43E30093C79E20E5DEA4A3EE387A0EB0831820
Rst:__ZN15dense_hashtableINSt3__24pairIK10KeyWrapperIP14Il2CppIUnknownEjEES5_N6il2cpp5utils11PointerHashIS3_EEN14dense_hash_mapIS5_jSB_NS5_14EqualsComparerINS0_8equal_toIS4_EEEENS0_9allocatorIS7_EEE9SelectKeyESG_SI_E9copy_fromERKSL_j
sip:__Z64Enumerator_VerifyState_m82C28E2CF79747048202F8D371DCB853EECF0EE2P52Enumerator_t149A6AE504D5614BADD02839DC89FA009066E5A9PK10MethodInfo
Dmo:_String_ToCharArray_m47C6D1E43E15D362FF13821E3D3E5F6BDC3F8548
xtp:_IOException__ctor_mCDF114913C2BAE93390F9E429B640C1C225AD28F
p4i:_InternalEnumerator_1_System_Collections_IEnumerator_get_Current_m572F4B0C82889EEA1844600252476510128023E8_gshared
jBo:_TimeSpan_Add_mF7C09140E12342517AFE1BD59C90A4863C773E5B
ctt:__ZN30dense_hashtable_const_iteratorINSt3__24pairIK10KeyWrapperIP14Il2CppIUnknownEjEES5_N6il2cpp5utils11PointerHashIS3_EEN14dense_hash_mapIS5_jSB_NS5_14EqualsComparerINS0_8equal_toIS4_EEEENS0_9allocatorIS7_EEE9SelectKeyESG_SI_EppEv
cfr:_Collection_1_Add_mDCE7C90A449E8A9C4C8DA35DF70DE4FAAD56BCDC_gshared
WHb:__ZN8Renderer23VirtualRedirectTransferER14SafeBinaryRead
tw:__ZNSt3__27__sort5IR17DetailNodeXSorterP16DetailMeshBVNodeEEjT0_S5_S5_S5_S5_T_
Zch:__ZN9Scripting11UnityEngine5Video20VideoTimeSourceProxy9InitProxyEv
WHd:__Z51BuiltinRuntimeReflectionSystem_CUSTOM_BuiltinUpdatev
Ltf:__ZN5physx2Sc9ClothCore16setRestPositionsEPKNS_6PxVec4E
mNs:__ZN6il2cpp2vmL15GetBitmapNoInitEP11Il2CppClassPjRjj
yhe:__ZL17DrawMeshParticlesILb0EL25ParticleSystemRenderSpace2EEvRK26ParticleSystemTempMeshDataRK22ParticleSystemTempDataRK23ParticleSystemParticlesRK31ParticleSystemParticlesTempDataRK26ParticleSystemRendererDataRK21ParticleSystemModulesPfPv
FAf:__ZN5physx2IG19SimpleIslandManager19setEdgeDisconnectedEj
iXc:__ZL13MotionHandleriPK27EmscriptenDeviceMotionEventPv
Twi:_ObjectWriter_WriteObjectInstance_m350EEE4CBF7D048E0533669B7A16FE6E56EBC038
Okn:_X509Certificate_VerifySignature_mF6D0E716CB53B02BA479E1020A91431F2422FA25
Y3:__ZN12AudioManager5ResetEv
G0f:__ZN5physx2Sc16ShapeInteraction16managerLostTouchEjbRNS_31PxsContactManagerOutputIteratorEb
Tzb:__ZN6prcoreL17RemapGenericFloatI17TexFormatRGBAHalf15TexFormatRGHalfEEvPKNS_9InnerInfoE
xdq:_Uri_get_AbsoluteUri_m37247BEBAC92BE67B2C93653120447E7A94977C6
O9m:_TlsStream_get_EOF_m5719875373D828BD352DF49CBD59046211E0E0FF
xGt:__ZN6il2cpp6icalls8mscorlib6System11Environment20GetWindowsFolderPathEi
Fxi:__ZNK62OpCodes_t68E6B52B0B80EC63090337A0C70E8CD9CC57F560_StaticFields11get_Call_39Ev
VH:__ZN7mecanim5human18HumanPoseBlendNodeERNS0_9HumanPoseEPS1_f
ncm:__Z118RuntimeInvoker_FalseVoid_tDB81A15FA2AB53E2401A76B745D215397B29F783_Matrix4x4_t6BF60F70C9169DF14C9D2577672A44224B236ECAPFvvEPK10MethodInfoPvPS4_
zGg:_UNITY_FT_RoundFix
r2q:_List_1_set_Capacity_m2565820CCB1FC20DE32835C30A37C29C3ED5B945_gshared
vbf:__ZN5physx2Sc11InteractionC2ERNS0_8ActorSimES3_NS0_15InteractionType4EnumEh
d0m:_PKCS12_RemoveCertificate_mD1D994377A35713F980CD30367679E56DC864A3C
N0h:__ZL161PhysicsScene2D_t02226E33FC79959E70471E2B0D79962926C80F58_CustomAttributesCacheGenerator_PhysicsScene2D_Raycast_Internal_mB24F5D2B6967C70371484EA703E16346DBFD0718P21CustomAttributesCache
B5f:__ZNK5physx12PxConvexMesh19getConcreteTypeNameEv
aKb:__ZNK12MeshRenderer22GetTypeVirtualInternalEv
$gp:__Z64Enumerator_get_Current_m589A863F9363E3542C5C4F08D16FED5EDAD600C7P52Enumerator_t6531B5E96B654E45481DEA67A901A531DC9EFA8APK10MethodInfo
KJf:__ZN5physx2Cm8PoolListINS_17PxsContactManagerENS_10PxsContextEED2Ev
gRl:_WebRequest_AddDynamicPrefix_m2AD26D8B9C9626EE9D0A409823CE8C049C005DF6
A4r:_GUISkin_get_error_m40FBD0C57353CBFD8EE75B796E3EADBF9033C47F
i7:__ZN4FMOD6System17setSoftwareFormatEi17FMOD_SOUND_FORMATii18FMOD_DSP_RESAMPLER
Loh:__ZL100SecurityPermissionAttribute_tDEB3070C5619A253A2885E13545D4C1ACDD4DACA_CustomAttributesCacheGeneratorP21CustomAttributesCache
Lpt:__ZN6il2cpp6icalls8mscorlib6System9Threading6Thread15Thread_internalEP12Il2CppThreadP14Il2CppDelegate
_ol:_Camera_WorldToViewportPoint_m20C50DA05728A82BCDE98CBED34841BA6FB0EA59
Srb:__ZN14SafeBinaryRead19TransferSTLStyleMapINSt3__23mapIN4core12basic_stringIcNS3_20StringStorageDefaultIcEEEES7_NS1_4lessIS7_EE13stl_allocatorINS1_4pairIKS7_S7_EEL18MemLabelIdentifier1ELi16EEEEEEvRT_17TransferMetaFlags
jUg:__ZN2UI6Canvas27UpdateEventIndexesRecursiveERi
$Ut:__ZN6il2cpp5utils9PathUtils15PathNoExtensionERKNSt3__212basic_stringIcNS2_11char_traitsIcEENS2_9allocatorIcEEEE
XHt:__ZNSt3__218uninitialized_copyIPNS_4pairIK10KeyWrapperIPK19Il2CppGenericMethodEP10MethodInfoEESB_EET0_T_SD_SC_
vnt:__ZN15dense_hashtableINSt3__24pairIK10KeyWrapperINS1_IP11Il2CppClassjEEES4_EES6_N6il2cpp8metadata14ArrayClassHashEN14dense_hash_mapIS6_S4_SB_NS6_14EqualsComparerINSA_17ArrayClassCompareEEENS0_9allocatorIS8_EEE9SelectKeyESF_SH_E15insert_noresizeERKS8_
POf:__ZN5physx2Gu13SweepGeomGeomINS0_8CapsuleVENS0_11ConvexHullVEEEfRKNS0_8CCDShapeES6_RKNS_11PxTransformES9_S9_S9_fRNS_6PxVec3ESB_fRjf
Dq:__ZNK12NavMeshQuery9GetUpAxisEyP8Vector3f
iah:__ZN16UploadHandlerRaw13TransmitBytesEPvjj
h5k:__ZN62OpCodes_t68E6B52B0B80EC63090337A0C70E8CD9CC57F560_StaticFields14set_Ldarg_S_14E48OpCode_tFBF4FC2990E657EA00DA0BB36BE0CC73515E6511
gXo:_CryptoConfig_EncodeLongNumber_m22C7CBF179361A6BFDCA2D562E8A39964A33A755
Elb:__ZN24GenerateTypeTreeTransfer8TransferI13dynamic_arrayI8Vector3fLj0EEEEvRT_PKc17TransferMetaFlags
yUh:__ZL146Graphics_t6FB7A5D4561F3AB3C34BF334BB0BD8061BE763B1_CustomAttributesCacheGenerator_Graphics_Blit_m9614A3F7FBE034123F456D0294946BDE9E4F78D8____pass3P21CustomAttributesCache
iZo:_DSAParameters_t322B4D908CBCE910F4F7F452CF2A4B1164CEE719_marshal_pinvoke_back
Uon:_VertexHelper_Clear_m811CC2BB4DBD7778A9708FCEE04BAA2107721BD7
pyl:_GameObject_SetActive_m25A39F6D9FB68C51F13313F9804E85ACC937BC04
cup:_Path_GetPathRoot_m694DC1DA5A9B381C9DC0E38D22E04772A824D599
o0d:__Z17GenerateRandomNx3RKN4math5_int4E
zAt:__ZN15dense_hashtableINSt3__24pairIK10KeyWrapperIP12Il2CppObjectEN6il2cpp2gc9CachedCCWEEES5_NS7_5utils11PointerHashIS3_EEN14dense_hash_mapIS5_S9_SD_NS5_14EqualsComparerINS0_8equal_toIS4_EEEENS0_9allocatorISA_EEE9SelectKeyESI_SK_E11set_deletedER30dense_hashtable_const_iteratorISA_S5_SD_SM_SI_SK_E
kdf:__ZN5physx2Sc8ShapeSimC2ERNS0_8RigidSimERKNS0_9ShapeCoreE
sz:__ZNK12NavMeshQuery19GetPolyWallSegmentsEyPK11QueryFilterP8Vector3fPyPii
g7p:_CaptureAssertion_set_CapturingGroup_mF86876BEBB492786910A1F7C6F2619FC18868BC8
_2p:_InterpreterFactory_NewInstance_mB94C126C32E519B0D7164451E97B25A33015B1A1
QTd:__Z35Transfer_Blittable_FixedBufferFieldI8JSONReadiEvRK29SerializationCommandArgumentsR31RuntimeSerializationCommandInfo
Nag:__ZN5physx13ConvexHullLib19shiftConvexMeshDescERNS_16PxConvexMeshDescE
Ege:__ZN22ParticleSystemRenderer16UpdateCachedMeshEv
G2:__ZN20DiagnosticSwitchEnumI23FMODDebugDisplayOptionsE18SetValueFromStringEPKc
u_g:__ZN11UnityEngine9Analytics14DataDispatcher26PrepareDataBlockToDispatchEjjRN4core13StringBuilderEPNS2_12basic_stringIcNS2_20StringStorageDefaultIcEEEE
E_s:_RemoteSettings_RemoteSettingsUpdated_mD5427A08A622FDAA576A3D9CF05AD4C7CC6102F5
yLo:_ModulusRing_Multiply_m781F629C03D33B3AF2F95AFCFE7B5D9F9A65717B
hlq:_Transform_1_BeginInvoke_m28DDF8DE28C358F7F8C582FBA9A6F78C473186E0_gshared
zmo:_String_Equals_m22974087D0D49C79C57816308007E68C5FF4311E
kae:__ZN12LightsModule8TransferI24GenerateTypeTreeTransferEEvRT_
MIb:__ZN28ReflectionProbeAnchorManager18RemoveCachedAnchorERK4PPtrI9TransformE
iFs:_RectTransformUtility__cctor_m1DCF0D49797698D7D4FBF3EF83B5DEC9A5F42851
PUc:__ZN13sorted_vectorINSt3__24pairIN4core12basic_stringIcNS2_20StringStorageDefaultIcEEEEPK17MessageIdentifierEEN10vector_mapIS6_S9_NS0_4lessIS6_EENS0_9allocatorISA_EEE13value_compareESF_E10insert_oneERKSA_
cns:_AudioSource_Play_m442DC027196BE23536B5806E13B2F9D6D1A2ED74
ZDp:_Int16_CompareTo_mE65F884DF3358B1EA474F510FCEC640CC800B5E7
Iyt:___cxx_global_var_init_43560
gQc:__Z59ProcessShadowCasterNodeVisibilityAndCullWithoutUmbra_KernelILN17CullingParameters9LayerCullE2ELi12EEvR9IndexListRKS0_PK12LODDataArrayPK9SceneNodePK4AABBjjPKN4math7_float4E
H$c:__Z14resize_trimmedINSt3__26vectorIN9ShaderLab18SerializedPropertyENS0_9allocatorIS3_EEEEEvRT_j
Tso:_Encoding_get_UTF8Unmarked_m4C24793758B288125361C675FFCE73A163BC9DD3
Fps:_AnimationRemoveScalePlayable__cctor_m7BA13559FDA2BF8E061839B333085C402DED6829
Hzf:__ZN5physx6shdfnd8PoolBaseINS_2Sc9ActorPairENS0_19ReflectionAllocatorIS3_EEE12allocateSlabEv
AWs:__ZN6il2cpp2vm13MetadataCache38GetMethodInfoFromMethodDefinitionIndexEi
fAd:__Z39MonoBehaviour_CUSTOM_GetScriptClassNameP12Il2CppObject
nrr:_ReadOnlyCollection_1_System_Collections_IList_Insert_m24FD3BA40647183494FB82E6BD40DF3F6BEFC7D3_gshared
vKs:_NativeMethodAttribute_set_HasExplicitThis_mA955027BB50011811A96125CB83F88BB9BD61F1D
NCo:_Type_get_IsExplicitLayout_m86FF4B006FD0BC5C716736F6D852F8AE672498D5
Neh:__ZN9Scripting11UnityEngine12Experimental2XR33XRRaycastSubsystemDescriptorProxy12CleanupProxyEv
Vrg:__ZN14DetailDatabase15ValidateDetailsEv
FPa:__ZN9Scripting11UnityEngine12Experimental10PlayerLoop14Initialization18XREarlyUpdateProxy12CleanupProxyEv
Sub:__ZN10VertexData8TransferI24GenerateTypeTreeTransferEEvRT_
sao:__ZN6Guid_t9set__k_10Eh
_Fa:__ZN9Scripting11UnityEngine12Experimental10PlayerLoop14PostLateUpdateL59__ManagedRegistrationHelperFunction_DirectorLateUpdateProxyEPv
Xdm:__Z177RuntimeInvoker_FalseSByte_t50B643C59EE66E3364AED19D82E06B27BDE75268_PropertyName_t75EB843FEA2EC372093479A35C24364D2DF98529_PropertyName_t75EB843FEA2EC372093479A35C24364D2DF98529PFvvEPK10MethodInfoPvPS4_
OYk:_FieldBuilder_GetValue_mA684B32001D17C4E0C8FAEF9F9F727A9ED6FEA1E
Qna:__ZN24ProfilerCallbacksHandler22CreateCategoryCallbackEtPv
T9l:__Z157RuntimeInvoker_FalseSByte_t50B643C59EE66E3364AED19D82E06B27BDE75268_RuntimeObject_RuntimeObject_RuntimeObject_Int32_tC16F64335CE8B56D99229DE94BB3A876ED55FE87PFvvEPK10MethodInfoPvPS4_
Tum:_Array_InternalArray__ICollection_Contains_TisParameterModifier_t8441DD80841BDDAAB0E4AC40DF62B202B485572D_m45FC743943BD2779F77560CFBD8D316F3D5A8391_gshared
tqs:_AnimatorStateInfo_IsName_mD133471910C1ACE0979F3FD11462C9B8BB24CA96
qIa:__ZN9Scripting11UnityEngineL53__ManagedRegistrationHelperFunction_PropertyNameProxyEPv
jJ:__ZN7mecanim12statemachine20GetBlendTreeConstantERKNS0_13StateConstantEi
Q$r:_GUIStyle_get_none_m2B48FA4E2FA2B9BB7A458DF25B1391F9C7BB8B7B
YBf:__ZN5physx7NpScene21setDominanceGroupPairEhhRKNS_20PxDominanceGroupPairE
f6t:_glBindVertexArray__wrapper
did:__Z40GetTemporaryCachePathApplicationSpecificv
XZa:__ZN9GfxDevice16EndAsyncJobFrameEv
tDe:__ZZN16PhysicsManager2D10InitializeEvEN42FixedUpdatePhysics2DFixedUpdateRegistrator7ForwardEv
Nde:__ZN11NoiseModuleD0Ev
jJg:_UNITY_tt_face_load_hhea
w7:__ZN12AudioManager27InitialCompleteDomainReloadEv
ff:___syscall3
cxt:___cxx_global_var_init_1_43527
qf:___syscall6
kf:___syscall4
yNk:_Image_set_type_mE931CE3DC1C447C31D794025BF0AEE9DEA9049A4
vvl:_UnityEventBase_UnityEngine_ISerializationCallbackReceiver_OnAfterDeserialize_m3A87E89948C5FF32BD5BA1BDD1A4D791738A141E
BMc:__Z3Absf
Ydl:_MonoEvent_GetAddMethod_m0A7FD9826FFBF604507F55A18E58B1FEA0C4DF78
rie:__Z14UpdateSheetTplILN8UVModule8TimeModeE1EEvRKS0_RK23ParticleSystemParticlesPf
bnk:_ThirdPersonCharacter_ScaleCapsuleForCrouching_m42D1C41C017639D32B6D321CAA7DD6F51C784652
lAt:__ZN6il2cpp2vm3RCW14QueryInterfaceILb1EEEP14Il2CppIUnknownP15Il2CppComObjectRK10Il2CppGuid
BBs:_Rigidbody_AddTorque_Injected_mBD4EFD1DF707E92D237322E8A48B5827D3E8AD6B
RGb:__ZN14SafeBinaryRead21TransferSTLStyleArrayI13dynamic_arrayI33EnlightenTerrainChunksInformationLj0EEEEvRT_17TransferMetaFlags
KC:__ZN9Scripting11UnityEngine30RuntimeAnimatorControllerProxy9InitProxyEv
Yrk:_TiltInput_OnDisable_m0F36896B54606F0BC508088C39406383B73C3A85
xjm:__Z172RuntimeInvoker_FalseVoid_tDB81A15FA2AB53E2401A76B745D215397B29F783_RuntimeObject_RuntimeObject_Vector2_tA85D2DD88578276CA8A8796756458277E72D073D_RuntimeObject_RuntimeObjectPFvvEPK10MethodInfoPvPS4_
ysd:__ZN9Scripting25BroadcastScriptingMessageER10GameObjectPKc18ScriptingObjectPtr
lWa:__ZNK20LocalFileSystemPosix6ExistsERK13FileEntryData
ooi:__Z9NullCheckPvP19Il2CppSequencePoint
Hhk:_FreeLookCam_FollowTarget_m578017EE6358A6D1B39928A9B91535E1B4C722A3
dei:__ZL112FirstPersonController_t6EAFDD1A926C6721BC6C33DC8725222DBBB2F0B3_CustomAttributesCacheGenerator_m_RunstepLenghtenP21CustomAttributesCache
ncf:__ZN5physx35NpArticulationJointGetBodiesFromScbERNS_3Scb17ArticulationJointERPNS0_4BodyES5_
G1:__ZN9Scripting11UnityEngine35AssetBundleRecompressOperationProxy9InitProxyEv
V4f:__ZNK5physx2Sc15ClothFabricCore16getTetherLengthsEPfj
Gfp:_Enumerator_VerifyState_m85C51015F89DEC2E3BEFCDA4981016875A8A6112_AdjustorThunk
zSj:_MethodCall_InitDictionary_mE423283E0160D14C5AFB040D499024209910ED7E
Jps:_AnimatorControllerPlayable_SetHandle_m2CAE8DABC4B19AB6BD90249D0D7FC7A9E07C3A96
KHk:_LayoutRebuilder_MarkLayoutForRebuild_m7E400684496267636B78BDE1512E5723EE118DC9
YTf:__ZN5physx2Dy15DynamicsContext21integrateCoreParallelERNS0_18SolverIslandParamsERNS_2IG9IslandSimE
xSe:__ZN5physx2Gu25sweepBoxTriangles_PreciseEjPKNS_10PxTriangleEbRKNS_13PxBoxGeometryERKNS_11PxTransformERKNS_6PxVec3EfRNS_10PxSweepHitEPKjfNS_7PxFlagsINS_9PxHitFlag4EnumEtEE
S2p:_IntStack_t1716D1B970D9D96F49C07E230CFA994086B6F83D_marshal_pinvoke_back
sGf:__ZN5physx2Sc13ConstraintSim8getForceERNS_6PxVec3ES3_
tym:_Array_InternalArray__IEnumerable_GetEnumerator_TisBoolean_t92E4792324DA9B716F339A3B965A14965E99A4EF_mBF04BDA5E528D6AFF20745B873CD5E22A08DE0D7_gshared
mWo:_SByte_ToString_mFB82E3CADEB7A80A38E8701EB7859AC2655424D3
$Dk:_GlobalFog__ctor_mD73E49E106C6522D501AB6F9E4E77B1F67C6B286
W0c:__ZN15SerializeTraitsI13dynamic_arrayIN9ShaderLab21SerializedBindChannelELj0EEE8TransferI19StreamedBinaryWriteEEvRS3_RT_
_Pa:__ZN9Scripting11UnityEngine12Experimental10PlayerLoop11FixedUpdate24NewInputFixedUpdateProxy9InitProxyEv
S0:__ZNSt3__26vectorIN4core12basic_stringIcNS1_20StringStorageDefaultIcEEEE13stl_allocatorIS5_L18MemLabelIdentifier1ELi16EEE21__push_back_slow_pathIS5_EEvOT_
KNc:__ZN17CallbackArrayBaseIPFvPK9IndexListPK16RendererCullDataEPFvPKvS2_S5_EE10MoveFowardEj
mat:__ZN15dense_hashtableINSt3__24pairIK10KeyWrapperINS1_IPK11Il2CppImageP11Il2CppClassEEEjEES9_17ReflectionMapHashIS8_EN14dense_hash_mapIS9_jSD_NS9_14EqualsComparerINS0_8equal_toIS8_EEEENS0_9allocatorISB_EEE9SelectKeyESI_SK_E5clearEv
e4d:__Z25UpdateOrbitalAndRadialTplIL27ParticleSystemCurveEvalMode4ELS0_3ELS0_2EEvRK11MinMaxCurveS3_S3_S3_S3_S3_S3_R23ParticleSystemParticlesjjRKN4math8float3x3ERKNS6_7affineXERKNS6_7_float4E
kLe:__ZN5physx15PxGeometryQuery18computePenetrationERNS_6PxVec3ERfRKNS_10PxGeometryERKNS_11PxTransformES6_S9_
vjk:__ZN63FirstPersonController_t6EAFDD1A926C6721BC6C33DC8725222DBBB2F0B316set_m_Jumping_32Eb
AKj:_Context_GetClientContextSinkChain_m0B8BB22F080207886CBC2FAE771012D780349113
ku:__ZNK12NavMeshQuery14RetracePortalsEiiPKyiRK8Vector3fPS2_PhPyi
PSq:_WaterTile_AcquireComponents_m0FCA43E79CD9E4552BDAE60ED8BBA2797E02EBCF
l1g:__ZN11UnityEngine15PlatformWrapper30GetGraphicsDriverLibraryStringEv
I8b:__ZL17Transfer_GUIStyleI19StreamedBinaryWriteLb1EEvRK29SerializationCommandArgumentsR31RuntimeSerializationCommandInfo
WWd:__ZN8JSONRead8TransferI13dynamic_arrayI10ColorRGBAfLj0EEEEvRT_PKc17TransferMetaFlagsb
edt:__ZN6il2cpp2vm10Reflection27GetCustomAttributesCacheForEPK12PropertyInfo
hTf:__ZN5physx2Dy25solveContact_BStaticBlockEPKNS_22PxSolverConstraintDescEjRNS0_13SolverContextE
slr:_ReadOnlyCollection_1_System_Collections_IList_RemoveAt_mA810EF429E97FC62231770890B37E9F7B4D75963_gshared
A_:__ZN16MecanimAnimation24DeleteAnimatedPropertiesERP26IAnimatedPropertyEvaluator
rvn:_ScrollRect_OnEnable_mC7A1135ADBEDC351D8AA7690A7F68F839B23FD31
Aun:_ScrollRect_UpdateScrollbars_m60756E79515458D8471A0628DFC01B95C1CD05AE
gut:___cxx_global_var_init_43411
I$o:_RC2_set_KeySize_mA127F54AD2F80C2DD0235A5D6180A36345A7551B
Y9d:__ZN11ColorModule8TransferI24GenerateTypeTreeTransferEEvRT_
wxc:__Z14DrawGUITextureRK5RectTIfEP7Texture11ColorRGBA32P8Materiali
mJl:_DictionaryNode__ctor_m2E5768B5F0A560D414CBCC7093726E9EBF357F45
RDp:_Int16_System_IConvertible_ToType_mF74803A51A67D06F459C5E5D372DE3C62B8CA836
nKf:__ZN5physx6shdfnd8PoolBaseINS_2Sc16ShapeInteractionENS0_19ReflectionAllocatorIS3_EEE15disposeElementsEv
Tqg:__ZNSt3__26vectorI15DetailPrototypeNS_9allocatorIS1_EEE26__swap_out_circular_bufferERNS_14__split_bufferIS1_RS3_EE
yGd:__Z30Input_CUSTOM_GetTouch_InjectediR5Touch
fsq:_Dictionary_2_GetObjectData_m5EDE89D539E3D98DDF85FE14E88BC080C9487853_gshared
Bqb:__ZNK15PlayableMethods18InvokeProcessFrameER18ScriptingObjectPtrRK9HPlayableP18ScriptingFrameDataRK9FrameData
wU:__ZN9BlobWrite8TransferI22OffsetPtrArrayTransferIKN4math7_float4EEEEvRT_PKc17TransferMetaFlags
hho:_SecurityElement_AddAttribute_m5AC89DAB8DBD6F9983071BEF572AFA023DC9CC72
Epb:__ZN15TextureSettings8TransferI24GenerateTypeTreeTransferEEvRT_
o6k:__ZN62OpCodes_t68E6B52B0B80EC63090337A0C70E8CD9CC57F560_StaticFields15set_Ldind_I8_75E48OpCode_tFBF4FC2990E657EA00DA0BB36BE0CC73515E6511
zTd:__ZN9JSONWrite8TransferI4AABBEEvRT_PKc17TransferMetaFlags
LSf:__ZN5physx2Dy20solve1DConcludeBlockEPKNS_22PxSolverConstraintDescEjRNS0_13SolverContextE
NZc:__ZN15dense_hashtableINSt3__24pairIKiN4core17string_with_labelILi1EEEEEi18SInt32HashFunctionN14dense_hash_mapIiS5_S7_NS0_8equal_toIiEE13stl_allocatorIS6_L18MemLabelIdentifier1ELi16EEE9SelectKeyESA_SD_E12expand_arrayEjN21dense_hash_map_traits17integral_constantIbLb0EEE
iBm:_Array_InternalArray__IndexOf_TisResourceInfo_t5A62A359608C2B68963B18537C38DA5B091DCD2A_mD9F5265B16484E15763D689BA375F00BA747D615_gshared
Vle:__Z17UpdateSprites2TplILN8UVModule8TimeModeE0EL27ParticleSystemCurveEvalMode0ELS2_3EEvRKfRK11MinMaxCurveS7_RKN4math7_float2ERK23ParticleSystemParticlesPf
Lwr:_Array_qsort_TisUIVertex_t0583C35B730B218B542E80203F5F4BC6F1E9E577_m5EAE3D61D747C62724A42873820D968F542FB04F_gshared
kNn:_CipherSuite_get_HashSize_m1EC5A5618D4A3ED5745EB43FB1BFA9C3308BD65F
CZj:_ArrayList_Add_mF11B75DEBCA3B80E5EBA3E55EBA28AF00A3746A2
G1f:__ZNK18ScBeforeSolverTask7getNameEv
a5d:__Z25UpdateOrbitalAndRadialTplIL27ParticleSystemCurveEvalMode2ELS0_1ELS0_2EEvRK11MinMaxCurveS3_S3_S3_S3_S3_S3_R23ParticleSystemParticlesjjRKN4math8float3x3ERKNS6_7affineXERKNS6_7_float4E
Sw:__ZN12CrowdManager11AddObstacleEv
TBb:__ZNK9Texture2D20GetRuntimeMemorySizeEv
T0:__ZN11Marshalling39CreateNullExceptionForUnityEngineObjectE18ScriptingObjectPtr
vnn:_MaskableGraphic_Cull_m209520B58633A44E70B3176331B78B8F60D19066
GXd:__ZN5Unity9rapidjson13GenericReaderINS0_4UTF8IcEES3_13JSONAllocatorE9ParseTrueILj0ENS0_19GenericStringStreamIS3_EENS0_15GenericDocumentIS3_S4_S4_EEEEvRT0_RT1_
uDt:__ZN6il2cpp2gc16GarbageCollector16InvokeFinalizersEv
iKn:_PKCS1_Sign_v15_mCB0FB3B3EFA485FBCEE3D3C05D458BE5FE20A11B
ILe:__ZL33GeomMTDCallback_ConvexHeightFieldRN5physx6PxVec3ERfRKNS_10PxGeometryERKNS_11PxTransformES5_S8_
Wdh:__ZN9Scripting11UnityEngine12Experimental2XRL61__ManagedRegistrationHelperFunction_MeshVertexAttributesProxyEPv
fck:_Convert_ToUInt16_m4DE21C00FDBDB719E0130C07023B8DEBD6FBC3B1
_Bg:_UNITY_FT_Outline_Transform
tTp:_Texture_get_height_m3A004CD1FA238B3D0B32FE7030634B9038EC4AA0
Eid:__ZNSt3__26vectorI5RectTIfENS_9allocatorIS2_EEE8__appendEj
XNs:__ZN6il2cpp2vm5Class10GetMethodsEP11Il2CppClassPPv
zUr:__Z62UnityAction_1_Invoke_m8578C957C3D624151400EA7EA338CC2B264B1E07P55UnityAction_1_t165A85D76DD50555D047430B93585BEA771B782F47Color_t119BCA590009762C7223FDD3AF9706653AC84ED2PK10MethodInfo
zEc:__Z30AddDefaultStreamsToMeshBuffersR9GfxDeviceR11MeshBuffersRK16DrawBuffersRange17ShaderChannelMaskS6_
rrc:__ZN7ApiGLES17DeleteFramebufferERN2gl6HandleILNS0_10ObjectTypeE9EEES3_
Otc:__ZN15UniformTFMethod13MapBoneBufferEj
lC:__ZN9Scripting11UnityEngineL62__ManagedRegistrationHelperFunction_StateMachineBehaviourProxyEPv
iSg:__ZN2UI14CanvasRendererD2Ev
keh:__ZN9Scripting11UnityEngine12Experimental2XRL56__ManagedRegistrationHelperFunction_XRMeshSubsystemProxyEPv
tBd:__Z45Register_UnityEngine_Camera_set_nearClipPlanev
zzj:_Enumerator__ctor_mA73EC124A51DEB6600E285BC080B821784526661_AdjustorThunk
B3s:__ZN6il2cpp6icalls8mscorlib6SystemL23GetPropertiesByNameImplINS_5utils10functional6FilterINSt3__212basic_stringIcNS7_11char_traitsIcEENS7_9allocatorIcEEEENS4_13VmStringUtils21CaseSensitiveComparerEEEEEP11Il2CppArrayPK10Il2CppTypejRKT_
iqt:__ZN6il2cpp6icalls8mscorlib6System5Array8SetValueEP11Il2CppArrayP12Il2CppObjectS5_
Ilo:_Single_CompareTo_mD6B3FCC448417749656CEC2E14D5CA918BCA08E3
rgs:_UnityWebRequest_Post_mEC355EABB9732DF41AD216DB863EEB2A06AC4C87
Oft:__ZN15dense_hashtableINSt3__24pairIK10KeyWrapperINS1_IPK9EventInfoP11Il2CppClassEEEjEES9_17ReflectionMapHashIS8_EN14dense_hash_mapIS9_jSD_NS9_14EqualsComparerINS0_8equal_toIS8_EEEENS0_9allocatorISB_EEE9SelectKeyESI_SK_E15set_deleted_keyERKSB_
q6h:__ZL101ColorBlock_t93B54DF6E8D65D24CEA9726CA745E48C53E3B1EA_CustomAttributesCacheGenerator_m_ColorMultiplierP21CustomAttributesCache
Nhc:__Z9SetupArgviPPKc
Zzq:_Array_InternalArray__set_Item_TisRaycastHit_t19695F18F9265FE5425062BBA6A4D330480538C3_m7BB00B5CAF93C2BD0AD5C1B4F26610F77041D8A1_gshared
e6j:_SortedList_System_Collections_IEnumerable_GetEnumerator_mE51E3AEA549D3435B5464C724C762FC664B96D1F
kxn:_Selectable_InternalEvaluateAndTransitionToSelectionState_m5B2218BC4398EF690E0D1273B3D082FF6937FDD5
$ct:__ZN6il2cpp2vm10Reflection7IsFieldEP12Il2CppObject
YDa:__ZN9Scripting11UnityEngine7AndroidL51__ManagedRegistrationHelperFunction_PermissionProxyEPv
f6p:_PatternCompiler_NewLink_m19DB7700041A7600F3CE7B1C0335854085F76D79
byo:_TimeSpan_get_TotalMilliseconds_m6FCFB10E10EC10CB931DD128A8593F9620186C5C
fom:__Z177RuntimeInvoker_FalseInt32_tC16F64335CE8B56D99229DE94BB3A876ED55FE87_SByte_t50B643C59EE66E3364AED19D82E06B27BDE75268_SByte_t50B643C59EE66E3364AED19D82E06B27BDE75268_RuntimeObjectPFvvEPK10MethodInfoPvPS4_
dwb:__ZN12CubemapArray23VirtualRedirectTransferER24GenerateTypeTreeTransfer
Cva:__ZN12FileAccessor4OpenER15FileSystemEntry14FilePermission16FileAutoBehavior
plh:__ZL89_ConstructorInfo_tA8AD53E1F1DCAD9FA8EAC5D8C825A3229D63CF13_CustomAttributesCacheGeneratorP21CustomAttributesCache
JFt:__ZN6il2cpp2os9Directory6CreateERKNSt3__212basic_stringIcNS2_11char_traitsIcEENS2_9allocatorIcEEEEPi
MWa:__ZN19dynamic_block_arrayI13FileEntryInfoLj32EED2Ev
h5p:_Enumerator_System_Collections_IEnumerator_get_Current_m43C00527EB49326945F2A4ED4E2226C59B301EA3
zSe:__ZL19sweepBoxVsTrianglesjPKN5physx10PxTriangleERKNS_2Gu3BoxERKNS_6PxVec3EfRNS_10PxSweepHitENS_7PxFlagsINS_9PxHitFlag4EnumEtEEbPKj
rdo:_SHA512_Create_m6436DE30E798B4C4EA18C1342A29E9BE570053FD
Bab:__ZN23TransformChangeDispatch32QueueTransformChangeIfHasChangedERK15TransformAccess
F5e:__ZN9Rigidbody18AddForceAtPositionERK8Vector3fS2_i
wNo:_DSAManaged__ctor_mAE1E7D69AF6D628DFCC031FD3047686B398D5B22
uYk:_LayoutRebuilder_U3CStripDisabledBehavioursFromListU3Em__1_mB3FC59921ACDA12A0005AC6B8E06D575FF8493BE
LCi:_EventSystem_get_current_m3151477735829089F66A3E46AD6DAB14CFDDE7BD
Nue:__ZN22WorldContactListener2D8PreSolveEP9b2ContactPK10b2Manifold
Ulm:__Z209RuntimeInvoker_TrueVoid_tDB81A15FA2AB53E2401A76B745D215397B29F783_SByte_t50B643C59EE66E3364AED19D82E06B27BDE75268_SByte_t50B643C59EE66E3364AED19D82E06B27BDE75268_Int32_tC16F64335CE8B56D99229DE94BB3A876ED55FE87PFvvEPK10MethodInfoPvPS4_
_Tr:_InvokableCall_4_Invoke_mD4E37C63A12BF191FB3D4178A8CF7B2DF4F92FD2_gshared
G5a:__ZN18GlslGpuProgramGLES18CompileProgramImplERjRKN4core12basic_stringIcNS1_20StringStorageDefaultIcEEEES7_S7_S7_S7_R17ShaderChannelMaskij
MLa:__ZN9Scripting11UnityEngine25ManagedStreamHelpersProxy9InitProxyEv
x:tempValue
i4k:_MonoWin32Resource_tB534786235BD6A3F2D3F4867D1C3018892F05833_marshal_pinvoke
lyc:__ZN6Camera21RenderODSWorldTextureERK11CullResultsRK19SharedRendererSceneR17ShaderPassContextNS_10RenderFlagE
wgn:_TlsStream_get_Length_mC1EF708E6D135E878087C91553405EC01ABF91F6
DI:__ZN27AnimationLayerMixerPlayable16ProcessAnimationEP35AnimationPlayableEvaluationConstantP32AnimationPlayableEvaluationInputP33AnimationPlayableEvaluationOutput
nma:__Z29scripting_class_from_fullnamePKcS0_S0_
IIa:__ZN9Scripting11UnityEngineL51__ManagedRegistrationHelperFunction_ResolutionProxyEPv
v3i:__Z68InternalEnumerator_1__ctor_m6A446C20BBB40551BA63634221922810ABEB2A1FP62InternalEnumerator_1_t693B5B0FD372F6E600CB4ED34320C177B328E79BP11Il2CppArrayPK10MethodInfo
Qj:_llvm_floor_f32
BYj:_Char_Parse_mFE11A84DD4C198F375A77A8D9ECD0B5809FC74CE
eEq:_ScreenSpaceAmbientOcclusion_CreateMaterials_mCEB62F16EB86C0A0A4247A630A4B6058879449B7
dQr:_Predicate_1_Invoke_m7B2F6B6C0494784A17A412B219303C6733665B7F_gshared
fp:__ZN12NavMeshAgent23VirtualRedirectTransferER24GenerateTypeTreeTransfer
JJ:__ZN26AnimatorControllerPlayable18DeallocateBindingsEv
M$r:_GUILayout_Width_mDA8F26D92E788474E09AECA1541E8C920C72DA10
vQp:_Scene_get_buildIndex_m764659943B7357F5D6C9165F68EDCFBBDDD6C3C2
dUc:__ZN20TextureStreamingData19AllocateTextureInfoEP17StreamingRendererjPK20StreamingTextureInfo
R8l:__Z166RuntimeInvoker_FalseSingle_tF2613CF3F3AF0E8BEBC3CE8AD41479C44E6075DB_Single_tF2613CF3F3AF0E8BEBC3CE8AD41479C44E6075DB_Single_tF2613CF3F3AF0E8BEBC3CE8AD41479C44E6075DBPFvvEPK10MethodInfoPvPS4_
RXn:_Decimal__cctor_mA436EFDB4E03AF2168202DF1490374344E8FE3DD
faa:__ZN11AudioSource19CreateOpenALRolloffEfff
dJg:_UNITY_FT_Stream_ReadAt
R8h:__ZL107CanvasScaler_t304BA6F47EDB7402EBA405DD36CA7D6ADF723564_CustomAttributesCacheGenerator_m_ReferenceResolutionP21CustomAttributesCache
Wmm:__Z114RuntimeInvoker_TrueSByte_t50B643C59EE66E3364AED19D82E06B27BDE75268_Touch_t806752C775BA713A91B6588A07CA98417CABC003PFvvEPK10MethodInfoPvPS4_
lZs:__ZN24dense_hashtable_iteratorINSt3__24pairIK10KeyWrapperIP9FieldInfoEiEES5_N6il2cpp5utils11PointerHashIS3_EEN14dense_hash_mapIS5_iSB_NS5_14EqualsComparerINS0_8equal_toIS4_EEEENS0_9allocatorIS7_EEE9SelectKeyESG_SI_EC2EPK15dense_hashtableIS7_S5_SB_SK_SG_SI_EPS7_SQ_b
Hjn:_DeriveBytes__cctor_mE159FEDBB212BE02830FB259B3107503EB8264FD
Aqt:__ZN6il2cpp6icalls8mscorlib6System2IO6MonoIO5CloseEiPi
g3a:__ZN13ComputeBuffer7SetDataER9GfxDevicePKvjj
k9l:__Z246RuntimeInvoker_TrueRuntimeObject_RuntimeObject_Int32_tC16F64335CE8B56D99229DE94BB3A876ED55FE87_Int32_tC16F64335CE8B56D99229DE94BB3A876ED55FE87_RuntimeObject_SByte_t50B643C59EE66E3364AED19D82E06B27BDE75268_RuntimeObject_RuntimeObject_RuntimeObjectPFvvEPK10MethodInfoPvPS4_
pep:__Z89Enumerator_System_Collections_IEnumerator_Reset_mA745643C8EE26080BC0312E7C16DAE59DA6851CFP52Enumerator_tC41C82C0F818E501EB27564242A717E96BB98D0APK10MethodInfo
tKf:__ZN5physx6shdfnd5ArrayIPvNS0_19ReflectionAllocatorINS_2Sc15ActorPairReportEEEE15growAndPushBackERKS2_
DFs:__ZN57ContactFilter2D_t1BEAE75CCD5614B40E8AD9031BBD72543E2C37B414set_useDepth_2Eb
hxq:_Array_InternalArray__ICollection_CopyTo_TisResourceInfo_t5A62A359608C2B68963B18537C38DA5B091DCD2A_m3408E8B67936074115A66BBF2A9ADA263D297BE4_gshared
K_h:__ZL146GUIClip_tD8FEFCDA2C4A085BA10BDDFF5B74095F114B2B61_CustomAttributesCacheGenerator_GUIClip_get_visibleRect_m08BF045699465EB363ADFC1FBF0BB14D9539193CP21CustomAttributesCache
FEa:__ZN9Scripting11UnityEngineL48__ManagedRegistrationHelperFunction_DisplayProxyEPv
oTd:__ZN9JSONWrite8TransferI13dynamic_arrayI5RectTIfELj0EEEEvRT_PKc17TransferMetaFlags
t$r:_GUIStyle_Internal_Draw_Injected_m96268CFD8003682366C5416A373F06C862B2785C
Sda:__ZN11AudioModule22CreateAudioClipFromWWWEP10IWWWStreamPKcbbi
k5c:__ZN9Texture2DC2E10MemLabelId18ObjectCreationMode
Djc:__Z17DebugStringToFileIA59_cEvRKT_iPKci15LogMessageFlagsiiPFvRK11CppLogEntryE
Lhq:_KeyCollection_GetEnumerator_m86F0E34A89EDD75836F0E4B879F166E48A5D7E2A_gshared
$pr:_ReadOnlyCollection_1_System_Collections_IList_Add_m066FD50A95B18D1F4E7E8B9EE307FA91FEE0AB6E_gshared
bbl:_UnmanagedMarshal_ToMarshalAsAttribute_m01048739DD8A2C55CD3CD8703A0F298A1098F330
enb:__ZN6prcoreL11inner_clearILj4EEEvPhjjj
iJ:__ZN7mecanim12statemachine27CreateStateMachineWorkspaceEPKNS0_20StateMachineConstantEjR20RuntimeBaseAllocator
oMi:_StandaloneInputModule_ShouldIgnoreEventsOnNoFocus_mEEEEF969347F7CF25E65E8CD66416595AF391B3C
jDp:_UnmanagedMemoryStream_SetLength_mD447AF10247BF87B7FA6297E838D5C929BA2282F
Iga:__GLOBAL__sub_I_Runtime_SceneManager_0_cpp
DAs:_Physics_SphereCastAll_mB4EFA712C8681A87FCADEF4563704FCC9AEB19E7
X3l:__Z156RuntimeInvoker_TrueRuntimeObject_RuntimeObject_RuntimeObject_SByte_t50B643C59EE66E3364AED19D82E06B27BDE75268_SByte_t50B643C59EE66E3364AED19D82E06B27BDE75268PFvvEPK10MethodInfoPvPS4_
tKs:_NativeMethodAttribute_set_ThrowsException_m923834F65F9D355EE8E6F8FC760DB6F9C94F22F1
qla:__ZNK8Playable6HandleEv
nMp:_RectOffset__ctor_m23620FE61AAF476219462230C6839B86736B80BA
O2i:_InternalEnumerator_1_System_Collections_IEnumerator_get_Current_m9C0701CBAF43723960A780DC2DB3DA68F07763F3_AdjustorThunk
lTh:__ZL155SceneManager_t68A7070D2AD3860C3EE327C94F38270E49AFB489_CustomAttributesCacheGenerator_SceneManager_get_sceneCount_m21F0C1A9DB4F6105154E7FAEE9461805F3EFAD84P21CustomAttributesCache
Wps:_Animator_SetFloat_mC260C82EF3FD1DB6B66FE898C595D5F901E59681
nta:__ZN14MessageHandler28MessageIDToMessageIdentifierEi
wBd:__Z43Register_UnityEngine_Camera_get_fieldOfViewv
zvb:__ZNK11SpriteAtlas20GetRuntimeRenderDataEPK6Sprite
Knj:_InternalEnumerator_1_get_Current_m7D177C5CD9CB51FFA3F6A167ED5BBEC4DDCEB787_AdjustorThunk
JRf:__ZN5physx6shdfnd5ArrayINS_2Gu5CacheENS0_19ReflectionAllocatorIS3_EEE8recreateEj
WQt:__ZN6il2cpp2vm10WaitHandle19NewManualResetEventEb
dRh:__ZL144Texture_t387FE83BB848001FD06B14707AEA6D5A0F6A95F4_CustomAttributesCacheGenerator_Texture_get_texelSize_m89BA9E4CF5276F4FDBAAD6B497809F3E6DB1E30CP21CustomAttributesCache
fSp:_Skybox_set_material_m2B9CD71E6E58A1179AD8EA5CCEE26C3166763B91
oH:__ZN7mecanim14ValueArrayCopyILb0EEEvPKNS_10ValueArrayEPS1_
t8f:__ZN5physx9NpFactoryD0Ev
k1:__Z51Register_UnityEngine_Animator_get_hasBoundPlayablesv
YEn:__Z58List_1_get_Count_m7984BA6C664D8EAE284C168D0568FE2B9136A033P48List_1_t4A961510635950236678F1B3B2436ECCAF28713APK10MethodInfo
Lk:emscriptenWebGLGetUniform
um:FUNCTION_TABLE_iiiiiiiiiii
zAi:_EventSystem_SetSelectedGameObject_m9710F78638EA033F2CE1E073E15FF274A296789E
xHg:_cff_set_mm_blend
mSe:__ZN5physx2Gu19sweepCapsuleCapsuleERKNS0_7CapsuleES3_RKNS_6PxVec3EfRfRS4_S8_jRt
uUj:_BitConverter_Int64BitsToDouble_m3BBA9E6A39FD7507B9F50FE001CA4A13D128AA53
wRc:__ZL10CleanUpJobP20CullingGroupsJobData
T7f:__ZN5physx2Gu7BV4TreeC2Ev
SMb:__ZN16BlendShapeVertex8TransferI19StreamedBinaryWriteEEvRT_
LEi:_ExecuteEvents_Execute_m32137BEEDB1FC9B1CCC6A13E92006D8F8621B537
w5f:__ZN5physx13BigConvexData4LoadERNS_13PxInputStreamE
lxc:__ZN13RenderManager15BatchModeUpdateEv
_qr:_ReadOnlyCollection_1_System_Collections_Generic_ICollectionU3CTU3E_Add_mB8081E3328906F724A79FB021C50C1A7FD53F10A_gshared
C4c:__ZZL31RegisterRectTransformPropertiesR23GenericPropertyBindingTILj16EEEN32Wrapper_RectTransformAnchorMiny113SetFloatValueEPvf
XZr:_Event_get_rawType_m4139BB74440F552F5FD31F56215938E227EF0CD9
kGa:__ZN9Scripting11UnityEngine12Experimental10PlayerLoop14PostLateUpdateL65__ManagedRegistrationHelperFunction_PlayerEmitCanvasGeometryProxyEPv
qoo:_String_CharCopy_mCE87B6AFC0856761FDC0A80ACBDADC425DB7F806
dKl:_KeysCollection__ctor_mCC796AC787B491FFB0DE24FD4D89218B63673056
cte:__ZN10ClipperLib7Clipper15SetWindingCountERNS_5TEdgeE
TLb:__ZNK4Mesh14GetIndexFormatEv
v6q:_Enumerator__ctor_m2552B9ED5AFA1A5270C85BCBDB8E8243B41CAB88_AdjustorThunk
Yif:__ZN5physx2Sc8ActorSim24postDominanceGroupChangeEv
D4g:__ZN11UnityEngine15PlatformWrapper20SetPlayerPrefsStringERKN4core12basic_stringIcNS1_20StringStorageDefaultIcEEEES7_
izt:__ZN14dense_hash_mapI10KeyWrapperIP12Il2CppObjectEN6il2cpp2gc9CachedCCWENS4_5utils11PointerHashIS1_EENS3_14EqualsComparerINSt3__28equal_toIS2_EEEENSB_9allocatorINSB_4pairIKS3_S6_EEEEE13set_empty_keyERSH_
_Gj:_MethodResponse__ctor_mD051E7CC9C8899A68467A4ABAC2BA051417DA97F
UMa:__ZN9Scripting11UnityEngine12Experimental9Rendering21CameraPropertiesProxy9InitProxyEv
yrd:__ZN16GeometryJobTasks25ScheduleComputeBufferJobsER9GfxDevicePFvP20ComputeBufferJobDataEPFvRK8JobFenceEPK27ComputeBufferJobInstructionjb
vSk:_InputField_set_characterLimit_m8C6108C8CFB5B01F6299A86BE3322E38C87D89E9
C1n:_Enum_System_IConvertible_ToSByte_mAA7BDCBB6D6EBC1C899FC501856F844F4340E6B7
NKo:_BigInteger_Equals_m50C5F1796A8B11766A8F66F62758F101BCCEC522
Yid:__ZNK6Sprite10GetPaddingE20SpriteRenderDataMode
Bjf:__ZN5physx2Cm8PtrTable5clearERNS0_22PtrTableStorageManagerE
oG:__ZN7mecanim9animation29GenericRootXReferenceFromClipEiiRKNS0_18ClipMuscleConstantERKNS0_10ClipOutputES6_RKNS0_12ClipBindingsERNS0_21GenericRootXReferenceE
iXo:_CryptographicException__ctor_m544741ADD75F7F13E73945CFCD291A2726C9D035
oIe:__ZN5physx3Cct15ObstacleContext7releaseEv
hzn:_Selectable_set_image_mEB48171E4A9B0856EF9495731DA0E77B32022371
JCk:_DepthOfFieldDeprecated_AllocateTextures_m716E50521CCEC41EA5892DF7D680A2AAC3BEB981
Jkt:__ZN6il2cpp2vm6Thread28GetThreadStaticDataForThreadEiP12Il2CppThread
OJg:_UNITY_ft_glyphslot_alloc_bitmap
NYl:_X509ChainStatus_set_StatusInformation_m363689C9DBB5A5F1EF0EF91A9FB0742DFC33510B_AdjustorThunk
DJp:_Quaternion_IsEqualUsingDot_mA5E0CF75CBB488E3EC55BE9397FC3C92439A0BEF
Yig:__ZN13PhysicsModule21SetAutoSyncTransformsEbb
Vgs:_WWWTranscoder_ByteArrayContains_mC89ADE5434606470BB3BAF857D786138825E2D0B
z0o:_RIPEMD160Managed_II_m67DA8B0AB38A6230632A1121120718575E982FF8
vgn:_TlsStream_set_Position_mFE2FE4C6A162541A0C46FFD0FD915897B33FE35C
Vpa:__ZL36TransformAccessArray_InitializeClassPv
blh:__ZL81GCHandle_tE002D24915851AD73ACC0F503601C384273C3060_CustomAttributesCacheGeneratorP21CustomAttributesCache
J6p:_Regex_GetGroupNamesArray_m11054EAC66D815B389ABCD91FA42681C5960D10C
aqr:_ReadOnlyCollection_1_System_Collections_IList_Clear_m355D30D12E3E5DA8CCB6AEADAEDF33DA13AF28BA_gshared
fup:_MonoIO_GetCurrentDirectory_m564C808C57743CFEE40F62DE2D948CBA6E98D6B2
v3m:_AppDomain_InternalPushDomainRefByID_m1978206E854A9E951F55FC452E5F36D01D7B40F5
OIp:_PropertyNameUtils_PropertyNameFromString_Injected_mB89F8191FB9B39ADA1F0C627AD130E4F6E37DB38
VRa:__ZN9Scripting11UnityEngine31ExcludeFromPresetAttributeProxy12CleanupProxyEv
Rvg:__ZN15TerrainRenderer23SetNeighboringRenderersEPS_S0_S0_S0_
BEd:__Z47Register_UnityEngine_Mesh_RecalculateBoundsImplv
u8p:_Assertion__ctor_mF2249D8BE3E95C05C28C0BFC7F6E17EB6936803F
y8g:__ZN9Scripting11UnityEngine10Networking23CertificateHandlerProxy12CleanupProxyEv
rft:__ZN15dense_hashtableINSt3__24pairIK10KeyWrapperINS1_IPK10MethodInfoP11Il2CppClassEEEjEES9_17ReflectionMapHashIS8_EN14dense_hash_mapIS9_jSD_NS9_14EqualsComparerINS0_8equal_toIS8_EEEENS0_9allocatorISB_EEE9SelectKeyESI_SK_E13set_empty_keyERKSB_
i_t:__ZNKSt3__221__basic_string_commonILb1EE20__throw_length_errorEv
fQa:__ZN9Scripting11UnityEngine12Experimental10PlayerLoop11FixedUpdate24DirectorFixedUpdateProxy12CleanupProxyEv
Iai:__ZL140Graphic_tBA2C3EF11D3DAEBB57F6879AB0BB4F8BD40D00D8_CustomAttributesCacheGenerator_Graphic_OnFillVBO_m9B0B45C6ECCA4B470CD8EF79622593EBDCFCB96AP21CustomAttributesCache
Od:_JS_SystemInfo_GetMemory
b$f:__ZN5physx6shdfnd5ArrayIPNS_2Bp9AggregateENS0_19ReflectionAllocatorIS4_EEE6resizeEjRKS4_
KBl:_Mathf_Atan_m1FF47E958C869FCB8BADF804011E04736E23C6F9
isc:__ZN18GfxFramebufferGLES13ReadbackImageER14ImageReferenceiiiiii
kYd:__ZN5Unity9rapidjson6WriterI16TempBufferWriterNS0_4UTF8IcEES4_13JSONAllocatorE11WriteStringEPKcj
bSg:__ZN2UI13CanvasManager14GetDisplaySizeEi
p5:__ZN4FMOD7Channel19setReverbPropertiesEPK29FMOD_REVERB_CHANNELPROPERTIES
BMm:_NumberFormatter_NumberToString_mFC72E091882BC15245DA309642BA60D8B7FDAF6C
lZd:__ZN11MinMaxCurve19GetWritableMinCurveEv
phk:_FreeLookCam_Update_m85D5E0DC1D90F7DD85C3A78D7486B726D61F46F1
oxd:__Z48Register_UnityEngine_GameObject_BroadcastMessagev
loo:_String_CreateString_mF95461B01EC947743AD3EB0ABA65E05081307EE8
sWo:_CodeAccessPermission_Equals_m41C45C15BB4EF0DDD5710171290F94EBB365380A
l_b:__ZNK16MemoryFileSystem9EnumerateEPKcP19dynamic_block_arrayI13FileEntryInfoLj32EEbPPv19FileEnumerationFlag
fec:__ZN13MonoBehaviour9CallAwakeEv
oWo:_SByte_ToString_mFB82E3CADEB7A80A38E8701EB7859AC2655424D3_AdjustorThunk
nMo:_ASN1__ctor_m373A227994F9E869AC9F9910A4856951E0E642AB
Umb:__ZN20SphericalHarmonicsL211AddWeightedERKS_f
rZn:_Decimal_op_Explicit_mDA230FA934EE6F3D71ACF704CAEB799CF3774302
rkq:__Z60Transform_1_Invoke_mAB48F4484D9C393C65993BECE7CD389911EAB5B7P53Transform_1_tFC79E6FA3B2CDAC8824267B638CE5C1D8003A1F9P12Il2CppObjectiPK10MethodInfo
soe:__ZN5Unity9rapidjson16GenericStringRefIcEC2EPKcj
$4b:__Z19TransferField_ArrayI17RemapPPtrTransfer27Converter_SimpleNativeClassI8GUIStyleEEvRK23StaticTransferFieldInfoR31RuntimeSerializationCommandInfoRT0_
aSk:__ZNK52InputField_t533609195B110760BCFF00B746C87D81969CB00525get_m_CustomCaretColor_34Ev
uwj:_Enumerator_System_Collections_IEnumerator_Reset_m81352712427E631B356284550CAFA25296D84C2D_gshared
UQd:__ZN9JSONWrite8TransferI10ColorRGBAfEEvRT_PKc17TransferMetaFlags
dYg:__ZN11UnityEngine9Analytics22EventLimitResumedEventC2EjRKN4core12basic_stringIcNS2_20StringStorageDefaultIcEEEEb
hta:__Z25scripting_method_get_name18ScriptingMethodPtr
Ycf:__ZN5physx6shdfnd5ArrayINS_2IG6IslandENS0_19ReflectionAllocatorIS3_EEE8recreateEj
tHm:_MonoType_get_attributes_m652186547830F032F73E09E2DFE51E6F6BC73B73
AVe:__ZN5physx2Gu29distanceSegmentSegmentSquaredERKNS_6shdfnd3aos5Vec3VES5_S5_S5_RNS2_6FloatVES7_
URg:__ZN2UI6Canvas8TransferI19StreamedBinaryWriteEEvRT_
I1g:__ZN17DispatcherService15RestoreDataFileERKN4core12basic_stringIcNS0_20StringStorageDefaultIcEEEERS4_
G0d:__ZN14ParticleSystem17SimulateParticlesER24ParticleSystemUpdateDataR23ParticleSystemParticlesjRKfPj
juo:_StringBuilder_Append_mB80BE8F160CF3C621B9C7530FEC44DBF053A39D3
pOt:_GC_exit_check
VVt:_tolower
xvd:__Z50Register_UnityEngine_Texture2D_Internal_CreateImplv
AQ:__ZN7mecanim9animation9DenseClip8TransferI14SafeBinaryReadEEvRT_
Che:__ZL24GenerateParticleGeometryIL24ParticleSystemRenderMode0ELb1ELb1EL25ParticleSystemRenderSpace4EEvPfRK22ParticleSystemTempDataRK26ParticleSystemRendererDataRK21ParticleSystemModulesRK23ParticleSystemParticlesRK31ParticleSystemParticlesTempData
nGm:_MonoCustomAttrs_GetCustomAttributes_m651375C70DFA98A398DE3F6517750BC9BBA56C5B
Wpj:__Z74InternalEnumerator_1_get_Current_m6078B3708D144328EE71CC1644AAE160ECCD5562P62InternalEnumerator_1_t0758774E160A69E58CE3071A362B654748DD722DPK10MethodInfo
iGt:__ZThn4_N6il2cpp2vm13ComObjectBase18ReleaseMarshalDataEP13Il2CppIStream
kgk:_AbstractTargetFollower_Start_m93237BB2985152654BF35427E5A90CD2E32AF599
BFc:__Z34SetupObjectBakedOcclusionInForwardbRK15SharedLightDataRK26SharedLightmapSettingsDataRK15LightmapIndicesR17ShaderPassContext
_pa:__ZL29TransformAccessChangeCallbackPK15TransformAccessj
wne:__ZN10SizeModuleC2E10MemLabelId
s0i:_ArrayReadOnlyList_1_GetEnumerator_m46A9F714955A5DA8BA9628B74A14A14868F46D05_gshared
yQk:_InputField_set_shouldHideMobileInput_m544F4483E827B0401FF94EF26B6250B5A19EED5C
MBi:_BaseInputModule_FindCommonRoot_m51202982DA69F0F0C44A6B3DD4B9B4B1D64C5260
E3n:_CCGregorianCalendar_year_from_fixed_mF461E03E1D96BE2782C3DB4DA728BEA192C3CDB2
liq:_ShimEnumerator_get_Key_m59CCA053CDBBEEA786945E71A98713076A219B4E_gshared
qU:__ZN9BlobWrite8TransferI22OffsetPtrArrayTransferI9OffsetPtrIN7mecanim12statemachine18StateMachineMemoryEEEEEvRT_PKc17TransferMetaFlags
Lbf:__ZN5physx6shdfnd8PoolBaseINS_2Sc5Scene5BlockIPvLj8EEENS0_19ReflectionAllocatorIS6_EEE12allocateSlabEv
ZQl:_WebProxy_GetProxy_m96A071643E9C0BC316BFD137483DB5A9AAF5F6A0
Col:_Camera_set_backgroundColor_Injected_m5E1BF10175DAB3F4E2D83810640D1FB5EF49A9F9
Lck:_Convert_ToUInt64_m9CB0823D4D0650D89DFDC7EA80EA2CFBD3BA17A6
oIh:__ZL98SerializePrivateVariables_tCB1ACE74D68078EE1D0C9AA6B67E4D8D1CD303CD_CustomAttributesCacheGeneratorP21CustomAttributesCache
wN:__ZN13AnimationClip18GenerateMuscleClipEv
W0a:__ZN19ShaderPropertySheet24SetTextureWithExplicitIDERK23FastTexturePropertyNameP7Texture9TextureID
M7d:__Z25CalculateBarycentricCoordRKN4math7_float4E
fUp:_Texture3D_Internal_CreateImpl_mFEE8F9464580C55553DFB6F051FE793DD040B206
_Hk:_Graphic_SetVerticesDirty_m886B74290CC91F444A28F1BC401D63D01A6AD09C
IJt:__ZN6il2cpp2vm6String8NewUtf16EPKDsi
T$f:__ZN5physx2Cm12DelegateTaskINS_2Sc5SceneEXadL_ZNS3_23preRigidBodyNarrowPhaseEPNS_10PxBaseTaskEEEE11runInternalEv
EHc:__ZN8AutoFree4InitEPv10MemLabelId
T7l:__Z116RuntimeInvoker_FalseSingle_tF2613CF3F3AF0E8BEBC3CE8AD41479C44E6075DB_Int32_tC16F64335CE8B56D99229DE94BB3A876ED55FE87PFvvEPK10MethodInfoPvPS4_
Nkh:__ZL99DefaultDependencyAttribute_t8A68DE2CA55FB5016156B3F9CB9010B29A576716_CustomAttributesCacheGeneratorP21CustomAttributesCache
eqn:__Z57List_1_get_Item_mEBB57A0D130B365BDAED6DD55068D4F19082600BP48List_1_t0737D51EB43DAAA1BDC9C2B83B393A4B9B9BE8EBiPK10MethodInfo
JJp:_Vector3_op_Multiply_m1C5F07723615156ACF035D88A1280A9E8F35A04E
iBq:_Array_Sort_TisSingle_tF2613CF3F3AF0E8BEBC3CE8AD41479C44E6075DB_m541B02560C7A1618E2C3F3F5A90119F5A97B11E1_gshared
cQd:__Z69Register_UnityEngine_GUILayoutUtility_Internal_GetWindowRect_Injectedv
HKp:_Ray_set_direction_mD4D0EA72276CF43ABFE2C190DFD24930ED977D8B_AdjustorThunk
vud:__Z27Texture_CUSTOM_GetDataWidthP12Il2CppObject
hTa:__ZN9Scripting11UnityEngine15BoneWeightProxy12CleanupProxyEv
Inp:_List_1_Find_m624A2E66552CCAA0E8C5D0D77FF859D76E643617_gshared
u5c:__ZN23TextureStreamingResultsC2Ev
ehe:__ZN22ParticleSystemRenderer16PrepareForRenderER14ParticleSystemRK33RendererCullingCallbackPropertiesP23ParticleSystemParticlesR22ParticleSystemTempDataR26ParticleSystemRendererDatab
vjp:_Enumerator__ctor_m2EFEC107355C0D72979F8B2D8A7892B60D45A795_gshared
Uxe:__ZN7b2World19ContactsCollideTaskEv
toq:_ValueCollection_System_Collections_Generic_ICollectionU3CTValueU3E_Clear_mAE841E38593738A6748ACF6588F331EC66F18977_gshared
Fw:__ZN9CarveData8AddShapeERK17NavMeshCarveShape
_Se:__ZN5physx2Gu28intersectCapsuleVsMesh_RTREEERKNS0_7CapsuleERKNS0_12TriangleMeshERKNS_11PxTransformERKNS_11PxMeshScaleEPNS0_14LimitedResultsE
OLg:_UNITY_FT_Hypot
ymg:__Z43Register_UnityEngine_SpringJoint_set_damperv
mzi:__ZNK54SingleU5BU5D_t8C7CE2FD0C4CD3846DEB3BE6DD5564E32A8A27D514GetAtUncheckedEj
IJn:_MD4Managed_G_m65DD0D93BF412D7ED124CF2B013BB9452CADF700
rvl:_UnityEventBase_RebuildPersistentCallsIfNeeded_mFC89AED628B42E5B1CBCC702222A6DF97605234F
eUf:__ZNK5physx2Dy38PxsSolverCreateFinalizeConstraintsTask7getNameEv
y6:__Z14FMOD_FILE_SeekPvjS_
jpk:_CrossPlatformInputManager_SetAxisPositive_mC7F7BBB41EA58F8788FB43D43B212E63C5E21E8C
B8f:__ZN5physx6shdfnd8PoolBaseINS_11NpAggregateENS0_19ReflectionAllocatorIS2_EEE15disposeElementsEv
s1j:_CollectionBase_System_Collections_IList_get_IsFixedSize_m26E42EA8567A7BF3BBE6375B812DA70CB6D10ACC
Pob:__ZN7TextureC2E10MemLabelId18ObjectCreationMode
$Vs:__ZN14dense_hash_mapI10KeyWrapperIN6il2cpp5utils13dynamic_arrayIPK10Il2CppTypeLj4EEEEPFvvENS1_8metadata19Il2CppSignatureHashENS8_14EqualsComparerINSB_22Il2CppSignatureCompareEEENSt3__29allocatorINSG_4pairIKS8_SA_EEEEEC2EjRKSC_RKSF_
kyr:_Dictionary_2_Do_CopyTo_TisTileCoord_t51EDF1EA1A3A7F9C1D85C186E7A7954535C225BA_TisRuntimeObject_m305D4C7168DAA1A45BFA187C088AFC37B0C3E83A_gshared
aRe:__ZThn4_N16RayRTreeCallbackILi1ELb1EE14processResultsEjPj
zRp:_Vector3_op_Inequality_mFEEAA4C4BF743FB5B8A47FF4967A5E2C73273D6E
Dgd:__ZNK13RenderTexture32CalculateNeedsInvertedProjectionEv
sXc:__ZN10systeminfo18GetOperatingSystemEv
Fk:emscriptenWebGLGet
Hvt:__ZN14dense_hash_mapI10KeyWrapperINSt3__24pairIPKcS4_EEEi24NamespaceAndNamePairHashNS6_14EqualsComparerI26NamespaceAndNamePairEqualsEENS1_9allocatorINS2_IKS6_iEEEEED2Ev
qwa:__Z19CanReplaceComponentRN5Unity9ComponentEPKNS_4TypeEPN4core12basic_stringIcNS5_20StringStorageDefaultIcEEEE
W9a:__ZN14SafeBinaryRead8TransferIN10GameObject13ComponentPairEEEvRT_PKc17TransferMetaFlags
e3l:__Z175RuntimeInvoker_TrueVoid_tDB81A15FA2AB53E2401A76B745D215397B29F783_RuntimeObject_Int32_tC16F64335CE8B56D99229DE94BB3A876ED55FE87_SByte_t50B643C59EE66E3364AED19D82E06B27BDE75268PFvvEPK10MethodInfoPvPS4_
wrk:_MobileInput_SetAxis_mA077E0E90F321965F0E65DDEBAA95D55A2484414
M8c:__ZN12CubemapArray11InitTextureEiii13TextureFormatb
J9d:__ZN25IParticleSystemProperties8PropertyIfNS_18ClampStartDurationEE8TransferI14SafeBinaryReadEEvRT_PKc
kGl:_MessageTypeSubscribers_set_MessageTypeId_m294A7B621AAF1984D886D2569CF1206E4F469115
mee:__ZN32CustomDataModulePropertyBindings13SetFloatValueER14ParticleSystemif
vpi:_RealProxy__ctor_mFD4103BAD4E1E8A15E42A79A2804B7089BBEDF38
GIh:__ZL110UnityAPICompatibilityVersionAttribute_tDC26EEE2EDF33E26A15AD9E28EC3225DF09738C8_CustomAttributesCacheGeneratorP21CustomAttributesCache
ipd:__Z17GetSceneBuildInfoRKN4core12basic_stringIcNS_20StringStorageDefaultIcEEEEiR14SceneBuildInfo
CPq:_WaypointProgressTracker_Start_m061D34979F10FB2FCD16788EF277609406F53092
dBq:_Array_Sort_TisCustomAttributeTypedArgument_t6BFE31718393511FACDC7899E1E6586C47110B01_TisCustomAttributeTypedArgument_t6BFE31718393511FACDC7899E1E6586C47110B01_m8942272FB3CF8D44F8A16FBA71B67715D56A1E8D_gshared
Ldp:__Z64KeyValuePair_2_set_Key_m6C366E7D9F6D25E21926E72DC28ACE69DA8FC2C2P56KeyValuePair_2_t198F3EF99C5CB706B8E678896CA900035FACF34251TileCoord_t51EDF1EA1A3A7F9C1D85C186E7A7954535C225BAPK10MethodInfo
SPa:__ZN9Scripting11UnityEngine12Experimental10PlayerLoop11FixedUpdate35ScriptRunDelayedFixedFrameRateProxy9InitProxyEv
YVe:__ZN27ConvexVsMeshOverlapCallbackC2ERKN5physx2Gu10ConvexMeshERKNS0_11PxMeshScaleERKNS0_2Cm23FastVertex2ShapeScalingERKNS0_11PxTransformESE_bRKNS1_3BoxE
Dmd:__Z18SetIParticleSystemP15IParticleSystem
zHn:_ASN1_get_Value_m893A1DDEE56260B6F1F8747051EE14E9EF84EC90
qYn:_Decimal_System_IConvertible_ToSByte_mD13CED137A18F5B997059A22C4AF074B83E7EC70_AdjustorThunk
gzt:__ZN14dense_hash_mapI10KeyWrapperIP12Il2CppObjectEN6il2cpp2gc9CachedCCWENS4_5utils11PointerHashIS1_EENS3_14EqualsComparerINSt3__28equal_toIS2_EEEENSB_9allocatorINSB_4pairIKS3_S6_EEEEEC2EjRKS9_RKSE_
j2c:__ZNSt3__26vectorIN9ShaderLab20SerializedSubProgram15StructParameterENS_9allocatorIS3_EEE21__push_back_slow_pathIS3_EEvOT_
B0l:__Z127RuntimeInvoker_TrueVoid_tDB81A15FA2AB53E2401A76B745D215397B29F783_RuntimeObject_Int64_tF61270729FC90F8A705A5FA6FE222C9644374ADFPFvvEPK10MethodInfoPvPS4_
VM:__ZNK21AnimationHandleBinder36CreateAnimationStreamHandlesBindingsEv
Y1c:__ZN9ShaderLab20SerializedSubProgram14SetConstBufferEPKci
M5m:_Array_combsort_mBD71F8C0FB1AC21C46A48BF73CC439FDFC9A0F24
g$d:__ZN11ShapeModule9ResetSeedERK27ParticleSystemReadOnlyState
H4s:__ZN6il2cpp2os4File5CloseEPNS0_10FileHandleEPi
Rlo:_Single_ToString_m7E2D02A8C2AF327F787B20F825F63E61DF4C03B4_AdjustorThunk
vUs:__ZNSt3__27__sort5IRN6il2cpp5utils11collections13ArrayValueMapIPK10Il2CppType17Il2CppInteropData26InteropDataToTypeConverterNS1_8metadata14Il2CppTypeLessENSA_26Il2CppTypeEqualityComparerEE12SortComparerEPS8_EEjT0_SH_SH_SH_SH_T_
Eig:__ZN13PhysicsModule17SetRigidBodyStateER9RigidbodyRKN8IPhysics14RigidBodyStateE
izo:_Thread_GetHashCode_m78D2864B9A3F97ABC9471FA58B680B0A62D27F77
yNt:_GC_printf
TMf:__ZN5physx2Sq15BucketPrunerMap7addPairERKNS0_13PrunerPayloadEjj
OEg:_cf2_getStdVW
mlg:__Z36Rigidbody_Set_Custom_PropConstraintsP12Il2CppObjecti
rcq:_Uri_CompactEscaped_m33BD25DDB850060AA07417820FB81ED68180F271
gan:_RecordProtocol_ProcessCipherSpecV2Buffer_mBEE3D5415B86FA571A7857F00AEA9FD8FDA0C8E9
eZa:__ZN9GfxDevice13SetActiveTierE12GraphicsTier
XVp:_Transform_Internal_LookAt_m8F9A42F74C8301EBC1C8043AC698A5B0222C16B6
mNf:__ZN5physx2Sq12BucketPruner11shiftOriginERKNS_6PxVec3E
LVd:__Z29Transfer_Blittable_ArrayFieldI8JSONReadjEvRT_R9ArrayInfoRK23StaticTransferFieldInfo
sjd:__ZL25DrawMeshNowFromScriptImplR4MeshiRK10Matrix4x4f13TransformType
Pbh:__GLOBAL__sub_I_Modules_VFX_Public_2_cpp
lRf:__ZThn8_N5physx30PxsNphaseImplementationContext29refreshContactManagerFallbackEPNS_17PxsContactManagerEPNS_23PxsContactManagerOutputE
wOm:_Assembly_GetModules_m81BA4C9572ECBE7DFC23AE34DF0D8BF2C070137B
Hf:__setLetterbox
oWj:_Byte_System_IConvertible_ToDecimal_m8EC859CE3CBC6FDA94199AD9DAC5C9B3EB912674_AdjustorThunk
aOn:_CipherSuite_createDecryptionCipher_m4C1D17E3E66445006C5CD4A7644CC3519471999B
gOj:_LeaseSink_SyncProcessMessage_mD25751F4F129475E6A793D38D4882292C8717FA5
Svb:__ZN13dynamic_arrayI10SpriteBoneLj0EED2Ev
tNc:__ZL22CalculatePSSMDistancesffiPfS_
jps:_AnimationOffsetPlayable_Equals_m30B207FC6287EABF6FC1FDA47784322A3ABB98DF
gMb:__ZNSt3__26vectorI17BlendShapeChannelNS_9allocatorIS1_EEE6assignINS_11__wrap_iterIPS1_EEEENS_9enable_ifIXaasr21__is_forward_iteratorIT_EE5valuesr16is_constructibleIS1_NS_15iterator_traitsISA_E9referenceEEE5valueEvE4typeESA_SA_
Ejc:__Z12SetGfxDeviceP9GfxDevice
Vnd:__ZN22AnimationCurveBindings7SetKeysEP17AnimationCurveTplIfERK13dynamic_arrayI11KeyframeTplIfELj0EE
QPd:__Z54Register_UnityEngine_GUIStyle_SetMouseTooltip_Injectedv
lXc:__ZN11TimeManager11GetRealtimeEv
iNk:_Image_get_activeSprite_m34F21C0982888A580F01003122421D40F45A536E
U6:__ZN29AudioEffectInternalDefinitionC2EP26UnityAudioEffectDefinitionb
DBm:_Array_InternalArray__IndexOf_TisRaycastHit_t19695F18F9265FE5425062BBA6A4D330480538C3_m8AF239EEC184E02B2D286B236899C1AA4790488B_gshared
ccr:_Collection_1_ConvertItem_mA4F12AC92EB90270D0E85C53599DE5AF5D1AC7D8_gshared
b_d:__ZNK11MinMaxCurve20FindMinMaxIntegratedEv
Rrl:_CullingGroup_SendEvents_m08EBF10EEFF49CF9894BA940FD969C8F53F807E7
Fye:__ZN35b2SynchronizeContinuousFixturesTaskD2Ev
pjj:__Z68InternalEnumerator_1__ctor_mA2722EAF89890FFCE441394723770814764D39E2P62InternalEnumerator_1_t49E809934257F63FFD15681111BBB1A2351B0728P11Il2CppArrayPK10MethodInfo
L_q:_List_1_IndexOf_m58546D67B2230FFF0A101BD40CC588BFAD83D8A8_gshared
Eyr:_BaseInvokableCall_ThrowOnInvalidArg_TisColor_t119BCA590009762C7223FDD3AF9706653AC84ED2_mB22D7492EB3224EEB3A8B878DAF0AF27EDCFBA88_gshared
Fwb:_stbir_resize
cA:__GLOBAL__sub_I_AnimationScriptingClasses_cpp
EHt:__ZN15dense_hashtableINSt3__24pairIK10KeyWrapperIPK19Il2CppGenericMethodEP10MethodInfoEES6_N6il2cpp8metadata23Il2CppGenericMethodHashEN14dense_hash_mapIS6_S9_SD_NS6_14EqualsComparerINSC_26Il2CppGenericMethodCompareEEENS0_9allocatorISA_EEE9SelectKeyESH_SJ_EC2ERKSM_j
iri:_BinaryFormatter__ctor_m9AEAF3414151F6617A0660357BBD4DA5E8BD3836
lot:__ZN6il2cpp2vmL33GetMessageFromRestrictedErrorInfoEP26Il2CppIRestrictedErrorInfo
Zcg:__ZL16gReorderCallbackPKN5physx2Gu12AABBTreeNodeEjPv
FOt:_GC_malloc_kind
znj:_InternalEnumerator_1_get_Current_m7D177C5CD9CB51FFA3F6A167ED5BBEC4DDCEB787_gshared
gwe:__ZN24b2ChainAndCapsuleContact6CreateEP9b2FixtureiS1_iP16b2BlockAllocator
zYb:__Z37ReadDirectoryInfo_UnityWebAndUnityRawR12FileAccessorRKN20ArchiveStorageHeader6HeaderERNS1_13DirectoryInfoE
nbr:_Collection_1_CheckWritable_m33C4A0D4C3C0D5AEE601E0E99302146E73023CC3_gshared
O8l:__Z162RuntimeInvoker_TrueInt64_tF61270729FC90F8A705A5FA6FE222C9644374ADF_Int32_tC16F64335CE8B56D99229DE94BB3A876ED55FE87_SByte_t50B643C59EE66E3364AED19D82E06B27BDE75268PFvvEPK10MethodInfoPvPS4_
DLp:_Rect_set_xMin_mD8F9BF59F4F33F9C3AB2FEFF32D8C16756B51E34_AdjustorThunk
O6t:_glGenBuffers__wrapper
jPq:_RoutePoint__ctor_mD6F148440D9553E77C104F7F59C2D58BDA13F963_AdjustorThunk
Y0t:dynCall_iifiii
RBc:__ZN20DynamicPropertySheet14SetValueQueuedEN9ShaderLab16FastPropertyNameEN19ShaderPropertySheet12PropertyTypeEjNS2_8SetFlagsE
tVg:__Z55Register_UnityEngine_CanvasGroup_get_ignoreParentGroupsv
Ctt:__ZN6il2cpp2vm12ReboxIfBoxedEP14Il2CppIUnknownP11Il2CppClass
E5d:__Z25UpdateOrbitalAndRadialTplIL27ParticleSystemCurveEvalMode3ELS0_1ELS0_2EEvRK11MinMaxCurveS3_S3_S3_S3_S3_S3_R23ParticleSystemParticlesjjRKN4math8float3x3ERKNS6_7affineXERKNS6_7_float4E
Efc:__ZN25PathNamePersistentManagerD2Ev
LQb:__ZN17PersistentManager48IntegrateObjectAndUnlockIntegrationMutexInternalEi
uuj:_Comparer_1_System_Collections_IComparer_Compare_m59D39DEFA87965614DAC2C7FE5B281AD0287DEAF_gshared
Gvj:_Enumerator_System_Collections_IDictionaryEnumerator_get_Value_mAA2EB12962320A45A451847CF44AF8507D7BE799_AdjustorThunk
lzq:_Array_InternalArray__set_Item_TisSlot_t3BA7C05A3FC790E1C3AA70E131A5B5B417983A31_m09AAC265216F0FA7F9FD0CE447C90975BAE8CEC9_gshared
lmj:_InternalEnumerator_1_System_Collections_IEnumerator_get_Current_m2D1998DD162DA72EE52DCAD042FC2EDD8C2207FA_gshared
UAi:_BaseInput_GetMouseButton_m62DF2ADFEA57FFBC63B5D570516562752634680F
qDa:__ZZ29InitializeSortingGroupManagerPvEN44PostLateUpdateSortingGroupsUpdateRegistrator7ForwardEv
dlr:_ReadOnlyCollection_1_System_Collections_Generic_IListU3CTU3E_Insert_m232088E79D3413B633396F68762C9D7B8ADFB154_gshared
gMm:_NumberFormatter_NumberToString_mCC3A9342DE00B3BA38B0FD1AC58E6786D6FC503E
Fo:__ZN6Object12SetHideFlagsENS_9HideFlagsE
rve:__ZN9b2Fixture11SynchronizeEP12b2BroadPhaseRK11b2TransformS4_
J1e:__ZN9Rigidbody23VirtualRedirectTransferER14SafeBinaryRead
XRc:__ZN13RendererScene15InitializeUmbraEv
YYd:__ZN9Scripting11UnityEngine14ParticleSystem13ParticleProxy12CleanupProxyEv
d8d:__ZN23ParticleSystemParticles17SetUsesCustomDataEi
Yqq:_Dictionary_2_Remove_m5DD4545C0D60AECD3D1F19E6EEBE8788B0DD9CA7_gshared
FPe:__ZL16computeFaceIndexRN5physx10PxSweepHitENS_7PxFlagsINS_9PxHitFlag4EnumEtEERKNS_20PxConvexMeshGeometryEPNS_2Gu14ConvexHullDataERKNS_11PxTransformERKNS_6PxVec3E
GW:__ZN7mecanim9animation21CreateAvatarWorkspaceEPKNS0_14AvatarConstantER20RuntimeBaseAllocator
Epc:__ZN4gles15UpdateDepthTestER15DeviceStateGLESPK20DeviceDepthStateGLESb
AIi:_PointerEventData_set_pressPosition_m61BDF7F70221FDAB986397C19BAD6C6AF808821F
IZp:_Vector4_SqrMagnitude_mC2577C7119B10D3211BEF8BD3D8C0736274D1C10
Nbt:__ZN14dense_hash_mapI10KeyWrapperINSt3__24pairIPK9EventInfoP11Il2CppClassEEEj17ReflectionMapHashIS8_ENS9_14EqualsComparerINS1_8equal_toIS8_EEEENS1_9allocatorINS2_IKS9_jEEEEE3endEv
Ehj:_InternalEnumerator_1_get_Current_mB5209712209618B2CD448F4CA9BE1497B0BCFA8F_AdjustorThunk
SIc:__ZNSt3__211__make_heapIR26ShadowCasterSortDataSorterP20ShadowCasterSortDataEEvT0_S5_T_
g$e:__ZN15CapsuleCollider13AwakeFromLoadE17AwakeFromLoadMode
aKs:_NativeMethodAttribute__ctor_m34B386D374A17251F14912F04256860E57DF559F
cJs:__ZN52EmitParams_t03557E552852EC6B71876CD05C4098733702A21919set_m_RotationSet_4Eb
OSe:__ZN12_GLOBAL__N_124HfTrianglesEntityReport27onEventEjPj
qNf:__ZN5physx2Sq17DynamicBoundsSync4syncEPKjS3_PKNS_9PxBounds3EjRKNS_2Cm10BitMapBaseINS_6shdfnd20NonTrackingAllocatorEEE
hip:__Z61Enumerator_MoveNext_m9D55139D5455AD0165CCB3D9340794DBBFABA255P52Enumerator_tB7DCB5B52B488F4BCAC79D289A0FC79C2E68C15BPK10MethodInfo
F8g:__ZNK25UnityWebRequestJavaScript18GetDownloadedBytesEv
Kql:_Component_GetComponentsForListInternal_m469B4C3A883942213BEA0EAAA54629219A042480
KMb:__ZN17CollisionMeshData8TransferI19StreamedBinaryWriteEEvRT_R4Mesh
Q8g:__ZN12HeaderHelper14SetUnvalidatedERKN4core12basic_stringIcNS0_20StringStorageDefaultIcEEEES6_b
W4:__ZN4FMOD6SoundI7releaseEv
CZq:_List_1_GetIndex_m16EDAC503C0638353115BD5D25A2ADD5EAAD9D9E_gshared
xxf:__ZN5physx20NpRigidActorTemplateINS_14PxRigidDynamicEE15setActorSimFlagEb
mhe:__ZN30ParticleSystemTrailGeometryJob9RenderJobEP21SharedGeometryJobDataj
fDh:__ZL92NativeTypeAttribute_t13DB73C52788E49FFE842918C50B9D79C352B831_CustomAttributesCacheGeneratorP21CustomAttributesCache
Ssp:_BinaryWriter_Write_m6A4CC8BFF389C1EEDD82AEB488730C5101ECA305
O5f:__ZNK5physx2Gu10ConvexMesh15isGpuCompatibleEv
dpj:_InternalEnumerator_1_System_Collections_IEnumerator_get_Current_mB33E194BEB37E48B22976D4687C70597DF6A9BB1_gshared
$Yb:__ZN10MemoryFile9SetLengthEy
a7b:__ZN5RectTIiE8TransferI24GenerateTypeTreeTransferEEvRT_
Kec:__Z28scripting_class_is_interface17ScriptingClassPtr
ej:_glTexStorage2D
L4p:_Match_NextMatch_m6B07C6E313AA9D5E6F3CAEE53266C254BF0E143E
nBo:_TimeSpan_CompareTo_mCAD10A6C8058C8BE12400B7DB29D61B755DD13B4
Q$n:_StackTrace__ctor_mAE559764888DE2E3F8EF3190245FF9E3252EF12E
trb:__ZNK9ShaderLab10SubProgram14EnsureCompiledEv
TMt:_GC_push_marked
A$e:__ZN15CapsuleCollider14EvaluateBoundsERK9Transform
Xot:__ZN6il2cpp6icalls8mscorlib6System10Reflection8Assembly12get_fullnameEP24Il2CppReflectionAssembly
$sa:__Z18BuildScriptClassId17ScriptingClassPtr
ris:_X509Store_get_Certificates_mF244FB16A726D210EBC6DC278C61E2B99B09A8A1
L7f:__ZN5physx13RefitCallbackIjE15recomputeBoundsEjRNS_6shdfnd3aos5Vec3VES5_
g5r:_GUISkin_set_horizontalSliderThumb_mEA4D61F20729CCBC6E3CBCC7E0AD5A48E37DF056
GRq:_Water__ctor_m564666043ABD3B46A3F590B8CF042083B50487BD
BWa:__ZL31DeleteLastPathNameComponentImplRKN4core12basic_stringIcNS_20StringStorageDefaultIcEEEEPKc
B2b:__Z29Transfer_Blittable_ArrayFieldI14SafeBinaryRead5RectTIiEEvRT_R9ArrayInfoRK23StaticTransferFieldInfo
lol:_Camera_get_fieldOfView_m065A50B70AC3661337ACA482DDEFA29CCBD249D6
z7e:__ZN5physx7NpShape7setFlagENS_11PxShapeFlag4EnumEb
wkj:_InternalEnumerator_1_get_Current_m4D3BF69DAC0D4C4CC62CB4A088FD40BD34255EEE_AdjustorThunk
hxf:__ZN5physx2Sc8BodyCore18setFreezeThresholdEf
Mve:__ZN15b2CircleContact6CreateEP9b2FixtureiS1_iP16b2BlockAllocator
Fec:__ZL28SerializationCommandGroupForRK31TransferFunctionScriptingTraits17ScriptingClassPtr17ScriptingFieldPtrRK20CoreScriptingClasses
X8a:__ZN10TagManager32RegisterDefaultTagsAndLayerMasksEv
xmn:_MatEntry__ctor_m72C34F04FBA9E45278AEC5A484EBF78FD7748089
g$r:_GUI_Label_mB1E6C064D67D94E1D42D620054958F8375E86BB7
jYc:__ZN14LineParameters8TransferI18StreamedBinaryReadEEvRT_
jfd:__ZN10GameObject28IsActiveIgnoreImplicitPrefabEv
_zn:__ZN48Slider_t0654A41304B5CE7074CA86F4E66CB681D0D52C0917set_m_MaxValue_22Ef
BAk:_CreaseShading_OnRenderImage_m5050711324FDAC1B457A201711BEA73B8D4D11AE
bih:__ZL78Queue_t2B066F5DA52AD958C3B9532F7C88339BA1427EAD_CustomAttributesCacheGeneratorP21CustomAttributesCache
Z0e:__ZN19CharacterController9GetBoundsEv
zIt:__ZN6il2cpp8metadata11FieldLayout12LayoutFieldsEjjjhRKNSt3__26vectorIPK10Il2CppTypeNS2_9allocatorIS6_EEEERNS1_15FieldLayoutDataE
vgh:__ZL39String_t_CustomAttributesCacheGeneratorP21CustomAttributesCache
zWd:__ZN8JSONRead8TransferI13dynamic_arrayI8Vector4fLj0EEEEvRT_PKc17TransferMetaFlagsb
GIg:_otv_ReverseChainSingleSubst_validate
rbk:_Convert_ToInt32_m4C38062778A1CD01A6451F969F357F0DEAF88998
umc:__ZN13GfxDeviceGLES22GetNativeBufferPointerEP9GfxBuffer
fgb:__Z24CalculateVertexLightDataRK15SharedLightDataR14GfxVertexLight
H_j:_ArrayListWrapper_CopyTo_m4797097BEDF63D7DBFD611D56D4B67B0C8C0F5BB
Ph:_glEnable
u8j:_Convert_InternalFromBase64String_m297BD1A063E5F902FD8D5E4718C623462151075D
As:__ZN7NavMesh10RemoveTileEyiPPKhPi
prb:__ZNK9ShaderLab7Program28BeginReadUnsupportedVariantsEv
TSe:__ZN5physx2Gu27intersectSphereVsMesh_RTREEERKNS0_6SphereERKNS0_12TriangleMeshERKNS_11PxTransformERKNS_11PxMeshScaleEPNS0_14LimitedResultsE
xPb:__ZNSt3__26vectorIN30RuntimeInitializeOnLoadManager9ClassInfoE13stl_allocatorIS2_L18MemLabelIdentifier13ELi16EEE7reserveEj
UKf:__ZN5physx2Sq8AABBTreeC2Ev
jxm:__Z142PlayableHandle_IsPlayableOfType_TisAnimationOffsetPlayable_t1534674D22C39D6ED74F24A108C3475C7301A93E_mF434E44E279E1DBD0887921B38A5C57812B1371AP56PlayableHandle_t9D3B4E540D4413CED81DDD6A24C5373BEFA1D182PK10MethodInfo
fRd:__Z35Transfer_Blittable_FixedBufferFieldI9JSONWriteiEvRK29SerializationCommandArgumentsR31RuntimeSerializationCommandInfo
dEr:_ExperimentConfig_GetTrialMaze_m7B15656215450B0BB3C6E718B7C895AA195D5DA8
ede:__ZN11TrailModuleD2Ev
L9q:_Collection_1_IsSynchronized_m8058FC9A2E1F02372FE0DEEBEFDA03B6C26BE800_gshared
BJ:__ZN26AnimatorControllerPlayable17ProcessRootMotionEP35AnimationPlayableEvaluationConstantP32AnimationPlayableEvaluationInputP33AnimationPlayableEvaluationOutput
wac:__Z18Transfer_BlittableI18StreamedBinaryReadLb1E10Matrix4x4fEvRK29SerializationCommandArgumentsR31RuntimeSerializationCommandInfo
AIh:__ZL87Texture2DArray_t78E2A31569610CAD1EA2115AD121B771C4E454B8_CustomAttributesCacheGeneratorP21CustomAttributesCache
tZr:_ListPool_1__cctor_mFC21D520E6A974F00E7D85540B0973269E58626A_gshared
aHc:__Z9MagnitudeRK8Vector3f
Uhf:__ZN5physx2Sc7BodySim21postPosePreviewChangeEj
SHc:__ZN5RectTIiEC2Eiiii
sKt:__ZN6il2cpp2os11Environment22SetEnvironmentVariableERKNSt3__212basic_stringIcNS2_11char_traitsIcEENS2_9allocatorIcEEEESA_
NSs:__ZN15dense_hashtableI10KeyWrapperIPK17Il2CppGenericInstES4_N6il2cpp8metadata21Il2CppGenericInstHashEN14dense_hash_setIS4_S7_NS4_14EqualsComparerINS6_24Il2CppGenericInstCompareEEENSt3__29allocatorIS4_EEE8IdentityESB_SE_EC2ERKSH_j
A_t:__ZNSt3__212basic_stringIcNS_11char_traitsIcEENS_9allocatorIcEEE6insertEjPKc
y5e:__ZN5physx13PxLocationHitaSERKS0_
Yxo:_ThreadPool_QueueUserWorkItem_mBEB507BF70DEA545748BA1F2E4EF98BAF9663196
i2q:_List_1_Remove_mB490643C3587DC37B1D6AB450F229D579110F57B_gshared
igo:_X509Certificate_GetEffectiveDateString_m656A7CF180C869FD1B4FC47B2E3E5D5C0224B84E
wdt:__ZN6il2cpp2gc19AppendOnlyGCHashMapIPK10Il2CppTypeP20Il2CppReflectionTypeNS_8metadata14Il2CppTypeHashENS7_26Il2CppTypeEqualityComparerEEC2Ev
tC:__ZN9Scripting11UnityEngine14HumanBoneProxy12CleanupProxyEv
Rkt:__ZN14dense_hash_mapI10KeyWrapperINSt3__24pairIP11Il2CppClassjEEES4_N6il2cpp8metadata14ArrayClassHashENS6_14EqualsComparerINS8_17ArrayClassCompareEEENS1_9allocatorINS2_IKS6_S4_EEEEED2Ev
N2a:__ZN10DynamicVBO9DrawChunkEP17VertexDeclaration
xOg:_New_Profile
pwq:_DefaultComparer_Equals_mD1950938C1A7B3A10C7942256B948D56E5F2F94B_gshared
Zwq:_Array_InternalArray__ICollection_CopyTo_TisCustomAttributeNamedArgument_t98CF5ADD605D0BD45BB33196EF5C2FEE889B1328_m7A4090A75EEC73BC83301C965ADD3E3A85F4ADE1_gshared
mbh:__Z47UnityWebRequest_CUSTOM_InternalSetRequestHeaderP12Il2CppObjectP12Il2CppStringS2_
nn:FUNCTION_TABLE_viifi
gn:FUNCTION_TABLE_viiff
g9e:__ZNK5physx2Sc8ShapeSim10getBodySimEv
AMk:_HorizontalLayoutGroup_SetLayoutHorizontal_mF969611596C5756F137F0BA12A0FD82756EA1F16
exg:__ZN13SpeedTreeWind16CopySettingsFromEPKS_
cgq:_Enumerator_System_Collections_IEnumerator_Reset_m5C2552B9898D51554C7719831FF0A55AC6FDB74E_AdjustorThunk
syl:_GameObject_FindGameObjectWithTag_m9F2877F52346B973DE3023209D73852E96ECC10D
vXj:_Char_GetDataTablePointers_m1E7A54F42A4B009C712948068A4DDAE32914AA80
cib:__ZN6Camera47CalculateProjectionParamsFromPhysicalPropertiesEv
rdp:_KeyValuePair_2__ctor_m5DAB1B2DD21AC0470A6D398E93FD808A3096BD22_gshared
Ogh:__ZL37Type_t_CustomAttributesCacheGeneratorP21CustomAttributesCache
QMg:_UNITY_tt_face_free_hdmx
Wwe:__ZNSt3__26__sortIRN18Overlap2DQueryBase29ColliderHitsByDepthComparitorEPP10Collider2DEEvT0_S7_T_
ahm:__Z313RuntimeInvoker_TrueVoid_tDB81A15FA2AB53E2401A76B745D215397B29F783_Vector3_tDCF05E21F632FE2BA260C06E0D10CA81513E6720_Vector3_tDCF05E21F632FE2BA260C06E0D10CA81513E6720_Single_tF2613CF3F3AF0E8BEBC3CE8AD41479C44E6075DB_Single_tF2613CF3F3AF0E8BEBC3CE8AD41479C44E6075DB_Color32_t23ABC4AE0E0BDFD2E22EE1FA0DA3904FFE5F6E23PFvvEPK10MethodInfoPvPS4_
VPs:__ZNSt3__218uninitialized_copyIPNS_4pairIK10KeyWrapperIPK11Il2CppClassEPKcEESB_EET0_T_SD_SC_
Dit:__ZN6il2cpp2vm14TypeNameParser5ParseEb
vOt:_GC_check_finalizer_nested
Rue:__ZN17PhysicsContacts2D8PreSolveEP9b2ContactPK10b2Manifold
Fwr:__ZNK58RaycastHitU5BU5D_tE9BB282384F0196211AD1A480477254188211F5714GetAtUncheckedEj
uFl:_PlayerConnection__ctor_m3E1248C28C3082C592C2E5F69778F31F6610D93D
V7g:__ZN23UnityPurchasingSettingsC2Ev
_cp:_KeyValuePair_2__ctor_m61E126282E699A4C431FAB7EE454C9D6B75C8302_gshared
EKb:__ZNK9Transform13GetWorldScaleEv
fKc:__ZN13dynamic_arrayI16ShadowCasterDataLj0EE26emplace_back_uninitializedEv
Crt:__ZN6il2cpp2vm13LivenessState13TraverseArrayEP11Il2CppArrayPS1_
zjd:__ZN17GraphicsScripting12BlitMaterialEP7TextureP13RenderTextureP8Materialib
Kgb:__ZN17GPUFenceInternals7ReleaseEv
Akd:__ZN17MaterialScripting18CreateWithMaterialE21ScriptingObjectOfTypeI8MaterialEPS1_
qbc:__ZN8Gradient8TransferI18StreamedBinaryReadEEvRT_
X7e:__ZN5physx14NpShapeManager15setupSceneQueryERNS_2Sq17SceneQueryManagerERKNS_12PxRigidActorERKNS_7NpShapeE
rxk:_CameraMotionBlur_divRoundUp_m1FD0008AD18AFE874700D9D0E7AD0165617909D9
nRt:__ZN6il2cpp5utils5MatchENSt3__212basic_stringIcNS1_11char_traitsIcEENS1_9allocatorIcEEEERKS7_
GTb:__ZNK5Unity9Component38MarkGameObjectAndComponentDependenciesER27GarbageCollectorThreadState
iz:__ZN22ObstacleAvoidanceQuery10AddCapsuleERK8Vector3fS2_S2_S2_
vQf:__ZN22ScAfterIntegrationTask11runInternalEv
nef:__ZNK5physx2Sc9ClothCore23getExternalAccelerationEv
mxb:__ZN6prcoreL26inner_stretch_r16_bilinearEPKNS_9InnerInfoE
zta:__ZNK11TypeManager15ClassNameToRTTIEPKcb
AAo:_WaitHandle_WaitOne_m6E08D7FDBA205CCD4B3CF145E24B013A23E83C1C
RWd:__ZN8JSONRead8TransferI13dynamic_arrayI4AABBLj0EEEEvRT_PKc17TransferMetaFlagsb
ZAn:_Slider_set_value_mD7E3DE3C9CDEBA5740C0B924D19D20404AEB6898
DBg:__ZN13sorted_vectorIN20TextRenderingPrivate8FontImpl13CharacterInfoENSt3__24lessIS2_EE13stl_allocatorIS2_L18MemLabelIdentifier1ELi16EEE10insert_oneERKS2_
YNi:_UIBehaviour_IsDestroyed_m019424306A85134DDEE900D085CCF1E2AE0B9AA8
Hrk:_StandaloneInput_SetAxisPositive_mBD2FC8625B0EB4E172FA3E8225C11544BE7BF592
eFn:_VerticalLayoutGroup_CalculateLayoutInputHorizontal_mBD58CD0DB5FC62541B9138F1A2F06DD13891C09E
j0f:__ZN5physx2Sc5Scene29processNarrowPhaseTouchEventsEv
eBb:__ZN4crnd12symbol_codec32decode_receive_static_data_modelERNS_25static_huffman_data_modelE
U5c:__ZN18ScriptingArguments8AddFloatEf
yp:__ZN12NavMeshAgent16AddToCrowdSystemEv
boe:__ZN11UnityEngine9Analytics27BaseAnalyticsEventWithParam12AddParameterERKN4core12basic_stringIcNS2_20StringStorageDefaultIcEEEERK9JSONWrite
XPj:_ConstructionCallDictionary__ctor_mE731143724C9A3E3616BE362EA0000B67B4A92B4
v0q:_List_1_System_Collections_IList_Contains_m4501D8624CD113CCED5E118D5846997D87822892_gshared
eEr:_ExperimentConfig_GetPlayerStartPosition_mBA14A97F7DF2E4251B9C359A2E6659D13824C2C8
z_g:__ZN11UnityEngine9Analytics14DataDispatcher9DataBlock9ResetDataEv
Mxs:_TerrainMap_CreateFromPlacement_mB23A40ABF3A46620F82C489D749EABEA1EDF27B2
HFt:__ZN6il2cpp2vmL24HexValueToLowercaseAsciiEh
W5m:_Array_Sort_mB1EDB5E6F3D7AC0BF6992D3EDAC7E4F3A45BEBD4
Yxg:__ZN15TerrainColliderD2Ev
B0g:__ZN11UnityEngine15PlatformWrapper16GetVRRenderScaleEv
zof:__ZN5physx6shdfnd5ArrayIPvNS0_15InlineAllocatorILj256ENS0_19ReflectionAllocatorINS_18NpArticulationLinkEEEEEE15growAndPushBackERKS2_
fSd:__Z18Transfer_BlittableI9JSONWriteLb0EaEvRK29SerializationCommandArgumentsR31RuntimeSerializationCommandInfo
xIt:__ZN6il2cpp8metadataL22FormatGenericArgumentsEPK17Il2CppGenericInst
ZPg:__Z51Register_UnityEngine_TextGenerator_Internal_Destroyv
Bte:__ZN7b2World11CreateJointEPK10b2JointDef
WFm:_MonoCustomAttrs_GetCustomAttributesInternal_mEF8CA2A8ABC7F9B06E12968D90E74A535B82E437
YCr:__Z52List_1_Add_m2FC4231C93844B9DB4D4FF8157D061DF9B8FBA03P48List_1_t3DDB9FC102E84D6C6A4430CB071C8EF31975D03DbPK10MethodInfo
f1d:__ZN23ParticleSystemParticles20SetUsesTriggerEventsEb
uIe:__ZNK5physx3Cct15ObstacleContext11getObstacleEj
G3j:_Hashtable_get_Item_mAFBA10EAAD75E4B414F4B7F7E69ADBA31E629DDA
Yfp:__Z64Enumerator_VerifyState_m418BD485C8CC5842961D9A4C72DB2C3D324BC0F2P52Enumerator_t946FC9666277FC96FB2D0430FC588F81E5D2D183PK10MethodInfo
dsn:_GetRayIntersectionAllNonAllocCallback_BeginInvoke_mFE60577F4CFE854DF555E6B18F41C159199F7682
pue:__ZN7b2World11DestroyBodyEP6b2Body
Qgl:_ParameterInfo_IsDefined_m260753BCC7BF6D9B95CDE49C04518CA858419223
xZc:__ZN14SafeBinaryRead19TransferSTLStyleMapINSt3__23mapIN4core12basic_stringIcNS3_20StringStorageDefaultIcEEEEiNS1_4lessIS7_EENS1_9allocatorINS1_4pairIKS7_iEEEEEEEEvRT_17TransferMetaFlags
YEm:_Math_IEEERemainder_m536CBCDDE30A1FB62590073BE613EA6516A22F94
dLg:_gray_move_to
Zkp:_Enumerator_System_Collections_IEnumerator_get_Current_mD2B636959922F366E18D9BCC33401643E1AA7499_AdjustorThunk
sxj:_Enumerator_VerifyCurrent_mE45621224CE6866F2095469353275156BE1A2EA0_gshared
bwo:_UnicodeEncoding_GetByteCount_mA2591FD9FB90CD8D6E7A257335AB2C8F0CE397B5
Rsd:__Z30RegisterValidateMethodCallbackiPF18ScriptingMethodPtrS_17ScriptingClassPtrP6ObjectEPKc
cel:_MonoEvent_get_Name_mA39EE3EFBAB2DD0D91AEA44D56CBF5341CB0A81B
s9j:_DateTime_ParseExact_m636A31F535B1AAFEE977F7BB90EF0240943D299C
lXk:_LayoutGroup_SetDirty_m2B0A4797C6B8E9DCD0F3B2899D4E7EA266EED1C3
OZo:_HMAC_set_Key_m8C536AED49E026A35A515499A8F99AB8A56AF605
ESf:__ZN5physx2Dy34solveContactCoulombPreBlock_StaticEPKNS_22PxSolverConstraintDescEjRNS0_13SolverContextE
mHs:__ZL10rescale128PyS_Piiiii
B2d:__Z25GetTransformationMatricesPN4math8float3x3ES1_bbRK10Matrix4x4fS4_
g1s:__ZN6il2cpp5utils9PathUtils13DirectoryNameIcEENSt3__212basic_stringIT_NS3_11char_traitsIS5_EENS3_9allocatorIS5_EEEERKNS0_10StringViewIS5_EE
R1f:__ZN5physx2Sc5Scene20constraintProjectionEPNS_10PxBaseTaskE
$bk:_Convert_ToSingle_mB4864E54C1C9E0DB2EDFEC47A7D64C0CF3706A4B
tKg:_tt_cmap_init
PWd:__ZN8JSONRead8TransferI9BoundsIntEEvRT_PKc17TransferMetaFlagsb
_Pr:_Predicate_1_Invoke_m2D1864BA4C8F4A3274AD498BC4566EBD4A7FE08E_gshared
lc:invoke_viidi
hOp:_RenderTexture_GetDescriptor_mBDAE7C44038663205A31293B7C4C5AE763CD1128
nyt:__ZN15dense_hashtableI10KeyWrapperIP18Il2CppGenericClassES3_N6il2cpp8metadata22Il2CppGenericClassHashEN14dense_hash_setIS3_S6_NS3_14EqualsComparerINS5_25Il2CppGenericClassCompareEEENSt3__29allocatorIS3_EEE8IdentityESA_SD_E12maybe_shrinkEv
Pon:__Z61List_1_get_Capacity_m9214C56454B0E3BABEBD0728D052ADAFC77C9D88P48List_1_t4CE16E1B496C9FE941554BB47727DFDD7C3D9554PK10MethodInfo
Egn:_TlsStream_Write_m5B5323EF67C0A4C86D73FCFAA7AAE86BD30FF396
M4:__ZN9AudioClip7CleanupEv
w5l:__Z115RuntimeInvoker_FalseSByte_t50B643C59EE66E3364AED19D82E06B27BDE75268_SByte_t50B643C59EE66E3364AED19D82E06B27BDE75268PFvvEPK10MethodInfoPvPS4_
qVq:_RijndaelTransform_Encrypt256_mFEBEE8B23CD0CC1A921B234C4A13C018FC317305
vEl:_Mesh_SetColors_m237E41213E82D4BB882ED96FD81A17D9366590CF
W_j:_FixedSizeArrayListWrapper_Add_mC19E848436CAAFA5A4F598BF50606931A4A657DE
IUf:__ZN5physx2Dy38createFinalizeSolverContacts4Coulomb1DEPPNS_23PxsContactManagerOutputERNS0_13ThreadContextEPNS_19PxSolverContactDescEfffffRNS_21PxConstraintAllocatorE
RJe:__ZL20updateMassAndInertiabRN5physx11PxRigidBodyEPKfjPKNS_6PxVec3Eb
ZUd:__Z18Transfer_BlittableI8JSONReadLb0EdEvRK29SerializationCommandArgumentsR31RuntimeSerializationCommandInfo
RCb:__ZN14SafeBinaryRead22TransferWithTypeStringI7CubemapEEvRT_PKcS5_17TransferMetaFlags
x6k:__ZN62OpCodes_t68E6B52B0B80EC63090337A0C70E8CD9CC57F560_StaticFields15set_Stind_I8_84E48OpCode_tFBF4FC2990E657EA00DA0BB36BE0CC73515E6511
VWg:__Z44Register_UnityEngine_Canvas_set_sortingOrderv
Muh:__ZL152Hashtable_tA746260C9064A8C1FC071FF85C11C8EBAEB51B82_CustomAttributesCacheGenerator_Hashtable_OnDeserialization_m95579A3C3D06B2DE6BEAFCE2057B6AE7306BC7A1P21CustomAttributesCache
vEi:_EventTrigger_OnUpdateSelected_m3A7BC36FE8FFAB3369EDD25FA4CA6D70023540F1
R$s:__ZN6il2cpp2vm21ThreadPoolCompartment13QueueWorkItemEP17Il2CppAsyncResult
J3g:__ZN11UnityEngine9Analytics20WebRequestRestClientC2Ev
AZa:__ZNK9GfxDevice13GetViewMatrixEv
Q4o:_EqualityComparer_1__cctor_mBCE8C4B0815AC9B56A0FD0C7C0ADBBDEB3658577_gshared
Wfo:_X509Certificate__ctor_m2F9C4CDC83D7789ED5EBF489A62FE0818C612E89
NSb:__ZN17RemapPPtrTransferC2E24TransferInstructionFlagsb
Q$p:_Group__cctor_m5324EAB3DE33AF2D32D8676E956AE1C2CEE0D988
Cmf:__ZN5physx6shdfnd8PoolBaseINS_10NpMaterialENS0_19ReflectionAllocatorIS2_EEE12allocateSlabEv
Rua:__ZN8TypeTree8BlobReadERPKhS1_ib
WIs:__ZNK52EmitParams_t03557E552852EC6B71876CD05C4098733702A21921get_m_RandomSeedSet_8Ev
v1r:_GUIContent__ctor_m8EE36BB9048C2A279E7EAD258D63F2A1BDEA8A81
BEn:_ToggleGroup_ActiveToggles_m1FAB0E80675545C764FB81906BE09AE712BE0005
daf:__ZN5physx2Sc5Scene25unregisterShapeFromNphaseERKNS0_9ShapeCoreE
wSe:__ZN5physx2Gu21sweepCapsuleTrianglesEjPKNS_10PxTriangleEbRKNS_17PxCapsuleGeometryERKNS_11PxTransformERKNS_6PxVec3EfRNS_10PxSweepHitEPKjfNS_7PxFlagsINS_9PxHitFlag4EnumEtEE
bRb:__ZN18LoadSceneOperation23GetAllowSceneActivationEv
zMe:__ZN5physx2Gu19ConstructSkewMatrixERKNS_6shdfnd3aos5Vec3VERKNS2_5Vec4VERNS2_6Mat33VESA_RS3_b
h0q:_List_1_get_Item_m820A9ECDF58AFA8559B249236A39E4A2784771DE_gshared
veh:__ZN9Scripting11UnityEngine2XRL52__ManagedRegistrationHelperFunction_InputDeviceProxyEPv
nWd:__ZN8JSONRead21TransferSTLStyleArrayI13dynamic_arrayI10Matrix4x4fLj0EEEEvRT_17TransferMetaFlags
IQg:__ZN31CanvasBatchIntermediateRenderer16StaticInitializeEPv
QI:__ZN7mecanim12AndValueMaskILb0EEEvPKNS_14ValueArrayMaskEPS1_
lPb:__ZN14SafeBinaryRead21TransferSTLStyleArrayINSt3__26vectorIi13stl_allocatorIiL18MemLabelIdentifier13ELi16EEEEEEvRT_17TransferMetaFlags
T8j:_Convert_ToByte_m78476998E5AFD214C473C0524D3F182BA230F8A3
Bqs:_AnimatorTransitionInfo_t66D37578B8898C817BD5A5781B420BF92F60AA6B_marshal_pinvoke
LCg:_raccess_guess_apple_double
PYm:_StrongName_get_PublicKey_m59F04783B90DB3E7E35CF7C144F024F2F039E174
w8k:__ZN62OpCodes_t68E6B52B0B80EC63090337A0C70E8CD9CC57F560_StaticFields15set_Prefix7_191E48OpCode_tFBF4FC2990E657EA00DA0BB36BE0CC73515E6511
blr:_ReadOnlyCollection_1_System_Collections_Generic_ICollectionU3CTU3E_Add_m3314ED84AE00476F15B2CFF7348D84F6D8ECF24E_gshared
kqc:__ZL18ProgramUniform1uivPK7ApiGLESjiihPKv
Ree:__ZN27ShapeModulePropertyBindings13GetFloatValueERK14ParticleSystemi
V8c:__ZN14Texture2DArray13RebuildMipMapEv
PYn:_Decimal_IsZero_m5E24FD74965DF72DC9E9FF05E6256D541E1C6B89
x0b:__Z18Transfer_BlittableI14SafeBinaryReadLb1EaEvRK29SerializationCommandArgumentsR31RuntimeSerializationCommandInfo
kDt:__ZN6il2cpp2gc16GarbageCollector14RemoveWeakLinkEPPv
iGp:_Int64_Equals_m3781194A0AB6A2A6CE09A6F5C12C275587070AB1
Z1c:__ZN9ShaderLab20SerializedSubProgram14AddVectorParamEPKcii15ShaderParamTypei
Tmp:_Enumerator_MoveNext_m6D2A00CBA0379276AB1B71C008AC559154991AA4_gshared
ZXh:__ZL167DownloadHandler_t4A7802ADC97024B469C87FA454B6973951980EE9_CustomAttributesCacheGenerator_DownloadHandler_InternalGetByteArray_mD6D13BFFBF2F56415E10FFEFDC4A68FE29D6D4FDP21CustomAttributesCache
$qt:_RegisterStaticallyLinkedModulesGranular
KOp:_RenderTexture_DiscardContents_m8A94C9379F2EBB84D31BB810F9690DC76B9DD403
JSg:__ZN2UI14CanvasRenderer12CleanupClassEv
YIm:_MulticastDelegate_RemoveImpl_mB3B92BAE1CF2F2704189621B7E3ED279AF6D73D4
zrl:_CubemapArray_Internal_Create_m3E0A1749E733FFAB557EDA308F636F1739577E90
Y9j:_DateTime_AddTicks_m8D2DFDE6C5B20D1C4888C10FDB53FB45E9701942
_Tp:_Texture2DArray_Internal_Create_m01110342339A90ABB2DB4ED1E79C84CBE1DD794D
Npd:__ZN9ShaderLab9IntShader19SetMaximumShaderLODEP6Shaderi
iD:__ZN9Scripting11UnityEngine10Animations26AnimationPosePlayableProxy9InitProxyEv
Xz:__ZN9Scripting11UnityEngine2XR5TangoL49__ManagedRegistrationHelperFunction_PoseDataProxyEPv
q3l:__Z175RuntimeInvoker_TrueVoid_tDB81A15FA2AB53E2401A76B745D215397B29F783_RuntimeObject_SByte_t50B643C59EE66E3364AED19D82E06B27BDE75268_SByte_t50B643C59EE66E3364AED19D82E06B27BDE75268PFvvEPK10MethodInfoPvPS4_
UGo:_SimpleCollator_GetNeutralCulture_m639D0B5199054BA227E380B2A90DEE78C7C12091
EEl:_Mesh_CheckCanAccessSubmeshIndices_m81DF83B1676084AF0B70A36BC7621ADB08430722
qPb:__ZN30RuntimeInitializeOnLoadManager15ClassMethodInfo8TransferI14SafeBinaryReadEEvRT_
y0d:__ZN23ParticleSystemParticles14element_assignEjj
Nea:__ZL22InitializeModule_Audiov
ZZb:__ZN16MemoryFileSystem8IsLockedERK13FileEntryData
Fgm:__Z127RuntimeInvoker_FalseVoid_tDB81A15FA2AB53E2401A76B745D215397B29F783_Rect_t35B976DE901B5423C11705E156938EA27AB402CE_RuntimeObjectPFvvEPK10MethodInfoPvPS4_
wlj:__Z74InternalEnumerator_1_get_Current_m8971B74C19629F48BE115BC08CA4155175C5DBA8P62InternalEnumerator_1_t92EDAD340803BF1721C788ECA3302C7400800C33PK10MethodInfo
jjh:__ZL91ConstructorBuilder_t78F8C5D3F1D9D210C5CA0B0A620F14E947B8E887_CustomAttributesCacheGeneratorP21CustomAttributesCache
lhe:__ZN14ParticleSystem23OnGeometryJobsScheduledEj
xTp:_Texture_set_wrapMode_m85E9A995D5947B59FE13A7311E891F3DEDEBBCEC
sjq:_Transform_1_Invoke_mCD33D407AC2FC9EE7892ADC05C5E19DBA02BE5BA_gshared
Sid:__Z14TriangleArea3DRK8Vector3fS1_S1_
qWq:_List_1_CheckCollection_mBB3C1DB76246BFF20ED5B7B442531DF534C0B57E_gshared
dXf:__ZN5physx6shdfnd5ArrayI10RegionDataNS0_19ReflectionAllocatorIS2_EEE8recreateEj
vIc:__ZNSt3__213__vector_baseINS_4pairIiN17InstancingBatcher12PropertyTypeEEE13stl_allocatorIS4_L18MemLabelIdentifier1ELi16EEED2Ev
pzo:_TimeSpan_CalculateTicks_m46312152615F8AD938912EEA98510F92696DF994
iDo:_Type_IsInstanceOfType_mF2347C47FAC3CC828F028751885B9EED22076EEB
hOt:_GC_dirty_init
rRq:_PlanarReflection_CalculateObliqueMatrix_mFD6BB9C5ECC438DD6F5C9C0F8F65CFB2F36D1866
fwt:__ZN6il2cpp2vm5Image33GetCachedMemoryMappedResourceFileEP24Il2CppReflectionAssembly
xwt:__ZN6il2cpp2vm5Field14GetValueObjectEP9FieldInfoP12Il2CppObject
rUg:__ZNK2UI6Canvas16GetTargetDisplayEv
Djp:__Z64Enumerator_VerifyState_mAE9383295384C110CF2999061CC35AB4359FA7F4P52Enumerator_tAE2CDFF1624D7D03322ABF5ECA6BE02364C441A3PK10MethodInfo
GJp:_Quaternion_op_Inequality_mDA6D2E63A498C8A9AB9A11DD7EA3B96567390C70
yJf:__ZN5physx2Sc27ConstraintProjectionManagerD2Ev
D4d:__Z25UpdateOrbitalAndRadialTplIL27ParticleSystemCurveEvalMode1ELS0_2ELS0_2EEvRK11MinMaxCurveS3_S3_S3_S3_S3_S3_R23ParticleSystemParticlesjjRKN4math8float3x3ERKNS6_7affineXERKNS6_7_float4E
VFd:__Z60Register_UnityEngine_Transform_FindRelativeTransformWithPathv
lOe:__ZL15SweepBoxCapsulePKN5physx3Cct9SweepTestEPKNS0_11SweptVolumeEPKNS0_11TouchedGeomERKNS_14PxExtendedVec3ERKNS_6PxVec3ERNS0_12SweptContactE
Pqp:_List_1_AddEnumerable_mD2828D4BC594947660622909749D3E3D99597900_gshared
VKd:__ZN9JSONWrite8TransferI13dynamic_arrayIN14CrashReporting10StackFrameELj0EEEEvRT_PKc17TransferMetaFlags
nEa:__ZN9Scripting11UnityEngineL47__ManagedRegistrationHelperFunction_CameraProxyEPv
Xvd:__Z58Register_UnityEngine_RenderTexture_GetDepthBuffer_Injectedv
UVi:_DefaultControls_CreateInputField_m5EDD7C065B925082705F591BD42B56F98BC085A7
Wdc:__ZN13MonoBehaviour17RemoveFromManagerEv
iib:__ZN12ImageFilters14AddImageFilterERK11ImageFilter
PEb:__ZL11DecodeValuePPKcS0_
TQf:__ZN5physx30PxsNphaseImplementationContext21appendContactManagersEv
zha:__ZN13MemoryManagerC2Ev
Kld:__ZN12SkinMeshInfo10DeallocateEPS_
zgn:_TlsStream_Write_mB8A00038D8DDFEA6590506524FA0737A763AF616
Dqk:_VirtualButton_get_GetButtonUp_mE886E086691211C5B54516C99AE152C6D489B1A6
brj:__Z68InternalEnumerator_1__ctor_m63E0495CF9031D67070674D44995AE1BF0B28883P62InternalEnumerator_1_t48BA88C7A066213266826E45D6A7861727F49B55P11Il2CppArrayPK10MethodInfo
oZb:__ZN20ArchiveStorageReader28AcquireAndPrefillUnusedBlockEjPNS_11CacheResultE
Q8c:__Z12NHxRoughnessIA4_tEvP9Texture2DPT_iiii
oYi:_Dropdown_AlphaFadeList_m56863A69185C43B85E6722D1EDE26A9F98D95976
J$g:__ZN11UnityEngine15PlatformWrapper33GetTimeSinceStartupInMillisecondsEv
$ya:__ZN18AsyncUploadManagerD2Ev
eQm:_Default_check_type_m889BD3CEBA9DC79DA77441EFB0FA40421644C078
sWb:__ZN9Transform5ResetEv
vZo:_DSASignatureFormatter_SetHashAlgorithm_mBD267C64E9D313C587955B7817D3A7A03D5BABA5
p7b:__Z22TransferField_NonArrayI24GenerateTypeTreeTransfer16Converter_StringEvRK23StaticTransferFieldInfoR31RuntimeSerializationCommandInfoRT0_
TGg:_UNITY_FT_CMap_New
VEd:__Z38Transform_CUSTOM_set_position_InjectedP12Il2CppObjectRK8Vector3f
SId:__Z57Register_UnityEngine_RectTransform_get_anchorMax_Injectedv
fts:__ZL24UnresolvedVirtualCall_74P12Il2CppObjectS0_iS0_S0_S0_S0_S0_S0_PK10MethodInfo
zgc:__Z17MainLoopKeepalivePv
$df:__ZN5physx7NpScene16addActorInternalERNS_7PxActorE
b0e:__ZN9Rigidbody19SetRotationInternalERK11Quaternionfbb
d4q:_List_1_AddEnumerable_mA70288A434B847B4DD6A4B0B4C10818A65D61E90_gshared
PHo:_SortKeyBuffer_GetOptimizedLength_m445BA3B96BF1C2E1E8E14711F200B3A31B5EAAC2
WSs:__ZN15dense_hashtableI10KeyWrapperIPK17Il2CppGenericInstES4_N6il2cpp8metadata21Il2CppGenericInstHashEN14dense_hash_setIS4_S7_NS4_14EqualsComparerINS6_24Il2CppGenericInstCompareEEENSt3__29allocatorIS4_EEE8IdentityESB_SE_E12expand_arrayEjN21dense_hash_map_traits17integral_constantIbLb0EEE
Ocg:__ZL7setNodeRKN5physx2Gu8AABBTreeEP7BV4NodejPKNS0_12AABBTreeNodeER14BV4BuildParams
$2:__ZN9Scripting11UnityEngineL54__ManagedRegistrationHelperFunction_AudioSettingsProxyEPv
PEp:_Int32_System_IConvertible_ToDouble_m5B35514A3944395248D7682464A8B76E9A54C164_AdjustorThunk
$uj:_Enumerator__ctor_m9C093882B83BDF380334DC7FC58F1A520E8FDE3A_AdjustorThunk
inc:__ZThn10640_N13GfxDeviceGLES19SetViewportPlatformERK5RectTIiE
llk:__ZNK72RigidbodyFirstPersonController_t8CC10631AB3A95C1B17BE031A217ED712C514E2019get_m_IsGrounded_15Ev
bHg:_UNITY_FT_Stream_ReadFields
jrb:__ZN10builtintex16GetDefaultTexEnvE16TextureDimensionb
KBc:__Z19SetupLODFadeKeywordR17ShaderPassContextb
Fzf:__ZN5physx6shdfnd5ArrayIPNS_2Sc16ShapeInteractionENS0_19ReflectionAllocatorIS4_EEE15growAndPushBackERKS4_
Ysc:__ZL25CheckCopyTextureArgumentsRK7ApiGLESP11GLESTextureS3_
see:__ZN24UVModulePropertyBindings13AddPropertiesER10vector_mapIi22ParticleModulePropertyNSt3__24lessIiEENS2_9allocatorINS2_4pairIiS1_EEEEE
gz:__Z17CircleHullOverlapPfRK13dynamic_arrayI8Vector2fLj0EERKS1_f
T5t:_glDeleteShader__wrapper
Epo:_DecoderReplacementFallback__ctor_mCC65D0EFC664309A82F9D2AA7564324A5C058527
Tma:__ZNK15PlayableMethods18InvokeOnGraphStartER18ScriptingObjectPtrRK9HPlayable
OV:__ZL13TRSToGlobalTR15TransformAccessRKN4math4trsXE
dyt:__ZN15dense_hashtableI10KeyWrapperIP18Il2CppGenericClassES3_N6il2cpp8metadata22Il2CppGenericClassHashEN14dense_hash_setIS3_S6_NS3_14EqualsComparerINS5_25Il2CppGenericClassCompareEEENSt3__29allocatorIS3_EEE8IdentityESA_SD_E15insert_noresizeERKS3_
Q6b:__Z29Transfer_Blittable_ArrayFieldI24GenerateTypeTreeTransferyEvRT_R9ArrayInfoRK23StaticTransferFieldInfo
G5:__ZN4FMOD7SystemI9playSoundE17FMOD_CHANNELINDEXPNS_5SoundEbPPNS_7ChannelE
_rf:__ZNK5physx7NpCloth16getStretchConfigENS_22PxClothFabricPhaseType4EnumE
Hwg:__ZNK9Heightmap13GetPatchIndexEiii
PI:__ZN27AnimationLayerMixerPlayable17LayerMixerProcessEP35AnimationPlayableEvaluationConstantP32AnimationPlayableEvaluationInputP33AnimationPlayableEvaluationOutputM17AnimationPlayableFvS1_S3_S5_EMS_FvS1_S3_S5_ESA_MS_FvS5_S1_S3_S5_ifE
N4s:__ZN6il2cpp2os4File4ReadEPNS0_10FileHandleEPciPi
jAg:__ZN13dynamic_arrayIN4core17string_with_labelILi36EEELj0EE18resize_initializedEj12ResizePolicy
HVt:_realloc
Jee:__ZN27ColorModulePropertyBindings13GetFloatValueERK14ParticleSystemi
W$e:__ZL17computeMeshBoundsRKN5physx11PxTransformEPKNS_2Gu19CenterExtentsPaddedERKNS_11PxMeshScaleERNS3_5Vec3pESB_
Z8f:__ZN5physx6shdfnd4sortIPvNS0_4LessIS2_EENS0_19ReflectionAllocatorINS_18NpArticulationLinkEEEEEvPT_jRKT0_RKT1_j
hHk:_FontUpdateTracker__cctor_m2D43EBE1020F273AD9AEE38E30ED0907DC3567D4
UIo:__ZN55SortKeyBuffer_t7758DB2E7ADECBC0E593B733775A27789A8B0F1920set_processLevel2_17Eb
JCn:_Text_get_lineSpacing_m466DF67FD695C49FAFEB1B0F70142C721535AFB1
mBn:_Slider_OnRectTransformDimensionsChange_mDA61F90CF7F7F65347166FFE8E53CCC47A19B581
aEc:__ZN29MotionVectorRenderLoopScratchD2Ev
Gpg:__ZNK12TerrainLayer22GetTypeVirtualInternalEv
A4b:__ZL26Transfer_SimpleNativeClassI17RemapPPtrTransfer8GradientLb0EEvRK29SerializationCommandArgumentsR31RuntimeSerializationCommandInfo
FOs:__ZNK6il2cpp2vm17TypeNameParseInfo21has_generic_argumentsEv
oes:_CertificateHandler_Release_m8D680D11AF8B070587DA5C73E2AE652208BDA90A
WQr:_Predicate_1_BeginInvoke_m1938F4B4D6841A95EAE23A067A57FF00A847D3D8_gshared
I1k:_MethodBuilder_Equals_mA095BA2D246B41576F86EFBA7A38A032DBF383E4
b2s:__ZN6il2cpp6icalls8mscorlib6System8MonoType14get_attributesEP20Il2CppReflectionType
QNj:__ZN28GenericInterfaceFuncInvoker0I50TimeSpan_t26DE4373EA745C072A5FBDEAD8373348955FC374E6InvokeEPK10MethodInfoP12Il2CppObject
cgf:__ZN5physx2Sc21ArticulationJointCore28setSwingLimitContactDistanceEf
GKo:_BigInteger_ToString_m9DD2A434F21EA9AD0483D2437A307714D925EFE5
t2t:dynCall_viifffi
i8g:__ZN22UnityWebRequestManagerD2Ev
fnt:__ZN14dense_hash_mapI10KeyWrapperIP11Il2CppClassES2_N6il2cpp8metadata16SZArrayClassHashENS3_14EqualsComparerINS5_19SZArrayClassCompareEEENSt3__29allocatorINSA_4pairIKS3_S2_EEEEE6insertERKSE_
q_g:__ZN13UploadHandlerD2Ev
t1:__GLOBAL__sub_I_Modules_AssetBundle_Public_1_cpp
U2t:dynCall_viiiiiffi
Rkm:__Z162RuntimeInvoker_TrueSByte_t50B643C59EE66E3364AED19D82E06B27BDE75268_SByte_t50B643C59EE66E3364AED19D82E06B27BDE75268_SByte_t50B643C59EE66E3364AED19D82E06B27BDE75268PFvvEPK10MethodInfoPvPS4_
u3s:__ZN6il2cpp6icalls8mscorlib6SystemL8IsStaticEPK10MethodInfo
VWe:__ZNK5physx2Gu15HeightFieldUtil21getNormalAtShapePointEff
Wla:__Z20scripting_string_newPKc
Xjb:__ZN18StreamedBinaryRead21TransferSTLStyleArrayI13dynamic_arrayI21PlatformShaderDefinesLj0EEEEvRT_17TransferMetaFlags
Mbs:_Version_Equals_m15047C69E4AA3AB29506EE211B87D491B2B0BFA5
OKt:___cxx_global_var_init_44478
cak:_DateTime_get_Now_m59C0E4D8C02A258EF9DFF4A2DE7B7F32AAD79E51
LQd:__ZN9JSONWrite12AppendToNodeEPN5Unity9rapidjson12GenericValueINS1_4UTF8IcEE13JSONAllocatorEEPKcRS6_
o2m:_AttrListImpl_Add_m05548A634773149E0DF4BCAFFAAADE1773EE4F2E
bue:__ZN16PhysicsManager2D20GetRigidBodyVelocityERK11Rigidbody2D
zwk:_BlurOptimized_OnDisable_m5CA119D44F84954738142A36295A33EABF84D0D0
vmg:__Z44Register_UnityEngine_Joint_set_connectedBodyv
qPf:__ZN5physx2Gu21gjkRaycastPenetrationINS0_14RelativeConvexINS0_8CapsuleVEEENS0_11LocalConvexINS0_17ShrunkConvexHullVEEEEEbRKT_RKT0_RKNS_6shdfnd3aos5Vec3VERKNSF_6FloatVESI_SI_RSJ_RSG_SN_fb
BBa:__ZNK11ColorRGBA32cv10ColorRGBAfEv
A6f:__ZThn8_N5physx2Gu11HeightFieldD1Ev
Ucj:__Z74InternalEnumerator_1_get_Current_mCE04278F9396F413CD302DC88CBE7FEB30BEADE9P62InternalEnumerator_1_t728E5F3FD489DB162D1B01D6305EB070B6B5D37DPK10MethodInfo
zDl:_Matrix4x4_MultiplyPoint3x4_m7C872FDCC9E3378E00A40977F641A45A24994E9A_AdjustorThunk
kff:__ZNK5physx19PxArticulationJoint19getConcreteTypeNameEv
FTf:__ZN5physx6shdfnd5ArrayINS_12PxSolverBodyENS0_16AlignedAllocatorILj128ENS0_19ReflectionAllocatorIS2_EEEEE6resizeEjRKS2_
BV:__ZNSt3__26__sortIRPFbPKN8Animator11AnimatorJobES4_EPS4_EEvT0_S9_T_
Fba:__ZN17AudioCustomFilterD2Ev
ALs:___cxx_global_var_init_2_42027
nFp:_Int32_CompareTo_mEEC28A1B1F74FB021002E9F3EF316E22D79FAD85_AdjustorThunk
Bac:__Z18Transfer_BlittableI18StreamedBinaryReadLb0E12PropertyNameEvRK29SerializationCommandArgumentsR31RuntimeSerializationCommandInfo
qum:_Array_InternalArray__ICollection_Contains_TisBoolean_t92E4792324DA9B716F339A3B965A14965E99A4EF_m101892EB7E0173EEFB85DEFAAF2C49A55FC67642_gshared
ALt:_GC_unpromote_black_lists
Nrc:__ZN18GfxFramebufferGLES18ReleaseFramebufferEP17RenderSurfaceBaseP14GfxContextGLES
RWt:_isalpha
AIo:_SimpleCollator_FillSurrogateSortKeyRaw_mFCE197E197A3588F2D04B0C67BBEA62EA6F44481
PTd:__Z18Transfer_BlittableI8JSONReadLb1EiEvRK29SerializationCommandArgumentsR31RuntimeSerializationCommandInfo
Z9b:__Z18Transfer_BlittableI18StreamedBinaryReadLb1EN4math12int2_storageEEvRK29SerializationCommandArgumentsR31RuntimeSerializationCommandInfo
F3l:__Z367RuntimeInvoker_TrueVoid_tDB81A15FA2AB53E2401A76B745D215397B29F783_RuntimeObject_Int32_tC16F64335CE8B56D99229DE94BB3A876ED55FE87_Int32_tC16F64335CE8B56D99229DE94BB3A876ED55FE87_Int32_tC16F64335CE8B56D99229DE94BB3A876ED55FE87_Int32_tC16F64335CE8B56D99229DE94BB3A876ED55FE87_SByte_t50B643C59EE66E3364AED19D82E06B27BDE75268_Int32_tC16F64335CE8B56D99229DE94BB3A876ED55FE87PFvvEPK10MethodInfoPvPS4_
pK:__ZN7mecanim21ValueArrayReverseCopyEPKNS_18ValueArrayConstantEPKNS_10ValueArrayES2_PS3_PKi
Waa:__Z31GetParentSampleClipFromInstancePN11SoundHandle8InstanceE
f4c:__ZNK28RectTransformPropertyBinding13GetFloatValueERKN11UnityEngine9Animation10BoundCurveE
Qfd:__ZN6Camera22StandaloneCustomRenderENS_10RenderFlagEP6ShaderRKN4core12basic_stringIcNS3_20StringStorageDefaultIcEEEEPNS_21PerformRenderFunctionE
h2o:_RSAPKCS1SignatureFormatter_SetKey_mE4304139E80AEA7182EFE05CEEB7302E6F5F6F26
OUt:__ZN6il2cpp2os16ThreadLocalValue8GetValueEPPv
OXs:__ZN6il2cpp2vm13MetadataCache14GetGenericInstEPKPK10Il2CppTypej
QRi:_CanvasUpdateRegistry__cctor_mF173D376F15F2222F022D75E1E08625DE6363A25
Gca:__ZN13AudioListener17ReadExtensionNameEi
Her:_Collection_1__ctor_m71D84C894C80AF6F2718F35FAD7541C7949A2AEB_gshared
mj:_glUniform1uiv
xOp:_RenderTexture_set_width_m10EF29F6167493A1C5826869ACB10EA9C7A5BDCE
QKr:__ZNK56GameController_t8BB0D3CE8992C95BED5FB508588730F0A74009A322get_maxMovementTime_58Ev
DHd:__Z52Object_CUSTOM_GetOffsetOfInstanceIDInCPlusPlusObjectv
A8m:_RSASslSignatureFormatter_SetHashAlgorithm_m3A06BB4F0F75196BA0F04DD98E8477CEA56B6FC8
Qkk:_FirstPersonController_OnControllerColliderHit_m6954D39D8FBADDDC1401E95861F3C9523104B7FA
Koi:_RemotingServices_GetRemoteObject_mE68C0DF458417F287D2F9628A5EFD143E0792D8E
sZd:__ZN11MinMaxCurve11BuildCurvesEv
I8c:__ZL21BuildEmptyCubeTexturePKci11ColorRGBA3217TextureColorSpace
zZc:__ZN14SafeBinaryRead21TransferSTLStyleArrayINSt3__26vectorIN9ShaderLab20SerializedSubProgramENS1_9allocatorIS4_EEEEEEvRT_17TransferMetaFlags
_$n:_Environment_get_NewLine_mE2007839F78B01EFFEE101DAD64A21C72B9A79BB
EWa:__ZN19dynamic_block_arrayI13FileEntryInfoLj32EE4growEj
YTd:__Z15Transfer_StringI8JSONReadLb1EEvRK29SerializationCommandArgumentsR31RuntimeSerializationCommandInfo
Lza:__ZN16LightmapSettings15AppendLightmapsEiRK13dynamic_arrayI12LightmapDataLj0EE
jzb:__ZN6prcoreL17RemapGenericFloatI17TexFormatRGBFloat15TexFormatRGHalfEEvPKNS_9InnerInfoE
nfq:_Enumerator_System_Collections_IEnumerator_get_Current_mDAA3D63D777AFF8A61E0D6DD8797B1A7A09B1CA9_AdjustorThunk
Vca:__Z36AudioSource_CUSTOM_PlayOneShotHelperP12Il2CppObjectS0_f
gJg:_sfnt_load_face
DWf:__ZN5physx2Bp13BroadPhaseSapD2Ev
hHg:_UNITY_ft_service_list_lookup
yNd:__ZN5IMGUI21SelectReceivingWindowER8GUIStateb
Gjm:__Z130RuntimeInvoker_TrueInt32_tC16F64335CE8B56D99229DE94BB3A876ED55FE87_Vector2_tA85D2DD88578276CA8A8796756458277E72D073D_RuntimeObjectPFvvEPK10MethodInfoPvPS4_
kOp:_Texture_ValidateFormat_mA62E75B693BFABECB7CB732C165139B8492DE0ED
Iip:_Enumerator_MoveNext_m23B5455996819D83A5B4EE7600C0BB084DF9249D_gshared
olf:__ZN5physx10NpMaterial8setFlagsENS_7PxFlagsINS_14PxMaterialFlag4EnumEtEE
dCa:__ZN4core8hash_mapINS_12basic_stringIcNS_20StringStorageDefaultIcEEEEPKvNS_4hashIS4_EENSt3__28equal_toIS4_EEEixERKS4_
HPl:_IPv6Address_IsIPv4Compatible_mAB049B9DE3F2D652EFF683DA5AC3CD71E362EEEB
Qia:__ZN13BaseAllocator13TryDeallocateEPv
Gqm:__Z204RuntimeInvoker_TrueRuntimeObject_SByte_t50B643C59EE66E3364AED19D82E06B27BDE75268_SByte_t50B643C59EE66E3364AED19D82E06B27BDE75268_Int32_tC16F64335CE8B56D99229DE94BB3A876ED55FE87_RuntimeObject_RuntimeObjectPFvvEPK10MethodInfoPvPS4_
Hle:__Z17UpdateSprites2TplILN8UVModule8TimeModeE0EL27ParticleSystemCurveEvalMode1ELS2_3EEvRKfRK11MinMaxCurveS7_RKN4math7_float2ERK23ParticleSystemParticlesPf
bVo:_RuntimeMethodHandle_Equals_m0D757C06C90A53AA51ADE43A10DD6F606E1A12D4_AdjustorThunk
kWt:_sprintf
O9g:__ZN29UnityWebRequestAsyncOperationD0Ev
Eie:__Z19UpdateSingleRow2TplILN8UVModule8TimeModeE2EL27ParticleSystemCurveEvalMode0ELS2_4EEvfRK11MinMaxCurveS5_RKN4math7_float2ERK23ParticleSystemParticlesPfbiii
wsd:__ZN9Scripting25CreateNullExceptionObjectE18ScriptingObjectPtr
mYn:_Decimal_System_IConvertible_ToInt32_m0E5D7054F94449C0C2BD545CD2CFFE0A39DDF4E0_AdjustorThunk
eis:_X509Chain__ctor_mBB65549B629ED2E43FD24B4CB73B3F3A0776E5EB
rba:__ZN13AudioListener17RemoveFromManagerEv
Ng:_glAttachShader
vbb:__ZNK6Camera19GetProjectionMatrixEv
VPh:__ZL146Quaternion_t319F3319A7D43FFA5D819AD6C0A98851F0095357_CustomAttributesCacheGenerator_Quaternion_AngleAxis_m07DACF59F0403451DABB9BC991C53EE3301E88B0P21CustomAttributesCache
DDf:__ZNK5physx7NpScene24getWakeCounterResetValueEv
YIc:__ZN14qsort_internal17MedianOfThreeSwapIP20ShadowCasterSortData26ShadowCasterSortDataSorterEEvT_S4_S4_T0_
erl:_ComputeBuffer_InternalSetData_m490D0FE6E42D04DF9E9320D5D877EDEFBAB608A5
jBe:__ZN21b2FindNewContactsTask15AddContactPairsERK16b2ContactManagerP14b2FixtureProxyS4_R13dynamic_arrayINS_17b2DeferredContactELj0EE
Dwn:__ZN52Selectable_tAA9065030FE0468018DEC880302F95FEA9C0133A18set_m_Navigation_5E52Navigation_t761250C05C09773B75F5E0D52DDCBBFE60288A07
DVk:_U3CMouseDragOutsideRectU3Ec__Iterator1_MoveNext_m9162A78798C76BD1E7F101A71BF7F7CE9B55494E
xXe:__ZN5physx2Gu32PCMConvexVsMeshContactGeneration20generateLastContactsEv
q6a:__Z38PreallocateObjectFromPersistentManagerib
ukb:__ZN15ReflectionProbe23VirtualRedirectTransferER24GenerateTypeTreeTransfer
lgn:_TlsServerSettings_set_DistinguisedNames_m267F113276F921659C429CB31196DA013CCF41ED
ylf:__ZThn12_N5physx10NpMaterialD0Ev
j0s:__ZN6il2cpp2vmL17IsSocketAsyncCallEP14Il2CppDelegate
bEj:_ActivationServices_CreateInstanceFromMessage_m23828DF1A3E028AAD1FCA9A00F1CD7574A09FC13
_Bb:__ZNK9Texture2D20GetUnscaledTextureIDEv
b1m:_X509Extension_WriteLine_mCE1398388FCFE1C4A013D375A6447C5F14E4C1EE
Xzl:_Input_set_compositionCursorPos_Injected_m9631D1E7F883BB461FE11EBC65C8DACB25B9F42F
Bbt:__ZN15dense_hashtableINSt3__24pairIK10KeyWrapperINS1_IPK12PropertyInfoP11Il2CppClassEEEjEES9_17ReflectionMapHashIS8_EN14dense_hash_mapIS9_jSD_NS9_14EqualsComparerINS0_8equal_toIS8_EEEENS0_9allocatorISB_EEE9SelectKeyESI_SK_E21fill_range_with_emptyEPSB_SO_
xdg:__ZN5physx6shdfnd4sortIjNS_19SortBoundsPredicateENS0_19ReflectionAllocatorIjEEEEvPT_jRKT0_RKT1_j
z4t:_glFenceSync__wrapper
H7e:__ZN5physx7NpShape14onRefCountZeroEv
P0d:__ZNK14ParticleSystem7GetLoopEv
gzl:_Graphics_DrawMeshNow_m15BD931A73AFF6E32394338975D6163458C8913C
xie:__Z20UpdateWholeSheet2TplILN8UVModule8TimeModeE2EL27ParticleSystemCurveEvalMode0ELS2_2EEvfRK11MinMaxCurveS5_RKN4math7_float2ERK23ParticleSystemParticlesPf
c_l:__Z114RuntimeInvoker_TrueInt32_tC16F64335CE8B56D99229DE94BB3A876ED55FE87_SByte_t50B643C59EE66E3364AED19D82E06B27BDE75268PFvvEPK10MethodInfoPvPS4_
Ukp:_Enumerator_System_Collections_IEnumerator_Reset_m3DC61C47B584C4A1742535165DBA4A57347BE51D_AdjustorThunk
laj:__Z71InternalEnumerator_1_MoveNext_m877469AD7655D95C60B8190B2506B755DFAE1AC1P62InternalEnumerator_1_tAB17FF37192148E7C65DE8A2C821E3A515E5126FPK10MethodInfo
GBn:_SpriteState_set_highlightedSprite_mB6F76814A30F2FD3C379FAA3E5CD250176D9B241_AdjustorThunk
vAs:_Physics_RaycastAll_mF5DB872CCEFE1710439DB9939EACE1DCDEFE2A7D
ZGe:__Z27DestroyPhysicsSceneInternali
X1f:__ZN5physx2Sc24ConstraintProjectionTree18projectPoseForTreeERNS0_19ConstraintGroupNodeERNS_6shdfnd5ArrayIPNS0_7BodySimENS4_19ReflectionAllocatorIS7_EEEE
DKr:__ZNK56GameController_t8BB0D3CE8992C95BED5FB508588730F0A74009A319get_gameStarted_103Ev
Bnn:_MaskableGraphic_OnEnable_m98CB2B02A73E1CF22B8A90B9B5EA6D32F2A1B65A
HRb:__Z29ClearRepeatingLogMessageStatev
lXp:_Vector2_get_Item_m67344A67120E48C32D9419E24BA7AED29F063379_AdjustorThunk
bQb:__ZN15ResourceManager23VirtualRedirectTransferER24GenerateTypeTreeTransfer
rza:__ZN21EnlightenSceneMappingaSERKS_
$8a:__ZN14SafeBinaryRead21TransferSTLStyleArrayI13dynamic_arrayI17SortingLayerEntryLj0EEEEvRT_17TransferMetaFlags
d5j:_SyncHashtable_ContainsKey_m102239545BB7BE4E8BE14E69CF54E1D0EE79123F
lef:__ZN5physx2Sc8ActorSimC2ERNS0_5SceneERNS0_9ActorCoreE
zXt:___loc_is_allocated
Iuc:__ZN7ApiGLESD2Ev
len:_SslStreamBase_Read_m87A3DF0D882836850E0939AC48C702E0DDC00BD5
lab:__ZN9Transform47ClearTransformHierarchyAndApplyToSerializedDataEv
N7b:__Z18Transfer_BlittableI19StreamedBinaryWriteLb1E11QuaternionfEvRK29SerializationCommandArgumentsR31RuntimeSerializationCommandInfo
Wen:_X509Certificate_PEM_m1CD795177FCA846A18D6DE2073AAF3EB6C246B97
czc:__ZN22AsyncGPUReadbackBuffer4InitEjb
nVd:__ZN8JSONRead21TransferSTLStyleArrayINSt3__26vectorI8MonoPPtr13stl_allocatorIS3_L18MemLabelIdentifier1ELi16EEEEEEvRT_17TransferMetaFlags
EBt:__ZN6il2cpp6icalls8mscorlib6SystemL16write_enum_valueEPcP11Il2CppClassy
ard:__ZL34GetComponentsImplementationRecurseILb1ELi1ELi1EEbR10GameObjectbRK17CompareParametersRK39GetComponentsImplementation_ReturnValueP21ScriptingExceptionPtr
rhr:_Collection_1_System_Collections_IList_Insert_mCC6C92863CA86AF3AEEFFE5FFD54523205211122_gshared
q8j:_Convert__cctor_m0155D5FF138A0D2A9841A71245831216906A974E
tVe:__ZN5physx20getVertexEdgeIndicesERKNS_2Gu11HeightFieldEjjjPNS_8EdgeDataE
ngj:_InternalEnumerator_1_Dispose_mFFF477A1D94C1E8BC3593FCE1808658A8DF87642_AdjustorThunk
aal:_TypeBuilder_not_supported_mD6901EFBE3B8A73FA7591533D7132917EE8A15D0
YZo:_HMAC_get_Block_mC7988EC5047167B96840521E6D2A839068F4547D
QAq:_Array_Sort_TisInt32_tC16F64335CE8B56D99229DE94BB3A876ED55FE87_m959AB5679FFAD3AD71B55FAB51C5E514215809CC_gshared
r_l:__Z115RuntimeInvoker_FalseInt16_tBFC41132AB8E6B4E1F9D4A1E3CC46422BF453F3C_Int16_tBFC41132AB8E6B4E1F9D4A1E3CC46422BF453F3CPFvvEPK10MethodInfoPvPS4_
Nob:__ZN13RenderTexture12SetDimensionE16TextureDimension
Cvp:_FileLoadException_GetObjectData_mF97794F7C7A9DEF0C96FDF4906E345E62924DE64
T6d:__Z11StartSphereILN11ShapeModule14MultiModeValueE1EEvRS0_R23ParticleSystemParticlesRK19ParticleSystemStateRK27ParticleSystemEmissionStateRKN4math8float3x3ERKNSB_7affineXEjbj
k5e:__ZN13dynamic_arrayIN5physx12PxRaycastHitELj0EE20resize_uninitializedEj12ResizePolicy
ie:_SDL_FreeRW
MOp:_RenderTexture_DiscardContents_m5AC90E7AFBB43F9E1224CB1C865F9F2AC6B08127
AVg:__Z34CanvasRenderer_Get_Custom_PropCullP12Il2CppObject
z5a:__ZNSt3__26vectorIN20GpuProgramParameters15StructParameterENS_9allocatorIS2_EEEC2ERKS5_
Eke:__Z19UpdateWholeSheetTplILN8UVModule8TimeModeE0EL27ParticleSystemCurveEvalMode2EEvfRK11MinMaxCurveS5_RKN4math7_float2ERK23ParticleSystemParticlesPf
Dxm:_SetPropertyUtility_SetStruct_TisSingle_tF2613CF3F3AF0E8BEBC3CE8AD41479C44E6075DB_m2BAAB4A82DD0112EBF02679F80B74FE7D43AB1EC_gshared
M8j:_Convert_ToByte_mD10A3E1CEF87FB115C8478361BD95E42B6D30179
E2f:__ZN5physx6shdfnd5ArrayINS_2Cm12DelegateTaskINS_2Sc5SceneEXadL_ZNS5_25updateCCDSinglePassStage3EPNS_10PxBaseTaskEEEEENS0_19ReflectionAllocatorIS8_EEE15growAndPushBackERKS8_
sAg:__ZNSt3__26vectorIN20TextRenderingPrivate8FontImpl13CharacterInfoE13stl_allocatorIS3_L18MemLabelIdentifier1ELi16EEE8__appendEj
v:tempBigInt
c_c:__ZNSt3__26vectorIN9ShaderLab20SerializedSubProgram12UAVParameterENS_9allocatorIS3_EEE7reserveEj
d$t:__ZSt11__terminatePFvvE
wEf:__ZN5physx13NpVolumeCacheC2EPNS_2Sq17SceneQueryManagerEjj
vcc:__ZN9TextAssetD0Ev
Vlt:__ZN15dense_hashtableINSt3__24pairIK10KeyWrapperIP11Il2CppClassES4_EES5_N6il2cpp8metadata16SZArrayClassHashEN14dense_hash_mapIS5_S4_SA_NS5_14EqualsComparerINS9_19SZArrayClassCompareEEENS0_9allocatorIS7_EEE9SelectKeyESE_SG_E9set_valueEPS7_RKS7_
C6:__ZN12AudioManager14systemCallbackEP11FMOD_SYSTEM24FMOD_SYSTEM_CALLBACKTYPEPvS3_
pkt:__ZN6il2cpp2vm6Thread10InitializeEP12Il2CppThreadP12Il2CppDomain
QZl:__Z33RuntimeInvoker_FalseRuntimeObjectPFvvEPK10MethodInfoPvPS4_
Z2a:__Z26TransformVerticesInnerLoopILb0ELb0ELb1EEvPhRK10Matrix4x4fRK10Matrix3x3fbjPKhiS8_ii25GfxTransformVerticesFlagsj
yNe:__ZN5physx2Gu16testPolyDataAxisERKNS0_8CapsuleVERKNS0_13PolygonalDataEPNS0_12SupportLocalERKNS_6shdfnd3aos6FloatVERSB_RNSA_5Vec3VE
L4g:__ZN18AnalyticsCoreStatsC2Ev
Imb:__ZN16ReflectionProbes16UpdateSampleDataEv
CEa:__ZN9Scripting11UnityEngineL70__ManagedRegistrationHelperFunction_CustomRenderTextureUpdateZoneProxyEPv
bjp:_Enumerator_System_Collections_IEnumerator_Reset_mC2EB3CFE4E3AA10BC362FAD7B6ACD9B6084BED57_AdjustorThunk
P2d:__Z9UpdateTplIL27ParticleSystemCurveEvalMode1EEvRK11MinMaxCurveR23ParticleSystemParticlesjjPKN4math8floatNx3E
ERr:__Z60Predicate_1_Invoke_m5D6169F3D0B8B0874D56911729D89ED84858CF9EP53Predicate_1_t4F5D6B2BCB173402743A6D80F3A4AB6B0EA64BEC49Vector3_tDCF05E21F632FE2BA260C06E0D10CA81513E6720PK10MethodInfo
Onl:_Bounds_get_size_m0739F2686AE2D3416A33AEF892653091347FD4A6_AdjustorThunk
DAq:_Array_Resize_TisUILineInfo_t0AF27251CA07CEE2BC0C1FEF752245596B8033E6_mB9248EFF1CDB16764F8577967AA18F0292F8BAC3_gshared
q1p:_Interpreter_GetString_m655E2AB8473B9D38A923BDCDEDC77F6338050A21
Q1l:__Z162RuntimeInvoker_TrueInt32_tC16F64335CE8B56D99229DE94BB3A876ED55FE87_SByte_t50B643C59EE66E3364AED19D82E06B27BDE75268_SByte_t50B643C59EE66E3364AED19D82E06B27BDE75268PFvvEPK10MethodInfoPvPS4_
W8e:__ZN5physx6shdfnd8internal8HashBaseINS0_4PairIKPKNS_2Sc8ShapeSimENS4_10NPhaseCore16ClothListElementEEES7_NS0_4HashIS7_EENS1_11HashMapBaseIS7_SA_SD_NS0_20NonTrackingAllocatorEE6GetKeyESF_Lb1EE5eraseERS8_
IPc:__Z20AddActiveLocalLightsR11CullResultsR27LocalLightCullingParametersPPK15SharedLightDataPK8Vector4fRK9IndexListPfRSA_R12ActiveLightsSG_P5RectTIfEP13TargetEyeMask
qkq:_Transform_1_Invoke_mAB48F4484D9C393C65993BECE7CD389911EAB5B7_gshared
Xit:__ZNK6il2cpp2vm14TypeNameParser10NextWillBeEcb
KEg:_cf2_getNormalizedVector
vd:_JS_Sound_Play
GBo:_TimeSpan_FromMilliseconds_mF7BFFC163EF554A484EFE07E6628669FE76EF27C
n0j:_BitArrayEnumerator__ctor_mF475D7E45BF8BFF3DA85D9410D75EE7A20B82E53
wfm:__Z86RuntimeInvoker_TrueVoid_tDB81A15FA2AB53E2401A76B745D215397B29F783_Guid_t_RuntimeObjectPFvvEPK10MethodInfoPvPS4_
qFm:_MethodAccessException__ctor_m06C81D4381BDC685DE30A0A8CAF6D97FB4C6B024
YYc:__ZN9ShaderLab16SerializedShader8TransferI14SafeBinaryReadEEvRT_
GNo:_DSAManaged_GenerateKeyPair_m53C969FDF42C5A59FD19188161A09427966B2FF5
sYf:__ZN5physx23PxsDefaultMemoryManager22destroyMemoryAllocatorEv
oIm:_MonoType_getFullName_m1F86334A39006E8792A4F1B3F548EA3E54515A9C
aXa:__ZN11TimeManagerD2Ev
uio:_SecurityElement__ctor_m637CCD8DA198435E3C1F8FBDF2B523E43E792EAA
u$l:__Z114RuntimeInvoker_TrueVoid_tDB81A15FA2AB53E2401A76B745D215397B29F783_Single_tF2613CF3F3AF0E8BEBC3CE8AD41479C44E6075DBPFvvEPK10MethodInfoPvPS4_
TU:__ZN7mecanim8skeleton13SkeletonAlignEPKNS0_8SkeletonERKN4math7_float4ES7_i
M9c:__ZN19ShaderPropertySheet16SetVectorIndexedEN9ShaderLab16FastPropertyNameEifRK8Vector4fNS_8SetFlagsE
Wvg:__ZN12TreeRenderer16UpdateProbeIndexEii
gTm:_DerivedType_GetInterfaces_m8F76B0652310A7FB944478E105B64EEAF9074DE2
ilt:__ZN15dense_hashtableINSt3__24pairIK10KeyWrapperINS1_IP11Il2CppClassjEEES4_EES6_N6il2cpp8metadata14ArrayClassHashEN14dense_hash_mapIS6_S4_SB_NS6_14EqualsComparerINSA_17ArrayClassCompareEEENS0_9allocatorIS8_EEE9SelectKeyESF_SH_E9copy_fromERKSK_j
oHb:__ZN21EnlightenSceneMapping8TransferI19StreamedBinaryWriteEEvRT_
OTa:__ZN9Scripting5Unity11Collections31NativeFixedLengthAttributeProxy9InitProxyEv
QMc:__ZplRK8Vector3fS1_
zWb:__ZN9Transform23VirtualRedirectTransferER19StreamedBinaryWrite
LYe:__ZN5physx2GuL21generatedFaceContactsERKNS0_8CapsuleVERNS0_13PolygonalDataEPNS0_12SupportLocalERKNS_6shdfnd3aos15PsMatTransformVEPNS0_17PersistentContactERjRKNS9_6FloatVERKNS9_5Vec3VE
xIa:__ZN9Scripting11UnityEngineL56__ManagedRegistrationHelperFunction_ReflectionProbeProxyEPv
qWl:_X509Chain_get_CertificateAuthorities_m57E7CA666D598FE1ABFAD63B1395A34A658CE9F3
E$r:_GUI_DoControl_m8D0ED253ABE2776E91274FD814F72D2FB43E8557
uHp:_PlayableHandle_IsValid_mDA0A998EA6E2442C5F3B6CDFAF07EBA9A6873059
e_c:__ZNSt3__26vectorIN9ShaderLab20SerializedSubProgram12UAVParameterENS_9allocatorIS3_EEE8__appendEj
MVo:_SByte_System_IConvertible_ToSingle_m8E1D6EC93588A6B48E01F7E0E5AECF4397D4C5FB
UVj:_Boolean_ToString_m947E5782FAED160F09736681D92DE81839514F19_AdjustorThunk
ZMd:__ZN5IMGUI9GUIWindow5OnGUIER8GUIState
Mvd:__Z55Register_UnityEngine_Texture2DArray_Internal_CreateImplv
Rmd:__ZNK17AnimationCurveTplI11QuaternionfE8GetRangeEv
Bla:__ZN17ScriptingGCHandle7AcquireE18ScriptingObjectPtr25ScriptingGCHandleWeakness
_6c:__ZZL23RegisterLightPropertiesR23GenericPropertyBindingTILj16EEEN20Wrapper_LightColorr013SetFloatValueEPvf
nmr:_ReadOnlyCollection_1_System_Collections_Generic_IListU3CTU3E_Insert_m3E59CF19AC441156DAD84980B622F4462111B548_gshared
efc:__ZN30SerializableManagedRefTransfer8TransferEP6ObjectR22SerializableManagedRefR18StreamedBinaryReadb
yif:__ZN5physx12NpConstraint8comShiftEPNS_12PxRigidActorE
TLa:__ZN9Scripting11UnityEngine17LightmapDataProxy12CleanupProxyEv
Kpc:_glBlendEquationi
U5p:_PatternCompiler_EmitBranch_m0635BA39A1C0659C03BB4F1D5276C67B7A22B318
aCa:__ZN20BurstCompilerServiceC2Ev
vwb:__Z21HasAlphaTextureFormat13TextureFormat
zea:__ZN12AudioManager6UpdateEv
SPe:__ZNK5physx2Gu14RelativeConvexINS0_17ShrunkConvexHullVEE12supportPointEiPNS_6shdfnd3aos6FloatVE
Uwk:_CameraMotionBlur_CalculateViewProjection_m91D3636877AC729C2311E62A69F667883E7AA64F
OD:__ZN8Animator12AddToManagerEv
hmg:__Z58Register_UnityEngine_Rigidbody_AddForceAtPosition_Injectedv
Rld:__Z26ApplyBlendShapesToVerticesR12SkinMeshInfoRKN4math5_int4EPNS1_8floatNx3ES6_
bga:__GLOBAL__sub_I_Runtime_Core_Callbacks_0_cpp
Nek:_DateTime_System_IConvertible_ToUInt32_mDF77AE8366D58D969F025356947944977146ED04
IMe:__ZNK5physx2Gu16SupportLocalImplINS0_11ConvexHullVEE9doSupportERKNS_6shdfnd3aos5Vec3VERNS5_6FloatVESA_
$no:_String_Join_m07FF4A6F9455D310C23F3391AD9DCA30658D47C3
eSc:__ZNK25CameraStackRenderingState31CalculateStereoCameraTargetTypeEv
pmb:__ZN14RenderSettings23VirtualRedirectTransferER14SafeBinaryRead
HUs:__ZN10KeyWrapperIN6il2cpp5utils13dynamic_arrayIPK10Il2CppTypeLj4EEEEC2ERKS6_
upe:__ZNK13b2CircleShape5CloneEP16b2BlockAllocator
vFt:__ZN6il2cpp2os10ThreadImpl15CurrentThreadIdEv
qw:__ZNSt3__227__insertion_sort_incompleteIR17DetailNodeYSorterP16DetailMeshBVNodeEEbT0_S5_T_
Izg:__ZN9Scripting11UnityEngine9FontProxy9InitProxyEv
Yrj:_DefaultComparer_Compare_m88BCD1FF092EFC9338DA8C000A860E8EE7D1F24D_gshared
aFp:_Int32_System_IConvertible_ToUInt16_m32CFEA2A4C1845FF57DE94B9D2D81A9100541E65
p7k:__ZN62OpCodes_t68E6B52B0B80EC63090337A0C70E8CD9CC57F560_StaticFields22set_Conv_Ovf_I8_Un_130E48OpCode_tFBF4FC2990E657EA00DA0BB36BE0CC73515E6511
Gsn:_DelegatePInvokeWrapper_RaycastAllCallback_t751407A44270E02FAA43D0846A58EE6A8C4AE1CE
Tfa:__GLOBAL__sub_I_Runtime_Camera_5_cpp
Olk:__ZN56KeyframeU5BU5D_tF4DC3E9BD9E6DB77FFF7BDC0B1545B5D6071513D21GetAddressAtUncheckedEj
hQa:__ZN9Scripting11UnityEngine12Experimental10PlayerLoop11FixedUpdate28DirectorFixedSampleTimeProxy12CleanupProxyEv
nqg:__ZN11TerrainData23VirtualRedirectTransferER14SafeBinaryRead
Syf:__ZN5physx20NpRigidActorTemplateINS_13PxRigidStaticEED2Ev
WMg:_UNITY_tt_face_load_fpgm
fab:__Z17IsObjectAvailablei
oYa:__ZN12InputManagerD0Ev
_$h:__ZL97EmitParams_t03557E552852EC6B71876CD05C4098733702A219_CustomAttributesCacheGenerator_m_RotationSetP21CustomAttributesCache
Tvm:_Array_InternalArray__ICollection_Remove_TisInt64_tF61270729FC90F8A705A5FA6FE222C9644374ADF_m80593314522464775D654C8192620971567755D4_gshared
yOh:__ZL154Graphics_t6FB7A5D4561F3AB3C34BF334BB0BD8061BE763B1_CustomAttributesCacheGenerator_Graphics_Internal_BlitMultiTap_m50C46C31C94BFA858EF6809ABD134D7CA750AA8DP21CustomAttributesCache
Iif:__ZN5physx2Sc9RigidCore20removeShapeFromSceneERNS0_9ShapeCoreEb
D$h:__ZL161GUIStyle_t671F175A201A19166385EE3392292A5F50070572_CustomAttributesCacheGenerator_GUIStyle_t671F175A201A19166385EE3392292A5F50070572____stretchWidth_PropertyInfoP21CustomAttributesCache
CEh:__ZL79Camera_t48B2B9ECB3CE6108A98BF949A1CECF0FE3421F34_CustomAttributesCacheGeneratorP21CustomAttributesCache
MVt:_posix_memalign
wRa:__ZN9Scripting11UnityEngine12Experimental10PlayerLoop11EarlyUpdate31ClearIntermediateRenderersProxy9InitProxyEv
tdg:__ZN5physx11RTreeCooker18buildFromTrianglesERNS_2Gu5RTreeEPKNS_6PxVec3EjPKtPKjjRNS_6shdfnd5ArrayIjNSB_19ReflectionAllocatorIjEEEEPNS0_13RemapCallbackEfNS_17PxMeshCookingHint4EnumE
NSa:__ZN9Scripting11UnityEngine15ColorGamutProxy12CleanupProxyEv
xYj:_Char_IsUpper_mFFCC4F68DF23E3B21DED4DD48595A364206A8FCC
_cc:__ZNK15MonoScriptCache7ReleaseEv
uNs:__ZN6il2cpp2vm5Class13HasReferencesEP11Il2CppClass
jgg:__ZN5physx19general_PxIOStream216PxFileBufferBase4readEPvj
Wg:_glBindTexture
o$f:__ZN5physx2Bp32PersistentAggregateAggregatePair6updateERNS0_17SimpleAABBManagerE
osg:__ZNSt3__26vectorI8Vector3fNS_9allocatorIS1_EEE6assignI14StrideIteratorIS1_EEENS_9enable_ifIXaasr21__is_forward_iteratorIT_EE5valuesr16is_constructibleIS1_NS_15iterator_traitsIS9_E9referenceEEE5valueEvE4typeES9_S9_
XPd:__Z41Register_UnityEngine_GUI_GrabMouseControlv
hga:__GLOBAL__sub_I_Runtime_Graphics_5_cpp
ars:_AnimationScriptPlayable__cctor_mC78B0B27BE44BD802817190E620DB326D730BF70
_ys:_TerrainData__cctor_mB579F93C53A8F85C72D7AA2C6A266DA7F0D066C5
xTb:__Z36scripting_liveness_calculation_begin17ScriptingClassPtriPFvPP12Il2CppObjectiPvES3_PFvvES7_
acm:__Z176RuntimeInvoker_FalseVoid_tDB81A15FA2AB53E2401A76B745D215397B29F783_Int32_tC16F64335CE8B56D99229DE94BB3A876ED55FE87_RuntimeObject_Int32_tC16F64335CE8B56D99229DE94BB3A876ED55FE87PFvvEPK10MethodInfoPvPS4_
zbc:__Z29Transfer_Blittable_ArrayFieldI18StreamedBinaryRead10Matrix4x4fEvRT_R9ArrayInfoRK23StaticTransferFieldInfo
hol:_Camera_get_nearClipPlane_mD9D3E3D27186BBAC2CC354CE3609E6118A5BF66C
zdl:_MonoMethodInfo_GetAttributes_m3184CB979A4412A949675259DE962D62EC0FE471
FIa:__ZN9Scripting11UnityEngine9RenderingL57__ManagedRegistrationHelperFunction_ShaderKeywordSetProxyEPv
E_:__ZN25AnimatedPropertyEvaluator29BindCurveToScriptingObjectPtrERKN13AnimationClip10FloatCurveEj18ScriptingObjectPtrb
zsr:_ReadOnlyCollection_1_System_Collections_IList_RemoveAt_m3F5026229868FB98C6D1F4B8E0A4ED5C56700431_gshared
JTr:_InvokableCall_1_Invoke_mE8BC48F3B2E77955169C3C14F93D469A11E3FA74_gshared
u0:__ZN8Animator16GetDeltaPositionEv
Och:__ZN9Scripting19UnityEngineInternal5VideoL57__ManagedRegistrationHelperFunction_VideoPixelFormatProxyEPv
xut:__ZN14dense_hash_mapI10KeyWrapperINSt3__24pairIPKcS4_EEEi24NamespaceAndNamePairHashNS6_14EqualsComparerI26NamespaceAndNamePairEqualsEENS1_9allocatorINS2_IKS6_iEEEEE6insertERKSD_
GSq:_WaterBase_UpdateShader_m86F7A14DA7AD87FDA13411207CDAFF902FC2836A
ZYt:_recv
ODc:__Z19SetupMotionMatricesR6CameraR18RPDataMotionVector
FHs:__ZL7log2_64y
ZW:__ZN8Animator11AnimatorJob11AddPlayableEP17AnimationPlayablef
cOf:__ZN5physx19PxsMaterialCombiner24combineIsotropicFrictionERKNS_15PxsMaterialDataES3_
Vxs:_TerrainFilter_Invoke_mB9F861A5CB34474898F150197A7F7CB90AFB1AF9
Aoe:__GLOBAL__sub_I_Physics2DScriptingClasses_cpp
d7k:__ZN62OpCodes_t68E6B52B0B80EC63090337A0C70E8CD9CC57F560_StaticFields13set_Unbox_118E48OpCode_tFBF4FC2990E657EA00DA0BB36BE0CC73515E6511
RMc:__ZmlfRK8Vector3f
SRq:_Water_OnWillRenderObject_m1A3D7C6617DAC09888FA8CFF23B40B5B61187EAC
kuo:_StringBuilder_AppendLine_m2FD46F3EA7251F09E80767019D313966DF713B44
Kpt:__ZN6il2cpp6icalls8mscorlib6System9Threading6Thread11Thread_initEP12Il2CppThread
E_g:__ZN11UnityEngine9Analytics14DataDispatcher28GotoNextFolderNameToDispatchEv
lud:__Z43SceneManager_CUSTOM_GetActiveScene_InjectedRi
KHg:_otv_JSTF_validate
Tlb:__ZN11LightProbes8TransferI19StreamedBinaryWriteEEvRT_
dXm:_RSAManaged_Dispose_m54C5397E7AAEAE663A1BD6FEB6935D91BEB2D3A7
ARh:__ZL157RenderTexture_tBC47D853E3DA6511CD6C49DBF78D47B890FCD2F6_CustomAttributesCacheGenerator_RenderTexture_GetColorBuffer_m03E89BB13BF67EB4ED8EC1911D39F40AAC50A04EP21CustomAttributesCache
qkn:_X509Certificate_get_KeyAlgorithmParameters_mE9AED838BFF65B182B179522F6016AF7C0A5FBA6
Kwq:_Array_InternalArray__ICollection_CopyTo_TisKeyValuePair_2_t211D421912B3331C4F2A9898273FF90BDC47820B_m91F1958C460EDA78355D2D9EED384312D80D5851_gshared
C5m:_Array_IndexOf_m986A78D08E412337D79897ACE5A85C22849DE9D2
SDp:_Int16_System_IConvertible_ToType_mF74803A51A67D06F459C5E5D372DE3C62B8CA836_AdjustorThunk
eFs:_RectTransformUtility_PixelAdjustPoint_m9B5E7F4F2EB55A49670316CBE4D8923154054573
g_:__Z21GetAnimatableBindTypeRK16TypeTreeIterator
Eal:_TypeBuilder_GetPropertyImpl_mC2185382A6C8A0014E5C9AFD2275817AB830008D
aIm:_MonoType_IsPointerImpl_m86CC495D2F859298B42A15191670AC0EF753A2C7
v7a:__ZN11SpriteAtlas8TransferI14SafeBinaryReadEEvRT_
Rkq:__Z60Transform_1_Invoke_m1811F3C493FF50A39500A1D47C14D0C8A5F3A1DCP53Transform_1_t4385F110B64B920B281CAD8BB42BC402BC28D7CAP12Il2CppObjectiPK10MethodInfo
Rnk:_ThirdPersonCharacter_OnAnimatorMove_mC857D69C041C65A6E6A6058FCA795188FE71B677
xvl:_UnityEventBase_RemoveListener_mE7EBC544115373D2357599AC07F41F13A8C5A49E
Tad:__ZN8GUILayer12CleanupClassEv
TZg:__ZN11UnityEngine9Analytics25WebRequestDownloadHandler22OnReceiveContentLengthEj
Heg:__ZN5physx6shdfnd10Foundation7releaseEv
NKh:__ZL86Matrix4x4_t6BF60F70C9169DF14C9D2577672A44224B236ECA_CustomAttributesCacheGenerator_m12P21CustomAttributesCache
E1o:_RSACryptoServiceProvider_DecryptValue_mE7EC1134D767368AF1871F6D544A346ECC3A775F
Gim:__Z377RuntimeInvoker_FalseRuntimeObject_VoidU2A_t8A995245462F8BDC7319CC68F09ACF295FDD2879_VoidU2A_t8A995245462F8BDC7319CC68F09ACF295FDD2879_Single_tF2613CF3F3AF0E8BEBC3CE8AD41479C44E6075DB_VoidU2A_t8A995245462F8BDC7319CC68F09ACF295FDD2879_Single_tF2613CF3F3AF0E8BEBC3CE8AD41479C44E6075DB_Int32_tC16F64335CE8B56D99229DE94BB3A876ED55FE87_Int32_tC16F64335CE8B56D99229DE94BB3A876ED55FE87PFvvEPK10MethodInfoPvPS4_
OXg:__ZN5Unity9rapidjson15GenericDocumentINS0_4UTF8IcEE13JSONAllocatorNS0_12CrtAllocatorEE6StringEPKcjb
ccd:__ZNK15GUIEventManager15GetEventAtIndexEi
$Tg:__ZN2UI14CanvasRenderer17SyncDirtyElementsER8JobFence
Xnl:_Bounds_get_max_mC3BE43C2A865BAC138D117684BC01E289892549B_AdjustorThunk
Nyo:_Thread_get_CurrentCulture_mC65176027DF0D9C8E9FF36E2D8E0A19B32605A8F
iCb:__ZN7Cubemap34UpdateFileTextureUploadInstructionEP24TextureUploadInstructionj
Dcb:__ZNK9ShaderLab21ShaderRasterStateDesc16ToGfxRasterStateEPK19ShaderPropertySheetS3_R14GfxRasterState
Gia:_tlsf_memalign
JFm:_MissingMethodException__ctor_mE0C787EA0575E219D7B918D0F2CE093851CF24F7
TIk:_Graphic_get_materialForRendering_m6DB21BE3220AA57ECD1DE9F29071D3C6723663FB
q7d:__Z12RangedRandomR5RandNRKiS2_
c5k:__ZN62OpCodes_t68E6B52B0B80EC63090337A0C70E8CD9CC57F560_StaticFields13set_Ldloc_3_9E48OpCode_tFBF4FC2990E657EA00DA0BB36BE0CC73515E6511
N3n:_Calendar_Clone_mC4B15B85C411A34990284FCBD4C14B8F78657D5B
v9t:b167
Woa:__ZN13HandleManagerC2Ev
kub:__ZNSt3__26vectorI13dynamic_arrayI8Vector2fLj0EENS_9allocatorIS3_EEE6assignINS_11__wrap_iterIPS3_EEEENS_9enable_ifIXaasr21__is_forward_iteratorIT_EE5valuesr16is_constructibleIS3_NS_15iterator_traitsISC_E9referenceEEE5valueEvE4typeESC_SC_
$Zf:__ZN5physx2IG9IslandSim12mergeIslandsEjjNS0_9NodeIndexES2_
Zoa:__Z20IsMatrixBuiltinParamPKcPi
B5m:_Array_Copy_m7264A33F9C375D7CFA69066D895C2FF8ED436255
iCj:_GCHandle__ctor_m9DC0846C0CE1E0D8E97FCC4A33D91D775F999DE7_AdjustorThunk
mbs:_ValueType_InternalGetHashCode_mA5925DF5288F5152C970140E62E0FE71DD99671E
HSk:_InputField_SetToCustomIfContentTypeIsNot_mA249BA32D017A4C2B1AA5A3BD7E00D504F13721A
QQp:_SceneManager_Internal_SceneUnloaded_m32721E87A02DAC634DD4B9857092CC172EE8CB98
n9c:__ZN8Renderer19PostInitializeClassEv
cyq:_Array_InternalArray__Insert_TisDouble_t2011D65DAF7D1FCBE71DD4CBDFA69A8F24643159_mD4E0577E1DA211F94898074E819507A179992B08_gshared
Q$m:_PKCS12_Finalize_m90582AAB70296335E64301A39152227843C66D0B
STg:__ZNSt3__26__treeINS_12__value_typeINS_4pairIKiS3_EEN2UI14DepthSortLayerEEENS_19__map_value_compareIS4_S7_NS_4lessIS4_EELb1EEE13stl_allocatorIS7_L18MemLabelIdentifier1ELi16EEE25__emplace_unique_key_argsIS4_JRKNS_21piecewise_construct_tENS_5tupleIJOS4_EEENSK_IJEEEEEENS2_INS_15__tree_iteratorIS7_PNS_11__tree_nodeIS7_PvEEiEEbEERKT_DpOT0_
Xbh:__ZN9Scripting11UnityEngine12Experimental3VFXL51__ManagedRegistrationHelperFunction_VFXManagerProxyEPv
M4k:_OpCode_get_Name_m4CC0D0084E72B0AE75DAD5EBACFF254C407B91AE_AdjustorThunk
meq:_UriFormatException_System_Runtime_Serialization_ISerializable_GetObjectData_m279049B0D6FC3D6A0BE546EA1A797E6DBA7BA293
I0g:__ZN11UnityEngine15PlatformWrapper21GetVRPlayAreaGeometryER13dynamic_arrayI8Vector3fLj0EE
bqs:_Animator_SetTriggerString_m77CE57996467D0C973FA2D0CB4DF87BD062C8A1E
UPj:_MethodCall__ctor_m54116AE25949880DD734FC0C3EDAAE55F94B0967
mec:__ZN18DelayedCallManager18CancelCallDelayed2E4PPtrI6ObjectEPF15CallObjectStatePS1_PvES7_
SFo:_MSCompatUnicodeTable_IsIgnorable_mB586BB6BA35F4D83282CD18B3BD15CAF1B1B447A
A8a:__ZN25ThreadsafeLinearAllocator10ReallocateEPvji
O$b:__Z18Transfer_BlittableI14SafeBinaryReadLb1E11QuaternionfEvRK29SerializationCommandArgumentsR31RuntimeSerializationCommandInfo
vgf:__ZNK5physx18PxArticulationLink8isKindOfEPKc
kDa:__ZN18SpriteAtlasManagerD0Ev
awg:__ZN14DetailDatabase12GenerateMeshER4Meshii8Vector3f16DetailRenderModefii
lpg:__Z18GetSplatStaticVarsv
vG:__ZN7mecanim9animation10SampleClipERKNS0_12ConstantClipEjPf
Rkp:_Enumerator_VerifyState_mA9F9306C4CF98E9EAA764E5FDA52BF6FAB45EF9D_gshared
N_j:_ArrayListWrapper_Clone_m40FD61A7B2DE20D68C7505B984D561B7245D2E30
zub:__ZN10Matrix4x4f8TransferI14SafeBinaryReadEEvRT_
kTm:_DerivedType_GetField_mABEE39DB88A8AFA5C2C90C1554FA8CE1D54911F9
Ibc:__Z29Transfer_Blittable_ArrayFieldI18StreamedBinaryReadxEvRT_R9ArrayInfoRK23StaticTransferFieldInfo
m7f:__ZThn8_N5physx2Gu15BV4TriangleMeshD1Ev
$Ha:__ZN9Scripting11UnityEngine10Networking16PlayerConnectionL57__ManagedRegistrationHelperFunction_PlayerConnectionProxyEPv
vW:__ZN14AvatarPlayback8StopTimeEv
Ple:__Z17UpdateSprites2TplILN8UVModule8TimeModeE0EL27ParticleSystemCurveEvalMode2ELS2_4EEvRKfRK11MinMaxCurveS7_RKN4math7_float2ERK23ParticleSystemParticlesPf
vwa:__Z6AppendRKN4core12basic_stringIcNS_20StringStorageDefaultIcEEEEPKc
uVf:__ZN5physx2Dy34PxsSolverConstraintPostProcessTask13mergeContactsERNS0_22CompoundContactManagerERNS0_13ThreadContextE
q_l:__Z81RuntimeInvoker_FalseInt16_tBFC41132AB8E6B4E1F9D4A1E3CC46422BF453F3C_RuntimeObjectPFvvEPK10MethodInfoPvPS4_
pmr:_ReadOnlyCollection_1_System_Collections_Generic_IListU3CTU3E_RemoveAt_mEF8CFC165E92FD0FE8BC435C95B30D6DFF09A3CB_gshared
$wt:__ZN6il2cpp2vm6Object12NullableInitEPhP12Il2CppObjectP11Il2CppClass
n3r:__ZNK56GUIScrollGroup_tF7FE45226FB28968F68A8D2428FE9EA7DC5B18EE31get_needsHorizontalScrollbar_36Ev
WSk:_InputField_get_readOnly_mEF9A855541B21F5B0200C1555D8BF4F9C02A0936
ngs:_UnityWebRequest_SetDownloadHandler_mDE4E6137C34A90754C41B3A0B7B303135771EEDD
Knc:__ZN7ApiGLES18ClearBufferSubDataEjN2gl12BufferTargetEll
NBj:_COMException__ctor_m8BD2774597004569C5649C37C03CE14B7D9526A9
B0:__ZN8Animator7SetBoolEib
mTj:_MethodResponse_System_Runtime_Remoting_Messaging_IInternalMessage_set_Uri_m5793F9C20C8F31E5F70A155507138B6431637F14
rjf:__ZN5physx15NpActorTemplateINS_18PxArticulationLinkEED2Ev
DPd:__Z38Register_UnityEngine_GUIStyle_get_namev
JIe:__ZN15MeshRayCollider7collideILi0ELi1EEEvRKN5physx6PxVec3ES4_fbPKNS1_2Gu17RTreeTriangleMeshERNS5_15MeshHitCallbackINS1_12PxRaycastHitEEEPS3_
yOg:_Split_Cubic
wa:invoke_fiiii
Wsr:_ReadOnlyCollection_1_System_Collections_ICollection_CopyTo_mF92BA7E1AAA0D2ED47815BCEE2BA53BD0B2E0F23_gshared
fOq:_TimedObjectDestructor_Awake_mD2BD52F19C19D8A274BE7482D9E467950FF0F597
Xij:_InternalEnumerator_1_System_Collections_IEnumerator_Reset_mD462F8C36231615D8448CD7EF04BF20457EA1DB6_AdjustorThunk
FNf:__ZN5physx2Sc32DefaultClothInterCollisionFilterEPvS1_
VGa:__ZN9Scripting11UnityEngine12Experimental10PlayerLoop13PreLateUpdateL69__ManagedRegistrationHelperFunction_ScriptRunBehaviourLateUpdateProxyEPv
Sb:invoke_vfiii
xFt:__ZN6il2cpp2os10ThreadImpl22CreateForCurrentThreadEv
C0n:_Double_System_IConvertible_ToUInt16_m71F06275F9D11AD2B84AA52A15625BA8C79AEA75
aMs:__ZNK15dense_hashtableINSt3__24pairIK10KeyWrapperIPK22Il2CppGenericParameterEP11Il2CppClassEES6_N6il2cpp5utils11PointerHashIS4_EEN14dense_hash_mapIS6_S9_SE_NS6_14EqualsComparerINS0_8equal_toIS5_EEEENS0_9allocatorISA_EEE9SelectKeyESJ_SL_E3endEv
Sdg:__ZN5physx6pvdsdk25PvdDefaultSocketTransport7connectEv
jOg:_ft_black_render
xga:__GLOBAL__sub_I_Runtime_Interfaces_2_cpp
Xlq:_Transform_1_BeginInvoke_m87F3EE6F8D1C453BEFF682A082728592AD4BDEAC_gshared
G2t:dynCall_viiifi
mrc:__ZN18GfxFramebufferGLES20ActiveContextChangedEPP17RenderSurfaceBaseS2_
D6t:_glAttachShader__wrapper
t9p:_AnchorInfo__ctor_m3F2536778C6F80417FD9E932129FA311290B0E6D
R1a:__Z19PluginsRenderMarkeri
S6q:_Enumerator_get_Current_mC146D06B1786B8486E29A0E84DCB82EE683AB97E_AdjustorThunk
GNe:__ZN5physx2Gu17contactSphereMeshERKNS0_13GeometryUnionES3_RKNS_11PxTransformES6_RKNS0_17NarrowPhaseParamsERNS0_5CacheERNS0_13ContactBufferEPNS_2Cm12RenderOutputE
l_c:__ZNSt3__26vectorIN9ShaderLab20SerializedSubProgram15StructParameterENS_9allocatorIS3_EEE6assignINS_11__wrap_iterIPS3_EEEENS_9enable_ifIXaasr21__is_forward_iteratorIT_EE5valuesr16is_constructibleIS3_NS_15iterator_traitsISC_E9referenceEEE5valueEvE4typeESC_SC_
Qvl:_CameraPlayable_GetHandle_mC710651CAEE2596697CFFC01014BEB041C67E2B4_AdjustorThunk
e8q:_Stack_1_Pop_m775FE83F320DC74FC2D399ECACBAFB4C1E91E6FD_gshared
s2p:_Interpreter_CreateMark_m5842C93DBAC75FF865759865C1D40A8761E6C143
F2e:__ZNK5physx3Ext5JointINS_15PxDistanceJointENS_30PxDistanceJointGeneratedValuesEE18getConstraintFlagsEv
nwt:__ZNSt3__214__split_bufferIN6il2cpp2vm5Image20EmbeddedResourceDataERNS_9allocatorIS4_EEEC2EjjS7_
wbs:_Version__ctor_m6F990EB264310E8E1AFDBCEC5668CDF132432F68
Jsf:__ZNK5physx7NpCloth25getNbSelfCollisionIndicesEv
DDj:_ActivationServices_get_ConstructionActivator_m053C048075E348EC7BA460D456D6B1777DCE8DDB
L$:__ZZN8Animator15InitializeClassEvEN31FunctorImpl_501kDidAddComponent4CallEPviR11MessageData
Pvm:_Array_InternalArray__ICollection_Remove_TisDecimal_t46BBDD161320E361BC57E00CD6C1F87256CA27F3_m62D44F70F82C6BFF076228457CD953BF0FED96C8_gshared
TDs:_Canvas_get_scaleFactor_m0F6D59E75F7605ABD2AFF6AF32A1097226CE060A
M5k:__ZN62OpCodes_t68E6B52B0B80EC63090337A0C70E8CD9CC57F560_StaticFields12set_Beq_S_45E48OpCode_tFBF4FC2990E657EA00DA0BB36BE0CC73515E6511
pEl:__Z124Mesh_GetAllocArrayFromChannel_TisColor32_t23ABC4AE0E0BDFD2E22EE1FA0DA3904FFE5F6E23_mBD28E289F6DA9261F8B48C346E498E4CE24131C9P46Mesh_t6106B8D8E4C691321581AB0445552EC78B947B8CiiiPK10MethodInfo
Lwe:__ZNSt3__227__insertion_sort_incompleteIR15DepthComparitorP8DepthHitEEbT0_S5_T_
m1r:__Z63Dictionary_2_set_Item_mB2CFA325B47C43C9E27C606844FE1AED4CD344A2P54Dictionary_2_t0F1A21E14D53E05B0F1D474060AC4B36995FBCA1iP53LayoutCache_t0D14FE6139444D164ECA5D31E39E625D80077468PK10MethodInfo
R3h:__ZL93AnalyticsSessionInfo_tE075F764A74D2B095CFD57F3B179397F504B7D8C_CustomAttributesCacheGeneratorP21CustomAttributesCache
flt:__ZN15dense_hashtableINSt3__24pairIK10KeyWrapperINS1_IP11Il2CppClassjEEES4_EES6_N6il2cpp8metadata14ArrayClassHashEN14dense_hash_mapIS6_S4_SB_NS6_14EqualsComparerINSA_17ArrayClassCompareEEENS0_9allocatorIS8_EEE9SelectKeyESF_SH_E4swapERSK_
bYd:__Z14ToJsonInternal18ScriptingObjectPtrb
ZDf:__ZN5physx2Sc5Scene22setNbContactDataBlocksEj
GRa:__ZN9Scripting11UnityEngine12Experimental9Playables27MaterialEffectPlayableProxy9InitProxyEv
JXj:_Char_System_IConvertible_ToDouble_mEDCC2FC34CED0995416470778414084EBCCBF1E5
hfa:__ZN5physx14PxLightCpuTask12addReferenceEv
zeb:__ZNK15InstancingProps35FillInstanceBufferDispatchConstantsIN10Instancing14RenderLoopArgsEEEvPPvjjRK19ShaderPropertySheetRKT_
AVp:_Transform_get_localRotation_mEDA319E1B42EF12A19A95AC0824345B6574863FE
Tzt:__ZN6il2cpp2gc16GarbageCollector19InitializeFinalizerEv
Y7k:__ZN62OpCodes_t68E6B52B0B80EC63090337A0C70E8CD9CC57F560_StaticFields19set_Conv_Ovf_I2_165E48OpCode_tFBF4FC2990E657EA00DA0BB36BE0CC73515E6511
UNd:__ZN10GUIManager10DoGUIEventER10InputEventb
Rzs:_PhysicsScene_Raycast_mA90972A8E828722A26EBC754EABB3086BE6E2336
R5b:__Z35Transfer_Blittable_FixedBufferFieldI24GenerateTypeTreeTransferxEvRK29SerializationCommandArgumentsR31RuntimeSerializationCommandInfo
yIg:_otv_LangSys_validate
Gsj:_Comparer_1_System_Collections_IComparer_Compare_mCBAF5880B348FD1A295BE5C1D9640F9F453A42C7_gshared
dis:_X509CertificateEnumerator_Reset_m1A86EDC2D33E8E33FF9881BCB7FB260A5BDA2F19
aBq:_Array_Sort_TisCustomAttributeNamedArgument_t98CF5ADD605D0BD45BB33196EF5C2FEE889B1328_TisCustomAttributeNamedArgument_t98CF5ADD605D0BD45BB33196EF5C2FEE889B1328_m9C8BACD88E458F59DA3B9EEBCEB5B9F50125007D_gshared
Fod:__Z24ExtractTagErroringObjectRKN4core12basic_stringIcNS_20StringStorageDefaultIcEEEEP6Object
QTc:__Z20CalculateSqrDistanceRK8Vector3fRK4AABB
X5r:_GUIStyle_ToString_mE73FFC6A93F4F7BC2560EADEB074F0E81F77CB07
B1t:dynCall_iiiiiiifiif
aEg:__ZN20TextRenderingPrivate7GUIText8TransferI19StreamedBinaryWriteEEvRT_
MWe:__ZN21BoxTraceSegmentReport7onEventEjPj
fgf:__ZN5physx2Sc21ArticulationJointCore13setSwingLimitEff
s8:__Z32AudioMixerDuckingProcessCallbackP21UnityAudioEffectStatePfS1_jii
UMe:__ZL20HullProjectionCB_BoxRKN5physx2Gu13PolygonalDataERKNS_6PxVec3ERKNS_2Cm8Matrix34ERKNS7_23FastVertex2ShapeScalingERfSE_
_7c:__ZN26CustomRenderTextureManagerD2Ev
iIs:__ZN50Particle_t64AF74F5D9C7EE7018AD98F29E4FF653558A581E18set_m_StartColor_8E49Color32_t23ABC4AE0E0BDFD2E22EE1FA0DA3904FFE5F6E23
tEi:_EventTrigger_OnScroll_m4C907E81EE6314AE25AE846C07DCE79664E829DB
Klq:_Transform_1_Invoke_m35A1B91285C5BB291C11F852C2AC85BF89C6E73D_gshared
XEj:_RemoteActivator_InitializeLifetimeService_m3EBC13DBD87B6C845FD4FAE498C6B21C17DECA83
l3a:__ZN23DynamicVBOBufferManager15GetBufferOffsetERK16DynamicVBOBuffer
Moq:_ValueCollection_System_Collections_Generic_ICollectionU3CTValueU3E_Remove_mC8952038C12553402DE1F53C4027440EAA98A0FA_gshared
e4:__ZN12AudioManager8TransferI24GenerateTypeTreeTransferEEvRT_
Zde:__ZN16CustomDataModuleD0Ev
jnb:__Z25GetBytesFromTextureFormat13TextureFormat
Npt:__ZN6il2cpp6icalls8mscorlib6System9Threading6Thread20Thread_free_internalEP12Il2CppThreadi
xic:__ZNK11PreloadData18GetInstanceIDArrayER13dynamic_arrayIiLj0EE
b6g:__ZN11UnityEngine9Analytics15ContinuousEvent10EventDataTIfE8TransferI9JSONWriteEEvRT_
J5t:b102
dvd:__Z44RenderTexture_CUSTOM_GetDepthBuffer_InjectedP12Il2CppObjectR21ScriptingRenderBuffer
bce:__ZN16CustomDataModule8TransferI19StreamedBinaryWriteEEvRT_
qrk:_MobileInput_SetButtonDown_mEC117F49E84D1B2204A2CC0F44503858625BF50C
$9i:_InternalEnumerator_1_System_Collections_IEnumerator_get_Current_m057B94D2888BF38FA292833F66CEE345F7D63BE8_gshared
tEe:__ZN19ControllerHitReportD2Ev
Ita:__Z32scripting_class_get_assemblyname17ScriptingClassPtr
VRg:__ZN2UI13CanvasManager8SortListEv
owe:__ZN9b2Simplex9ReadCacheEPK14b2SimplexCachePK15b2DistanceProxyRK11b2TransformS5_S8_
uxm:_PlayableHandle_IsPlayableOfType_TisAnimationScriptPlayable_t73DEE79FEABE593A01BC5B5FC403DD19CEC38F5F_m2E697071283CEE2AA83E00A2503D003D60FB984D_AdjustorThunk
Ry:__Z24CrowdUpdateMultiThreadedRK17ReadonlyCrowdInfoR15UpdateCrowdInfoP12CrowdManagerPP12NavMeshQueryf
frc:__ZN7ApiGLES11UnmapBufferEjN2gl12BufferTargetE
pEe:__Z50Register_UnityEngine_Rigidbody2D_AddForce_Injectedv
sYs:__ZN6il2cpp2vm13MetadataCache23GetInvokerMethodPointerEPK10MethodInfoPK20Il2CppGenericContext
P_a:__ZN9GfxDevice21RegisterNativeTextureE9TextureIDi16TextureDimension
Yui:_ObjectReader_SetObjectValue_mE261DE10CA8E05A89F01A5EBC9647874C137A553
fXq:_List_1_AddEnumerable_m5DEB9A52F996A62E0D93664006D1C9E260990DA5_gshared
$Dq:_ScreenSpaceAmbientOcclusion_DestroyMaterial_m2B59825C8164905408429C025632F569A27341A5
TRt:__ZN6il2cpp6icalls8mscorlib6System10Reflection4Emit11TypeBuilder20create_generic_classEP27Il2CppReflectionTypeBuilder
xrc:__ZNK16UniformCacheGLES6SubmitEjRK13dynamic_arrayIN20GpuProgramParameters14ValueParameterELj0EERKS0_IiLj0EE
y2n:_Environment_InternalGetFolderPath_m2C59F18BB28A0F28F0C9DA4AC341211B1469B556
CYo:_DSA_Create_m2D0FFEC698BC8C59A287714F7EE926439C67272F
lda:__Z60Register_UnityEngine_AudioListener_GetNumExtensionPropertiesv
$Ub:__ZN12ScriptMapperD2Ev
fNr:_SpawnRewardLocation_Start_mCAFC5895BFB93E4BFDDA4E1917A48D0BCD743D67
B1e:__ZN9Rigidbody13AwakeFromLoadE17AwakeFromLoadMode
P_d:__ZN9SubModule8TransferI14SafeBinaryReadEEvRT_
XEp:_Int32_System_IConvertible_ToSByte_m26775A765BE2E169882C0E24A91D63419EC590E4_AdjustorThunk
p_d:__ZN14ParticleSystem15AddCustomLightsERK27LocalLightCullingParametersRK11CullResultsR12ActiveLightsRi9LightType
xkf:__ZNK5physx14NpSceneQueries10multiQueryINS_12PxOverlapHitEEEbRKNS_15MultiQueryInputERNS_13PxHitCallbackIT_EENS_7PxFlagsINS_9PxHitFlag4EnumEtEEPKNS_12PxQueryCacheERKNS_17PxQueryFilterDataEPNS_21PxQueryFilterCallbackEPNS_20BatchQueryFilterDataE
Hup:_FileStream__ctor_m1F6DCB074B56A35A0D2A3E06D782650B7195B8E6
hEt:___cxx_global_var_init_3_43981
NPa:__ZN9Scripting11UnityEngine12Experimental10PlayerLoop14Initialization32AsyncUploadTimeSlicedUpdateProxy12CleanupProxyEv
Zbb:__ZNSt3__26vectorIN12FlareManager10FlareEntryENS_9allocatorIS2_EEE21__push_back_slow_pathIS2_EEvOT_
FVm:_PrivateKeyInfo_Normalize_m20D9B81E2DD69459E4545259935DAA3F1DDF12F1
hrd:__ZL34GetComponentsImplementationRecurseILb1ELi0ELi0EEbR10GameObjectbRK17CompareParametersRK39GetComponentsImplementation_ReturnValueP21ScriptingExceptionPtr
U_p:_CaptureCollection_SetValue_mEF7B4C9E169C4B5ABC8FAAEF5AC8D27C61ABE178
Psh:__ZL94IntPtr_t_CustomAttributesCacheGenerator_IntPtr__ctor_m978E848ED46E2A8B99FA7EFEA9288309AF5D2B5EP21CustomAttributesCache
o_d:__ZN14ParticleSystem23RendererBecameInvisibleEv
D7a:__ZNK7Hash12812PackToUInt32Ev
Cbt:__ZNSt3__218uninitialized_fillIPNS_4pairIK10KeyWrapperINS1_IPK12PropertyInfoP11Il2CppClassEEEjEESB_EEvT_SD_RKT0_
oMd:__ZN9Scripting11UnityEngine19GUILayoutEntryProxy9InitProxyEv
tcm:__Z261RuntimeInvoker_FalseVoid_tDB81A15FA2AB53E2401A76B745D215397B29F783_SByte_t50B643C59EE66E3364AED19D82E06B27BDE75268_SByte_t50B643C59EE66E3364AED19D82E06B27BDE75268_VoidU2A_t8A995245462F8BDC7319CC68F09ACF295FDD2879_Single_tF2613CF3F3AF0E8BEBC3CE8AD41479C44E6075DBPFvvEPK10MethodInfoPvPS4_
hAi:_AxisEventData_set_moveVector_m48650D1E5F041E8E5977FEB65EA02FF8ACFA228B
Ova:__ZNSt3__227__insertion_sort_incompleteIRNS_6__lessI14ObjectLoadDataS2_EEPS2_EEbT0_S6_T_
UBd:__Z45Register_UnityEngine_Camera_set_targetTexturev
JZq:_List_1_Remove_mC51FBCFAE74488EE68DBE4E8E0FCC507CC85FE9F_gshared
Qtr:_Comparison_1_BeginInvoke_m666D2372E850E40567A62C7F5F9DF876796C2784_gshared
Cjn:_PKCS12_AddCertificate_m83456DCF84F8E4CB2D645DF36812B805C13779A6
Vwn:_Scrollbar_set_direction_m5B03A56846073AC48D2CDDC5FD67189C0EF1E329
v4t:_glGetStringi__wrapper
fRj:_MethodResponse_InitMethodProperty_mED8802E9887B0483D1FC58D19900637182C28A2D
sub:__ZN10VertexData8TransferI14SafeBinaryReadEEvRT_
mff:__ZN5physx19NpArticulationJointD0Ev
FCa:__ZN13RuntimeStaticI12AdsIdHandlerLb0EE16StaticInitializeEPv
IOt:_GC_malloc_atomic
Klb:__ZN18StreamedBinaryRead21TransferSTLStyleArrayI13dynamic_arrayI19LightProbeOcclusionLj0EEEEvRT_17TransferMetaFlags
cor:_ReadOnlyCollection_1_System_Collections_Generic_ICollectionU3CTU3E_Remove_m3E62D7F99D2F76C0AAA38EB8C2B0F3A06C846ED4_gshared
HPt:__ZN6il2cpp5utils6Memory13AlignedMallocEjj
vCf:__ZNK5physx7NpScene17getFilterCallbackEv
D4k:_OpCode__ctor_mD0145AABE808F6309DAED98C3BA8D1AFC196CCE4_AdjustorThunk
vNl:_ServicePointManager_FindServicePoint_m3F64A5EB6FACA1B902AC4407A878CF694F6521CE
$sg:__ZN26LegacyTreeInstanceRenderer14DisableShadowsEv
Nlg:__Z35Physics_CUSTOM_get_gravity_InjectedR8Vector3f
gls:_AudioSettings_GetSpatializerPluginName_mB972ACF5EF94BF57E3C59B0237B7722345896ACC
pwt:__ZNSt3__214__split_bufferIN6il2cpp2vm5Image20EmbeddedResourceDataERNS_9allocatorIS4_EEED2Ev
Wra:__ZL20SortItemByInstanceIDRKN18AwakeFromLoadQueue4ItemES2_
Jhg:__ZN5physx6shdfnd5ArrayIPvNS0_15InlineAllocatorILj256ENS0_19ReflectionAllocatorINS_24NpPtrTableStorageManager8PtrBlockILi16EEEEEEEE15growAndPushBackERKS2_
cUn:_DateTimeOffset__ctor_mC33BF2C095658CA4F8233AB55FD34E961DC8DAA8_AdjustorThunk
Kyg:__ZN9Scripting11UnityEngine8TextCoreL49__ManagedRegistrationHelperFunction_FaceInfoProxyEPv
AHr:__ZNK56DataController_t669DEB1D9B057EFACA909D24230F15EAD9A06D3C31get_participantFeedbackGiven_11Ev
hvd:__Z36RenderTexture_CUSTOM_Internal_CreateP12Il2CppObject
Pf:_emscripten_cancel_main_loop
EK:__ZNK34AnimationStateMachineMixerPlayable26GetInterruptedPosePlayableEv
d7g:__ZN20UnityConnectSettings8TransferI24GenerateTypeTreeTransferEEvRT_
zU:__ZN34BlobWriteTransferSTLStyleArrayImplI22OffsetPtrArrayTransferIbEEclERS1_17TransferMetaFlagsR9BlobWrite
rIn:_KeyBuilder_get_Rng_m641ACA5A3BBA71A0BE7A8F1D6FD8A9101C53685D
Zsp:_BinaryWriter_Write_m85BE4B7FAF91799C5A53B692647CBC9C5C4933B0
bZs:__ZN6il2cpp2vm13MetadataCache31GetParameterDefinitionFromIndexEi
eze:__ZN25b2SynchronizeFixturesTask7TaskJobEPS_j
DS:__ZN18StreamedBinaryRead21TransferSTLStyleArrayI13dynamic_arrayI12PPtrKeyframeLj0EEEEvRT_17TransferMetaFlags
x7e:__ZN5physx7NpShape13setRestOffsetEf
$o:__ZN12NavMeshAgent5ResetEv
Hnf:__ZNK5physx2Sc16ArticulationCore17releaseDriveCacheERNS_2Dy6FsDataE
JAa:__ZL31InitializeRendererUpdateManagerPv
a5t:b76
zUg:__ZN2UI13CanvasManager14GetRenderOrderEPKNS_6CanvasE
nOd:__ZN8GUIState12GetControlIDEi9FocusTypeRK5RectTIfE
cGp:_Int64_System_IConvertible_ToUInt32_m13477A6AAB2D38DB60E70292FC18389CFFED1E30
Hsn:__ZN58RaycastHitU5BU5D_tE9BB282384F0196211AD1A480477254188211F5714SetAtUncheckedEj52RaycastHit_t19695F18F9265FE5425062BBA6A4D330480538C3
erf:__ZNK5physx7NpCloth16lockParticleDataEv
Tb:invoke_vfiiiii
VFq:_Twirl__ctor_m57527008D9EC7A91BCAC311E5B1A52B19D62964D
zbe:__ZN27ParticleSystemEmissionBurst8TransferI18StreamedBinaryReadEEvRT_
ioe:__ZN5Unity9rapidjson12GenericValueINS0_4UTF8IcEE13JSONAllocatorE9AddMemberERS5_S6_RS4_
q3a:__ZN23DynamicVBOBufferManager21AcquireSharedInternalER9GfxDevice15GfxBufferTargetjj
hhb:__ZN14ShadowSettings8TransferI18StreamedBinaryReadEEvRT_
Cpn:__Z54List_1_Clear_m0C67C1DF586B639408A8A7A58EC1ACA4C74E5753P48List_1_tFF4005B40E5BA433006DA11C56DB086B1E2FC955PK10MethodInfo
sHs:__ZL12normalize128PyS_Piii
M1a:__ZN14QueueAllocatorC2Ej10MemLabelId
hDd:__Z41Register_UnityEngine_GL_set_invertCullingv
UIg:_compare_uni_maps
bFe:__ZN9Scripting11UnityEngineL48__ManagedRegistrationHelperFunction_PhysicsProxyEPv
pzr:_Array_InternalArray__get_Item_TisLink_t27765EAAD50ABCB6BB069F48690A2BA0617FD09F_mB0F7CFF86A061B51E4B4E13BC0D767F4C1D6094E_gshared
q1g:__ZN11UnityEngine15PlatformWrapper27GetGraphicsCapsSupportFlagsEv
USi:_ColorBlock_GetHashCode_m3768567035F950E7951EF5DF2D33F0C41EB0CC75_AdjustorThunk
GHf:__ZN5physx13NpRigidStatic9visualizeERNS_2Cm12RenderOutputEPNS_7NpSceneE
B9b:__ZN12NativeBufferI16Converter_StringE15SetupForWritingER9ArrayInfo
NPd:__Z46Register_UnityEngine_GUIStyle_GetRectOffsetPtrv
hzl:_Object_op_Equality_mBC2401774F3BE33E8CF6F0A8148E66C95D6CFF1C
Fhe:__ZL24GenerateParticleGeometryIL24ParticleSystemRenderMode0ELb1ELb0EL25ParticleSystemRenderSpace4EEvPfRK22ParticleSystemTempDataRK26ParticleSystemRendererDataRK21ParticleSystemModulesRK23ParticleSystemParticlesRK31ParticleSystemParticlesTempData
cBs:_RaycastHit_get_distance_m1CBA60855C35F29BBC348D374BBC76386A243543_AdjustorThunk
ctn:__ZN52ScrollRect_tAD21D8FB1D33789C39BF4E4CD5CD012D9BD7DD5116set_m_Corners_39EP55Vector3U5BU5D_tB9EC3346CC4A0EA5447D968E84A9AC1F6F372C28
lbq:_Repetition_Compile_m282B230D6BB467CE23FED329633BE4D1C1F95271
ifd:__ZNK10GameObject22GetComponentPtrAtIndexEi
kph:__ZL85UTF8Encoding_t4FD1C5DCBC2F470E97BDFDC2BB1518BB208C1D15_CustomAttributesCacheGeneratorP21CustomAttributesCache
VEf:__ZNK5physx13NpVolumeCache10multiQueryINS_12PxRaycastHitEEEbRKNS_15MultiQueryInputERNS_13PxHitCallbackIT_EENS_7PxFlagsINS_9PxHitFlag4EnumEtEERKNS_17PxQueryFilterDataEPNS_21PxQueryFilterCallbackEf
gD:__ZN9Scripting11UnityEngine10Animations33AnimationRemoveScalePlayableProxy9InitProxyEv
_Fs:_PhysicsScene2D_Raycast_Internal_Injected_m197B563F302D9E7C336EE7BB0A356F6785F1584A
U5m:_Array_Sort_m1CD54D0ACA99E74C83D3A86043DD2A9C169232DC
HPg:__Z38TextGenerator_Get_Custom_PropLineCountP12Il2CppObject
D$t:_llvm_cttz_i32
dNe:__ZN5physx2Gu25contactCapsuleHeightfieldERKNS0_13GeometryUnionES3_RKNS_11PxTransformES6_RKNS0_17NarrowPhaseParamsERNS0_5CacheERNS0_13ContactBufferEPNS_2Cm12RenderOutputE
FOd:__ZN11IMGUIModule25GetGUIStyleScriptingClassEv
sLg:_tt_get_interface
amg:__Z46Register_UnityEngine_Rigidbody_set_isKinematicv
Xtr:_Comparison_1_BeginInvoke_m13835F2A8706309663DB2DF34538255A22A23A61_gshared
_Zp:_WaitForSeconds__ctor_m8E4BA3E27AEFFE5B74A815F26FF8AAB99743F559
Ord:__ZN13PlayableGraph21InvalidateMultithreadEv
OQj:_MethodCall_get_Properties_m4A3B909B94B4B7E14FADFFDED42A4EFED3E7FC9F
q2e:__ZNK5physx15PxDistanceJoint19getConcreteTypeNameEv
Bbe:__ZN25IParticleSystemProperties8PropertyI8Vector3fNS_3MinILi0EEEE8TransferI18StreamedBinaryReadEEvRT_PKc
Zla:__Z18ConvertUTF16toUTF8PPKtS0_PPhS2_15ConversionFlags
GGt:__ZN6il2cpp2os20PathErrnoToErrorCodeERKNSt3__212basic_stringIcNS1_11char_traitsIcEENS1_9allocatorIcEEEEi
ITr:_InvokableCall_1_Invoke_mA6B2CB19A7E33289A03778EE77425E4FABB96329_gshared
oHs:__ZL16my_g_bit_nth_msfj
tHj:_CADMessageBase_UnmarshalArgument_m84473BAD645660D74E3DEC95B1885E8CF95ED68B
emt:__ZN15dense_hashtableINSt3__24pairIK10KeyWrapperIP11Il2CppClassES4_EES5_N6il2cpp8metadata16SZArrayClassHashEN14dense_hash_mapIS5_S4_SA_NS5_14EqualsComparerINS9_19SZArrayClassCompareEEENS0_9allocatorIS7_EEE9SelectKeyESE_SG_E12expand_arrayEjN21dense_hash_map_traits17integral_constantIbLb0EEE
H9i:_InternalEnumerator_1_get_Current_m7211F2075F9C336C10AF5CE48C7FD9DC495A4924_gshared
c$:__ZN9Animation12CleanupClassEv
D1t:dynCall_iiiiiiiii
KXn:_Decimal__ctor_m4A4D116C300D4C662AA05E0929E3DA38AE899523_AdjustorThunk
cIr:_DisplayRewardCue_Start_mEBAB1BE404F550B5B952A3F5C616D1AA330B881C
TCp:_UnexceptionalStreamWriter_Write_m29F34EB7540781CE8A366287AC305B8C8671AE24
mAc:__Z23SetupStereoFlareElementP11FlareVertexRK8Vector2fS3_S3_RK11ColorRGBA32RK10Matrix4x4fRK8Vector3fb
Daa:__ZN9AudioClip23VirtualRedirectTransferER19StreamedBinaryWrite
GJh:__ZL78Scene_t942E023788C2BC9FBB7EC8356B4FB0088B2CFED2_CustomAttributesCacheGeneratorP21CustomAttributesCache
SCp:_UnexceptionalStreamWriter_Write_mD548F927E8DDFAF33CEEA6BD4D9EECD45848B645
jb:invoke_iiiifiiii
Z$d:__Z9UpdateTplIL27ParticleSystemCurveEvalMode3EEvRK11MinMaxCurveR23ParticleSystemParticlesjjbjRKN4math7_float2E
Xrg:__ZN14DetailDatabase28GenerateTextureAtlasThreadedEv
TYd:__ZN9Scripting11UnityEngine31ParticleSystemVertexStreamProxy9InitProxyEv
XBg:_UNITY_FT_Render_Glyph_Internal
BZn:_Decimal_op_Implicit_mA0718E0FB11AACBA93AFA1204139EDC2A2D743ED
Zrc:__ZL19BlitFramebufferImplRN4gles23BlitFramebufferDrawQuadER9GfxDevice9TextureIDRK8Vector4f
S5g:__ZN11UnityEngine9Analytics15ContinuousEvent26FactoryForScriptingObjectTIfED2Ev
g8s:__ZN15dense_hashtableINSt3__24pairIK10KeyWrapperIPK10Il2CppTypeEjEES6_N6il2cpp8metadata14Il2CppTypeHashEN14dense_hash_mapIS6_jSB_NS6_14EqualsComparerINSA_26Il2CppTypeEqualityComparerEEENS0_9allocatorIS8_EEE9SelectKeyESF_SH_E4findERS7_
msg:__ZN14DetailDatabase17RefreshPrototypesEv
g3t:dynCall_viiiiiiiiiiiiii
ACg:_UNITY_FT_List_Add
K8c:__ZN14Texture2DArray11InitTextureEiii13TextureFormatb
pNo:_CryptoConvert_ToCapiPrivateKeyBlob_m7F3BFC885A31F9E5B80A4A45F1E7BCCB9BA19C17
CWd:__ZN8JSONRead8TransferI13dynamic_arrayItLj0EEEEvRT_PKc17TransferMetaFlagsb
T$e:__ZN5physx15PxGeometryQuery14getWorldBoundsERKNS_10PxGeometryERKNS_11PxTransformEf
dvf:__ZN5physx2Sc9ClothCore18setSolverFrequencyEf
PTc:__Z34TextureStreamingCalculateLoadOrderP23TextureStreamingJobData
vtt:__ZN15dense_hashtableINSt3__24pairIK10KeyWrapperIP14Il2CppIUnknownEjEES5_N6il2cpp5utils11PointerHashIS3_EEN14dense_hash_mapIS5_jSB_NS5_14EqualsComparerINS0_8equal_toIS4_EEEENS0_9allocatorIS7_EEE9SelectKeyESG_SI_E13clear_deletedER30dense_hashtable_const_iteratorIS7_S5_SB_SK_SG_SI_E
mfg:__ZN8ColliderC2E10MemLabelId18ObjectCreationMode
Tnd:__Z5SlerpRK8Vector3fS1_f
BXp:_Vector2_Equals_m4A2A75BC3D09933321220BCEF21219B38AF643AE_AdjustorThunk
fTo:_SerializationCallbacks_get_HasSerializedCallbacks_m68B08F15BC0C24685E6E5070FEE3EBF958727F53
qze:__ZN39b2PrepareDiscreteIslandContactIndexTask7TaskJobEPS_j
G_d:__ZN11ForceModule8TransferI14SafeBinaryReadEEvRT_
fco:_SHA256__ctor_m556CC3B797B543A975FC0C38C15AFC4C348DA58E
DZp:_Vector4_op_Subtraction_m2D5AED6DD0324E479548A9346AE29DAB489A8250
aUp:_Texture2DArray__ctor_mEDE73B65A89EACA4B487FFBA92B155ED5B09970F
EMe:__ZN5physx2Gu16buildPartialHullERKNS0_13PolygonalDataEPNS0_12SupportLocalERNS0_14SeparatingAxesERKNS_6shdfnd3aos5Vec3VESC_
BPb:__Z14resize_trimmedINSt3__26vectorIN4core12basic_stringIcNS2_20StringStorageDefaultIcEEEE13stl_allocatorIS6_L18MemLabelIdentifier13ELi16EEEEEvRT_j
Gfa:__GLOBAL__sub_I_Runtime_2D_SpriteAtlas_0_cpp
w0b:__Z18Transfer_BlittableI14SafeBinaryReadLb0EaEvRK29SerializationCommandArgumentsR31RuntimeSerializationCommandInfo
ulh:__ZL86_FieldBuilder_tEBD6AA56B8E903E8691523FE66DF7F0F1596A404_CustomAttributesCacheGeneratorP21CustomAttributesCache
ngo:_X509Certificate_GetName_mDDF0CE439D7D571037C026D9CC62C8024257187A
EFj:_CADSerializer_SerializeObject_mB301433ACEA408BDC54FFA2E4ACCF87FC3032A17
aVq:_RijndaelTransform__cctor_m6C6F8291114CA96A8379B03347E232C23F684EAA
zol:_Camera_get_backgroundColor_m14496C5DC24582D7227277AF71DBE96F8E9E64FF
VJo:_SimpleCollator_IndexOf_m0152273DD01D6CE95EF74CF6ED17406FAF5BC625
i3d:__ZN11NoiseModule17CalculateNoiseJobILi3ELb1ELb1EEEvP12NoiseJobData
tog:__ZN7TerrainD2Ev
XTf:__ZN5physx2Dy23PxsSolverSetupSolveTask11runInternalEv
tLm:_NumberFormatter_AppendNonNegativeNumber_mD26DC27B557C94E31C107BC737B69F59DFF4AD13
kNg:_UNITY_FT_List_Iterate
pDj:_ActivatedClientTypeEntry__ctor_mF002F8560233AD59C460152FE4A803CBF391A54B
mXq:_List_1_CheckMatch_mDD81172F93013535A2D8679A296D15D4499F1AF9_gshared
Kvo:_UTF8Encoding_InternalGetChars_m98D4E04BC78A14660476CEC33FFB018C58F69E07
iaf:__ZN5physx11NpAggregate7releaseEv
k$f:__ZN5physx2Bp28PersistentActorAggregatePair6updateERNS0_17SimpleAABBManagerE
pOg:_Render_Single_Pass
f0c:__ZN15SerializeTraitsINSt3__26vectorIN9ShaderLab20SerializedSubProgram15MatrixParameterENS0_9allocatorIS4_EEEEE8TransferI24GenerateTypeTreeTransferEEvRS7_RT_
MOk:__Z23il2cpp_codegen_multiplyIxxEN11pick_biggerIT_T0_E4typeES1_S2_
Phq:_ShimEnumerator_MoveNext_m1972A7B70605371C2898E941822D648BEDF856CB_gshared
$xc:__Z20SyncFenceCullResultsR11CullResults
Ctc:__ZN15TextureTFMethod20IsBoneCountSupportedEi
dIc:__ZN14GfxDeviceStats16AddShadowCastersEi
c5b:__Z22TransferField_NonArrayI17RemapPPtrTransfer27Converter_SimpleNativeClassI8GUIStyleEEvRK23StaticTransferFieldInfoR31RuntimeSerializationCommandInfoRT0_
r7e:__ZN5physx7NpShape12setMaterialsEPKPNS_10PxMaterialEt
w9g:__ZNK20UnityWebRequestProtoI24UnityWebRequestTransport16AtomicRefCounter14RedirectHelper14ResponseHelper15DownloadHandler13UploadHandler18CertificateHandler12HeaderHelper14AsyncOperationE16GetUploadedBytesEv
KEt:__ZN6il2cpp2os6Thread12QueueUserAPCEPFvPvES2_
got:__ZN6il2cpp2vm9Exception11FromNameMsgEPK11Il2CppImagePKcS6_S6_
pdb:__ZN19ShaderPropertySheet10SetTextureERK23FastTexturePropertyNameP7Texture
W0o:_RNGCryptoServiceProvider_RngOpen_m1D8C0D871472BA21298E8602BB5A6E06DC63F840
a4m:_ArgIterator_Equals_m4514B279331B195C28E8107F6A20AFAF60C7F92C
wLs:__ZNSt3__211char_traitsIcE4copyEPcPKcj
KPo:_MACAlgorithm_Initialize_mE2233C0AE29F42ACFCEFA8E958A804787BC073B0
u7a:__ZN11SpriteAtlas23VirtualRedirectTransferER14SafeBinaryRead
Wld:__ZN4Mesh10SetNormalsEPK8Vector3fj
pUa:__ZN9Scripting5Unity11Collections14AllocatorProxy12CleanupProxyEv
Mem:__Z168RuntimeInvoker_FalseSingle_tF2613CF3F3AF0E8BEBC3CE8AD41479C44E6075DB_Vector2_tA85D2DD88578276CA8A8796756458277E72D073D_Vector2_tA85D2DD88578276CA8A8796756458277E72D073DPFvvEPK10MethodInfoPvPS4_
WNh:__ZL146GameObject_tBD1244AD56B4E59AAD76E5E7C9282EC5CE434F0F_CustomAttributesCacheGenerator_GameObject_SetActive_m25A39F6D9FB68C51F13313F9804E85ACC937BC04P21CustomAttributesCache
U$g:__ZN11UnityEngine9Analytics18RestFileDownloader13OnReceiveDataEPKvj
vRt:__ZN6il2cpp2os11MutexHandle4WaitEv
g2g:__ZN18BaseUnityAnalyticsD2Ev
UQ:__ZN17AnimationCurveTplIfE8TransferI14SafeBinaryReadEEvRT_
ICj:_Marshal_Copy_m224CDA7B990C405303AC1F6A2105649AE5A94F5B
s5g:__ZN11UnityEngine9Analytics15ContinuousEvent9HistogramIdE13SetThresholdsEiPKd
p9c:__Z40CleanupRendererAnimationBindingInterfacev
Jjd:__ZNSt3__26__treeINS_12__value_typeIN9ShaderLab16FastPropertyNameE10ColorRGBAfEENS_19__map_value_compareIS3_S5_NS_4lessIS3_EELb1EEENS_9allocatorIS5_EEE14__assign_multiINS_21__tree_const_iteratorIS5_PNS_11__tree_nodeIS5_PvEEiEEEEvT_SK_
BVc:__Z29StdTemplateConversionFunctionIybEbPvR14SafeBinaryRead
LDb:__ZNSt3__26vectorIN15QualitySettings14QualitySettingENS_9allocatorIS2_EEE6assignIPS2_EENS_9enable_ifIXaasr21__is_forward_iteratorIT_EE5valuesr16is_constructibleIS2_NS_15iterator_traitsIS9_E9referenceEEE5valueEvE4typeES9_S9_
E3:__ZN12AudioManager21FixMasterGroupRoutingEv
eKn:_PKCS1_I2OSP_mD8BAB7816A26BBE92981F72EB922A7A9C154F8D7
vl:FUNCTION_TABLE_idiii
Sk:FUNCTION_TABLE_dfi
fPf:__ZN5physx2Gu14gjkPenetrationINS0_14RelativeConvexINS0_9TriangleVEEENS0_11LocalConvexINS0_17ShrunkConvexHullVEEEEENS0_9GjkStatusERKT_RKT0_RKNS_6shdfnd3aos5Vec3VERKNSG_6FloatVERSH_SN_SN_RSK_PhSP_Rhb
LUp:_TouchScreenKeyboard_get_text_mC025B2F295D315E1A18E7AA54B013A8072A8FEB0
$kq:_Transform_1_Invoke_m23C53FAA31EAFA78B94C04132DA3D09E6B89B9F2_gshared
TXa:__ZN11TimeManager8TransferI18StreamedBinaryReadEEvRT_
H9l:__Z122RuntimeInvoker_TrueRuntimeObject_RuntimeObject_RuntimeObject_RuntimeObject_Int32_tC16F64335CE8B56D99229DE94BB3A876ED55FE87PFvvEPK10MethodInfoPvPS4_
Blh:__ZL80_Module_tDC52FD2725F6C303D9A8B8523B1E502BEA9CF01C_CustomAttributesCacheGeneratorP21CustomAttributesCache
c5a:__ZN20GpuProgramParameters14AddVectorParamEPKcii15ShaderParamTypeiiiP16PropertyNamesSet
wzm:_Array_InternalArray__IEnumerable_GetEnumerator_TisUILineInfo_t0AF27251CA07CEE2BC0C1FEF752245596B8033E6_mD09B1BCC9CB31E4396128532873A79BB1C61B705_gshared
Zqs:_AnimationScriptPlayable_GetHandle_mE9B490654A320F11EFBB0E3180C6CF647E384C80_AdjustorThunk
Gpq:_ValueCollection_System_Collections_Generic_ICollectionU3CTValueU3E_Remove_mB99E6CD4E76AEA295DE9F5680F59BBE65B13527D_gshared
dIe:__ZN5physx2Gu23distancePointBoxSquaredERKNS_6PxVec3ES3_S3_RKNS_7PxMat33EPS1_
P8g:__ZNK12HeaderHelper3GetERKN4core12basic_stringIcNS0_20StringStorageDefaultIcEEEE
uip:_Enumerator_VerifyState_m82C28E2CF79747048202F8D371DCB853EECF0EE2_gshared
IYa:__ZN9InputAxis8TransferI14SafeBinaryReadEEvRT_
Bra:__ZNK21ExecutionOrderManager30GetCustomAwakeFromLoadQueueForEPKN5Unity4TypeE
PBf:__ZNK5physx7NpScene9getActorsENS_7PxFlagsINS_15PxActorTypeFlag4EnumEtEEPPNS_7PxActorEjj
zxd:__Z32Material_CUSTOM_CreateWithShaderP12Il2CppObjectS0_
bOf:__ZN5physx19PxsMaterialCombiner18combineRestitutionERKNS_15PxsMaterialDataES3_
hdt:__ZN6il2cpp2vm10Reflection27GetCustomAttributesCacheForEP25Il2CppReflectionParameter
Kci:__ZL80Fisheye_tC3A1881A98D693CEA35E771932EE09C88CA36F23_CustomAttributesCacheGeneratorP21CustomAttributesCache
kPi:_Button_Press_m0C24A5004238FAD62C22F7737EAA535DD21A1D5A
Rul:_PersistentCallGroup_Initialize_m9F47B3D16F78FD424D50E9AE41EB066BA9C681A3
zVo:_SByte_System_IConvertible_ToDateTime_m1B79B085BF0486690AD89F2E7805ECE558BA8D19_AdjustorThunk
WEm:_Math_Ceiling_mE3AB87AAF82B506C146BD6CDFB90663A7B636FAE
Wkj:_InternalEnumerator_1__ctor_m1C177772E2A0A59F88534482D538B34E96A9B587_AdjustorThunk
$yt:___cxx_global_var_init_43653
Lbm:__Z313RuntimeInvoker_FalseVoid_tDB81A15FA2AB53E2401A76B745D215397B29F783_VoidU2A_t8A995245462F8BDC7319CC68F09ACF295FDD2879_VoidU2A_t8A995245462F8BDC7319CC68F09ACF295FDD2879_VoidU2A_t8A995245462F8BDC7319CC68F09ACF295FDD2879_Single_tF2613CF3F3AF0E8BEBC3CE8AD41479C44E6075DB_SByte_t50B643C59EE66E3364AED19D82E06B27BDE75268PFvvEPK10MethodInfoPvPS4_
E9j:_DateTime_get_Year_m74B963E69C6A95ACE68B32001C3A8498886ECE09
qPo:_KeyPairPersistence__IsMachineProtected_mD67291B4F34D3E6429CE302BE02AB19B01829668
VBe:__ZNK17Physics2DSettings22GetTypeVirtualInternalEv
xFp:_Int32_ToString_mF5E631B8CE8FFEE3F112C4D6B71C024AE4627AE0
s7:__ZN10ObjectPoolIN4FMOD12ChannelGroupENS0_13ChannelGroupIEE7SetSizeEi
o6m:_ArrayTypeMismatchException__ctor_m53A5E4BEF2759F07D53B9F5ABAA2A0328CC85737
D$s:_NavMeshAgent_get_remainingDistance_m47A559FB06896E86E44A8DD7C756722E0E6EA9DB
$Hc:__ZN26SetAndRestoreWireframeModeD2Ev
m6h:__ZL97ColorBlock_t93B54DF6E8D65D24CEA9726CA745E48C53E3B1EA_CustomAttributesCacheGenerator_m_NormalColorP21CustomAttributesCache
MJg:_tt_sbit_decoder_load_bit_aligned
f4a:__ZN9GfxDevice8OnDeleteEv
VPr:_Predicate_1_Invoke_m2C30422CDBEAB0669DF19E177A6E411E8C753FB1_gshared
KQs:__ZN6il2cpp5utils11StringUtils4HashIcEEjPKT_
ndj:_InternalEnumerator_1_System_Collections_IEnumerator_get_Current_m3B9AB8435F3DDD81F8F8994E7BA3EC8E44581A77_gshared
Rkj:__Z71InternalEnumerator_1_MoveNext_mEFF3BBBFEE373B6B5DA2E130F2A7993221C9EE9CP62InternalEnumerator_1_t5989E183D5F45BA23F3B8629F0CED5A79B2CFE86PK10MethodInfo
f1m:_SmallXmlParser__ctor_m125D2076AEAC1FDA0B55CA31D47664B378001366
_jp:_Enumerator_get_Current_mADEF5DD8A16F23382122BDD5DC800C397EFE04ED_AdjustorThunk
bUa:__ZN9Scripting5Unity11Collections8LowLevel6Unsafe54NativeContainerSupportsDeferredConvertListToArrayProxy12CleanupProxyEv
_Xg:__ZN11UnityEngine9Analytics22EventLimitReachedEventC2EjyyRKN4core12basic_stringIcNS2_20StringStorageDefaultIcEEEEb
Urf:__ZNK5physx7NpCloth25getMotionConstraintConfigEv
g2b:__Z14resize_trimmedINSt3__26vectorI17AnimationCurveTplIfE13stl_allocatorIS3_L18MemLabelIdentifier1ELi16EEEEEvRT_j
WTl:_X509BasicConstraintsExtension_CopyFrom_m2DE572F82CF0EB35D7794A683B8867C86698B8FC
L$n:_StackTrace_init_frames_m274BFAD86536040C94D34BADCC798FA8A8372E5D
qod:__Z12GUIDToStringRK9UnityGUID
V9:__ZN11SoundHandleC2ERKS_
z1m:_SmallXmlParser_ReadContent_mB7280746C577AB69487EBF2E2327EE99C1EC427D
AE:__ZN17AnimationPlayableC2E18DirectorPlayerType
U7g:__ZN22UnityAnalyticsSettingsC2Ev
_Ws:__ZNK6il2cpp5utils11collections13ArrayValueMapIPK10Il2CppType17Il2CppInteropData26InteropDataToTypeConverterNS_8metadata14Il2CppTypeLessENS8_26Il2CppTypeEqualityComparerEE10find_firstERKS5_
Vdq:_Uri_GetHashCode_mBEC005B5F7AC842D6791AF4C15B26C6B460E9BAD
GVo:_SByte_System_IConvertible_ToInt32_m8C89845E67DD73B4A3D07976D1F15056929C8CAB
qhc:__ZN8Material11SetPassFastEPN9ShaderLab4PassER17ShaderPassContextP6ShaderibPNS0_11SubProgramsE
aEf:__ZN5physx6shdfnd11TlsGetValueEj
Hft:__ZN13Il2CppHashMapINSt3__24pairIPK9EventInfoP11Il2CppClassEEj17ReflectionMapHashIS7_ENS0_8equal_toIS7_EENS0_9allocatorINS1_IK10KeyWrapperIS7_EjEEEEEC2EjRKS9_RKSB_
wA:__ZNSt3__26__sortIR23DependencySortPredicatePN4core4pairIiP9BehaviourLb0EEEEEvT0_S9_T_
MKt:__ZN6il2cpp6icalls8mscorlib6System7Runtime16CompilerServices14RuntimeHelpers15InitializeArrayEP11Il2CppArrayi
wYj:_Char_IsSurrogate_mAE0030FB92D4A3E8925A05B914383D4CF48C61E8
aKc:__Z10destruct_nI13dynamic_arrayIP16CustomCullResultLj0EEEvPT_j
YG:__ZN17AnimationPlayable18DeallocateBindingsEv
Whr:_Collection_1__ctor_m3A68FEC8AFB8248B90BBBCFDD9CAF72A34345CE6_gshared
$Ul:_X509Certificate2_Verify_m0E2E09FA6B282B585CE5ECD88EC3ED04E6D34FD5
dQc:__Z59ProcessShadowCasterNodeVisibilityAndCullWithoutUmbra_KernelILN17CullingParameters9LayerCullE2ELi8EEvR9IndexListRKS0_PK12LODDataArrayPK9SceneNodePK4AABBjjPKN4math7_float4E
rmb:__ZN14RenderSettings18TransferDeprecatedI14SafeBinaryReadEEvRT_
eot:__ZN6il2cpp2vm9Exception27RaiseNullReferenceExceptionERKNS_5utils10StringViewIDsEEP19Il2CppSequencePoint
QXp:_Vector2_get_right_mB4BD67462D579461853F297C0DE85D81E07E911E
$yd:__Z32Behaviour_Set_Custom_PropEnabledP12Il2CppObjecth
fHs:_Rigidbody2D_set_velocity_mE0DBCE5B683024B106C2AB6943BBA550B5BD0B83
Eha:__ZN12TLSAllocatorI14StackAllocatorE8AllocateEji
e7t:_glBindSampler__wrapper
_sa:__ZN16ScriptingManager18GetMonoScriptCacheEi
Sap:_Enumerator_System_Collections_IEnumerator_get_Current_mE94AA68A196B3C7043585DA7087D56FCB5503F31_gshared
F4h:__ZL79Slider_t0654A41304B5CE7074CA86F4E66CB681D0D52C09_CustomAttributesCacheGeneratorP21CustomAttributesCache
Snr:_ReadOnlyCollection_1_System_Collections_IList_set_Item_m90D680E1A2EBCD218DC9091724B488D384CF1DD8_gshared
WRf:__ZN5physx2Dy19SolverCoreGeneralPF6createEv
S_j:_FixedSizeArrayListWrapper_get_ErrorMessage_m0F824CAFFD877B1D9BB12CFFD5D0D888703C4369
Q6q:_Enumerator_MoveNext_m8DAA3E16653F89633827DA4622CC87849A08A08E_AdjustorThunk
yNb:__ZN14SafeBinaryRead8TransferI10MeshFilterEEvRT_PKc17TransferMetaFlags
fgd:__ZNK6Camera16GetLocalSpaceAimEv
Zaj:_InternalEnumerator_1_Dispose_mA6059E3E1625D3D4D6E4089001017D77F6BD150F_AdjustorThunk
D0b:__Z18Transfer_BlittableI14SafeBinaryReadLb1EyEvRK29SerializationCommandArgumentsR31RuntimeSerializationCommandInfo
w1d:__ZNSt3__27__sort5IR31SortCollisionEventsByGameObjectP22ParticleCollisionEventEEjT0_S5_S5_S5_S5_T_
Uud:__Z41Texture2DArray_CUSTOM_Internal_CreateImplP12Il2CppObjectiii14GraphicsFormat20TextureCreationFlags
GQd:__ZN8JSONRead8TransferIfEEvRT_PKc17TransferMetaFlagsb
Erp:_GuidParser_ParseChar_mE978AE06E0EB3C1286FCD995984E10F832390F0F
ANj:_Lease_UpdateState_m1F8CD2CB40F29FEAB2FCF920C50874B0F1F940CA
ngn:_TlsServerSettings_UpdateCertificateRSA_mAEC9B08B10C37944DB57A763C38AC47B98492450
J1c:__ZN9ShaderLab7Program22ComputeSupportsShadowsEv
w_t:__ZNSt3__212basic_stringIcNS_11char_traitsIcEENS_9allocatorIcEEE6appendEPKcj
Q1c:__ZL23AddGpuProgramParametersR20GpuProgramParametersRKNSt3__26vectorIN9ShaderLab20SerializedSubProgram15MatrixParameterENS1_9allocatorIS5_EEEERKNS2_INS4_15VectorParameterENS6_ISB_EEEEiiP16PropertyNamesSet
yzb:__ZN6prcoreL17RemapGenericFloatI18TexFormatARGBFloat17TexFormatRGBAHalfEEvPKNS_9InnerInfoE
W8:__ZN11AudioSource21ApplyCachedParametersE12SoundChannel
Iag:__ZN5physx22QuickHullConvexHullLib16createConvexHullEv
$ej:__Z105InternalEnumerator_1_System_Collections_IEnumerator_get_Current_mA782D763E35D2FCDC9662010407B1225F5D4E6B3P62InternalEnumerator_1_tA7F1FE0470085AFFFC689627402D26DB1CA6A277PK10MethodInfo
wOp:_RenderTexture_get_width_m246F1304B26711BE9D18EE186F130590B9EDADDB
sWt:_getint
$aa:__ZN9AudioClip7WWWOpenEPKciPjPPvS4_
kEs:_WillRenderCanvases_Invoke_m115F44E08A802F1800D79D3B92EE1A575AD08834
TGb:__ZN15SerializeTraitsI33EnlightenTerrainChunksInformationE8TransferI14SafeBinaryReadEEvRS0_RT_
mve:__ZN6b2Body12SetTransformERK6b2Vec2f
J9c:__ZNK32RendererMaterialAnimationBinding9BindValueER6ObjectRKN11UnityEngine9Animation14GenericBindingERNS3_10BoundCurveE
$Ee:__ZN9Scripting11UnityEngineL62__ManagedRegistrationHelperFunction_ControllerColliderHitProxyEPv
$1n:_Enum_ToObject_mE139237F62FDE5F0517CB2C02596FE64C2BAD64D
lOs:__ZN6il2cpp2vm5Class11IsInterfaceEPK11Il2CppClass
Znb:__Z13GetIAnimationv
QXh:__ZL157UnityWebRequest_t9120F5A2C7D43B936B49C0B7E4CA54C822689129_CustomAttributesCacheGenerator_UnityWebRequest_get_isDone_mB3CC99A8DC3DB1DD44B23008688EB2DF20906FDAP21CustomAttributesCache
Rwb:__ZL18stbir__support_onef
Kwm:_Array_TrueForAll_TisRuntimeObject_m5FDDA6D3BB42CC9F496A2E1B036CB006071644F4_gshared
BKo:_BigInteger_TestBit_m562433834017AE389A90E674BC921398CB095797
Wpg:__ZN15TerrainRenderer30GetPatchVertexStreamDeprecatedEiiiPP9GfxBuffer
GYo:_DSACryptoServiceProvider__ctor_m387ED71E8D6B151F33155CA594EBFD5D4B6F2720
BEk:_ImageEffects_BlitWithMaterial_m13160755325EE290D56B738724AADF3C7DCB5C10
vSd:__Z26Transfer_UnityEngineObjectI9JSONWriteLb0EEvRK29SerializationCommandArgumentsR31RuntimeSerializationCommandInfo
iDh:__ZL94FreeFunctionAttribute_tE41160023E316B5E3DF87DA36BDDA9639DD835AE_CustomAttributesCacheGeneratorP21CustomAttributesCache
lde:__ZN14VelocityModuleD2Ev
zsb:__ZNSt3__26vectorIN4core12basic_stringIcNS1_20StringStorageDefaultIcEEEE13stl_allocatorIS5_L18MemLabelIdentifier1ELi16EEE6assignINS_11__wrap_iterIPS5_EEEENS_9enable_ifIXaasr21__is_forward_iteratorIT_EE5valuesr16is_constructibleIS5_NS_15iterator_traitsISF_E9referenceEEE5valueEvE4typeESF_SF_
PTg:__ZNSt3__27__sort5IRNS_6__lessIN2UI14DepthSortEntryES3_EEPS3_EEjT0_S7_S7_S7_S7_T_
rPf:__ZN5physx2Gu10gjkRaycastINS0_14RelativeConvexINS0_8CapsuleVEEENS0_11LocalConvexINS0_17ShrunkConvexHullVEEEEEbRKT_RKT0_RKNS_6shdfnd3aos5Vec3VERKNSF_6FloatVESI_SI_RSJ_RSG_SN_f
NBa:__ZN24StaticInitializeInternal13ConstructTypeI13RendererSceneLb0EEEPvS2_10MemLabelId
fCg:_UNITY_FT_DivFix
Lvd:__Z50Register_UnityEngine_Texture2DArray_get_isReadablev
Tnr:_ReadOnlyCollection_1_Contains_mF7C173AF2113FE30C0D45ECD7B976D94A95B9E12_gshared
Skn:_X509Certificate_get_IsSelfSigned_mE2B94803B5DAB2AE091041100A5B1B9B820A0859
iBl:_Material_get_passCount_m790A357C17FB4D829C479652B1B65BC15F73FBB1
W8c:__ZN14Texture2DArrayC2E10MemLabelId18ObjectCreationMode
nl:FUNCTION_TABLE_fiii
lEh:__ZL75g_UnityEngine_SharedInternalsModule_Assembly_CustomAttributesCacheGeneratorP21CustomAttributesCache
eBl:_Material_HasProperty_m901DE6C516A0D2C986B849C7B44F679AE21B8927
QRa:__ZN9Scripting11UnityEngine22ExecuteInEditModeProxy9InitProxyEv
MJk:_Graphic_RegisterDirtyLayoutCallback_mABB502AA4DDBA36F42490B0AC6BBC81447A9553E
ROf:__ZN5physx2Gu24SweepAnyShapeHeightfieldERKNS0_8CCDShapeES3_RKNS_11PxTransformES6_S6_S6_fRNS_6PxVec3ES8_fRjf
kPg:__ZZ29InitializeTextRenderingModulevEN27cleanupAfterLoadRegistrator7ForwardEv
hMm:_NumberFormatter_NumberToString_m25E25BFAA97D8526D7A3CE9F08882004938D1C1D
OI:__ZN27AnimationLayerMixerPlayable24ProcessAnimationLayerMixEP33AnimationPlayableEvaluationOutputP35AnimationPlayableEvaluationConstantP32AnimationPlayableEvaluationInputS1_if
o4l:__Z218RuntimeInvoker_TrueRuntimeObject_RuntimeObject_Int32_tC16F64335CE8B56D99229DE94BB3A876ED55FE87_RuntimeObject_RuntimeObject_Int32_tC16F64335CE8B56D99229DE94BB3A876ED55FE87_Int32_tC16F64335CE8B56D99229DE94BB3A876ED55FE87PFvvEPK10MethodInfoPvPS4_
TRc:__Z29PluginsIssueRenderingExtEvent26UnityRenderingExtEventTypePv
E$t:___udivmoddi4
Xpg:__ZN21TerrainIndexGenerator14GetIndexBufferEiRj
w8c:__Z14RandomRotationP9Texture2DPhiiii
vcj:_InternalEnumerator_1_System_Collections_IEnumerator_Reset_mDCF727EFA2DC325D74D02C867F44AE5BB486638E_AdjustorThunk
mbe:__ZN18ColorBySpeedModule8TransferI18StreamedBinaryReadEEvRT_
YVr:_UnityEvent_1_FindMethod_Impl_mDD1047ED8F4A1CABD0ACBC76D73B344DCDAC3126_gshared
cfk:_DateTime_get_Year_m74B963E69C6A95ACE68B32001C3A8498886ECE09_AdjustorThunk
N_b:__ZN10Instancing11DrawAPIArgsC2ERK19ShaderPropertySheetPK8Vector4fS6_S6_i
yAj:_Enumerator_Dispose_m16F12C2BA06F87B1B7124F8EE6C3DEF23E60A62F_gshared
jUf:__ZN5physx2Dy31getContactManagerConstraintDescERKNS_23PxsContactManagerOutputERKNS_17PxsContactManagerERNS_22PxSolverConstraintDescE
gXr:_IndexedSet_1_RemoveAll_mAE4ADE1DF64CADF07B55057DC73FB3506D955A68_gshared
KQg:__ZN9Scripting11UnityEngineL47__ManagedRegistrationHelperFunction_CanvasProxyEPv
k6h:__ZL89Button_t1203820000D5513FDCCE3D4BFF9C1C9CC755CC2B_CustomAttributesCacheGenerator_m_OnClickP21CustomAttributesCache
